(lp0
V---------------------------------------------\u000a01 ROUGE-1 Average_R: 0.55608 (95%-conf.int. 0.54195 - 0.56820)\u000a01 ROUGE-1 Average_P: 0.40295 (95%-conf.int. 0.39438 - 0.41296)\u000a01 ROUGE-1 Average_F: 0.45894 (95%-conf.int. 0.44893 - 0.46856)\u000a---------------------------------------------\u000a01 ROUGE-2 Average_R: 0.26247 (95%-conf.int. 0.24911 - 0.27552)\u000a01 ROUGE-2 Average_P: 0.18754 (95%-conf.int. 0.17911 - 0.19698)\u000a01 ROUGE-2 Average_F: 0.21497 (95%-conf.int. 0.20504 - 0.22496)\u000a---------------------------------------------\u000a01 ROUGE-3 Average_R: 0.16923 (95%-conf.int. 0.15850 - 0.18052)\u000a01 ROUGE-3 Average_P: 0.12008 (95%-conf.int. 0.11325 - 0.12813)\u000a01 ROUGE-3 Average_F: 0.13812 (95%-conf.int. 0.12981 - 0.14686)\u000a---------------------------------------------\u000a01 ROUGE-4 Average_R: 0.12334 (95%-conf.int. 0.11421 - 0.13327)\u000a01 ROUGE-4 Average_P: 0.08714 (95%-conf.int. 0.08114 - 0.09432)\u000a01 ROUGE-4 Average_F: 0.10041 (95%-conf.int. 0.09345 - 0.10816)\u000a---------------------------------------------\u000a01 ROUGE-L Average_R: 0.51861 (95%-conf.int. 0.50516 - 0.53051)\u000a01 ROUGE-L Average_P: 0.37606 (95%-conf.int. 0.36786 - 0.38552)\u000a01 ROUGE-L Average_F: 0.42813 (95%-conf.int. 0.41835 - 0.43735)\u000a---------------------------------------------\u000a02 ROUGE-1 Average_R: 0.61962 (95%-conf.int. 0.60778 - 0.63135)\u000a02 ROUGE-1 Average_P: 0.35420 (95%-conf.int. 0.34528 - 0.36384)\u000a02 ROUGE-1 Average_F: 0.44616 (95%-conf.int. 0.43684 - 0.45604)\u000a---------------------------------------------\u000a02 ROUGE-2 Average_R: 0.28890 (95%-conf.int. 0.27481 - 0.30295)\u000a02 ROUGE-2 Average_P: 0.16556 (95%-conf.int. 0.15732 - 0.17433)\u000a02 ROUGE-2 Average_F: 0.20828 (95%-conf.int. 0.19829 - 0.21884)\u000a---------------------------------------------\u000a02 ROUGE-3 Average_R: 0.18641 (95%-conf.int. 0.17432 - 0.19907)\u000a02 ROUGE-3 Average_P: 0.10694 (95%-conf.int. 0.09985 - 0.11472)\u000a02 ROUGE-3 Average_F: 0.13448 (95%-conf.int. 0.12548 - 0.14389)\u000a---------------------------------------------\u000a02 ROUGE-4 Average_R: 0.13729 (95%-conf.int. 0.12655 - 0.14862)\u000a02 ROUGE-4 Average_P: 0.07853 (95%-conf.int. 0.07231 - 0.08528)\u000a02 ROUGE-4 Average_F: 0.09885 (95%-conf.int. 0.09120 - 0.10688)\u000a---------------------------------------------\u000a02 ROUGE-L Average_R: 0.57496 (95%-conf.int. 0.56353 - 0.58645)\u000a02 ROUGE-L Average_P: 0.32900 (95%-conf.int. 0.32041 - 0.33843)\u000a02 ROUGE-L Average_F: 0.41426 (95%-conf.int. 0.40497 - 0.42394)\u000a---------------------------------------------\u000a03 ROUGE-1 Average_R: 0.56628 (95%-conf.int. 0.55195 - 0.57957)\u000a03 ROUGE-1 Average_P: 0.39107 (95%-conf.int. 0.38265 - 0.40012)\u000a03 ROUGE-1 Average_F: 0.45528 (95%-conf.int. 0.44627 - 0.46410)\u000a---------------------------------------------\u000a03 ROUGE-2 Average_R: 0.26232 (95%-conf.int. 0.24870 - 0.27585)\u000a03 ROUGE-2 Average_P: 0.17866 (95%-conf.int. 0.17048 - 0.18759)\u000a03 ROUGE-2 Average_F: 0.20910 (95%-conf.int. 0.19949 - 0.21900)\u000a---------------------------------------------\u000a03 ROUGE-3 Average_R: 0.16697 (95%-conf.int. 0.15551 - 0.17928)\u000a03 ROUGE-3 Average_P: 0.11271 (95%-conf.int. 0.10570 - 0.12014)\u000a03 ROUGE-3 Average_F: 0.13251 (95%-conf.int. 0.12412 - 0.14126)\u000a---------------------------------------------\u000a03 ROUGE-4 Average_R: 0.12146 (95%-conf.int. 0.11178 - 0.13223)\u000a03 ROUGE-4 Average_P: 0.08156 (95%-conf.int. 0.07562 - 0.08793)\u000a03 ROUGE-4 Average_F: 0.09610 (95%-conf.int. 0.08906 - 0.10385)\u000a---------------------------------------------\u000a03 ROUGE-L Average_R: 0.52724 (95%-conf.int. 0.51366 - 0.53991)\u000a03 ROUGE-L Average_P: 0.36414 (95%-conf.int. 0.35606 - 0.37281)\u000a03 ROUGE-L Average_F: 0.42389 (95%-conf.int. 0.41515 - 0.43291)\u000a---------------------------------------------\u000a04 ROUGE-1 Average_R: 0.63336 (95%-conf.int. 0.62171 - 0.64476)\u000a04 ROUGE-1 Average_P: 0.35162 (95%-conf.int. 0.34295 - 0.36099)\u000a04 ROUGE-1 Average_F: 0.44754 (95%-conf.int. 0.43822 - 0.45690)\u000a---------------------------------------------\u000a04 ROUGE-2 Average_R: 0.30250 (95%-conf.int. 0.28865 - 0.31624)\u000a04 ROUGE-2 Average_P: 0.16876 (95%-conf.int. 0.16038 - 0.17782)\u000a04 ROUGE-2 Average_F: 0.21435 (95%-conf.int. 0.20422 - 0.22485)\u000a---------------------------------------------\u000a04 ROUGE-3 Average_R: 0.19585 (95%-conf.int. 0.18329 - 0.20851)\u000a04 ROUGE-3 Average_P: 0.10955 (95%-conf.int. 0.10230 - 0.11733)\u000a04 ROUGE-3 Average_F: 0.13903 (95%-conf.int. 0.13004 - 0.14832)\u000a---------------------------------------------\u000a04 ROUGE-4 Average_R: 0.14405 (95%-conf.int. 0.13317 - 0.15491)\u000a04 ROUGE-4 Average_P: 0.08048 (95%-conf.int. 0.07428 - 0.08717)\u000a04 ROUGE-4 Average_F: 0.10217 (95%-conf.int. 0.09445 - 0.11024)\u000a---------------------------------------------\u000a04 ROUGE-L Average_R: 0.59016 (95%-conf.int. 0.57849 - 0.60216)\u000a04 ROUGE-L Average_P: 0.32804 (95%-conf.int. 0.31939 - 0.33717)\u000a04 ROUGE-L Average_F: 0.41734 (95%-conf.int. 0.40793 - 0.42708)\u000a---------------------------------------------\u000a05 ROUGE-1 Average_R: 0.52135 (95%-conf.int. 0.50605 - 0.53592)\u000a05 ROUGE-1 Average_P: 0.39798 (95%-conf.int. 0.38811 - 0.40867)\u000a05 ROUGE-1 Average_F: 0.44252 (95%-conf.int. 0.43259 - 0.45276)\u000a---------------------------------------------\u000a05 ROUGE-2 Average_R: 0.23946 (95%-conf.int. 0.22570 - 0.25383)\u000a05 ROUGE-2 Average_P: 0.17906 (95%-conf.int. 0.17014 - 0.18931)\u000a05 ROUGE-2 Average_F: 0.20081 (95%-conf.int. 0.19060 - 0.21196)\u000a---------------------------------------------\u000a05 ROUGE-3 Average_R: 0.15400 (95%-conf.int. 0.14244 - 0.16589)\u000a05 ROUGE-3 Average_P: 0.11423 (95%-conf.int. 0.10662 - 0.12262)\u000a05 ROUGE-3 Average_F: 0.12850 (95%-conf.int. 0.11952 - 0.13827)\u000a---------------------------------------------\u000a05 ROUGE-4 Average_R: 0.11268 (95%-conf.int. 0.10303 - 0.12273)\u000a05 ROUGE-4 Average_P: 0.08319 (95%-conf.int. 0.07690 - 0.09046)\u000a05 ROUGE-4 Average_F: 0.09372 (95%-conf.int. 0.08653 - 0.10188)\u000a---------------------------------------------\u000a05 ROUGE-L Average_R: 0.48586 (95%-conf.int. 0.47133 - 0.50021)\u000a05 ROUGE-L Average_P: 0.37074 (95%-conf.int. 0.36140 - 0.38113)\u000a05 ROUGE-L Average_F: 0.41231 (95%-conf.int. 0.40251 - 0.42222)\u000a---------------------------------------------\u000a08 ROUGE-1 Average_R: 0.53970 (95%-conf.int. 0.52520 - 0.55355)\u000a08 ROUGE-1 Average_P: 0.40402 (95%-conf.int. 0.39509 - 0.41435)\u000a08 ROUGE-1 Average_F: 0.45350 (95%-conf.int. 0.44374 - 0.46327)\u000a---------------------------------------------\u000a08 ROUGE-2 Average_R: 0.25016 (95%-conf.int. 0.23594 - 0.26367)\u000a08 ROUGE-2 Average_P: 0.18357 (95%-conf.int. 0.17471 - 0.19324)\u000a08 ROUGE-2 Average_F: 0.20786 (95%-conf.int. 0.19776 - 0.21832)\u000a---------------------------------------------\u000a08 ROUGE-3 Average_R: 0.16150 (95%-conf.int. 0.14963 - 0.17324)\u000a08 ROUGE-3 Average_P: 0.11748 (95%-conf.int. 0.11000 - 0.12589)\u000a08 ROUGE-3 Average_F: 0.13353 (95%-conf.int. 0.12501 - 0.14258)\u000a---------------------------------------------\u000a08 ROUGE-4 Average_R: 0.11839 (95%-conf.int. 0.10884 - 0.12865)\u000a08 ROUGE-4 Average_P: 0.08585 (95%-conf.int. 0.07952 - 0.09286)\u000a08 ROUGE-4 Average_F: 0.09766 (95%-conf.int. 0.09046 - 0.10559)\u000a---------------------------------------------\u000a08 ROUGE-L Average_R: 0.50260 (95%-conf.int. 0.48816 - 0.51624)\u000a08 ROUGE-L Average_P: 0.37625 (95%-conf.int. 0.36781 - 0.38633)\u000a08 ROUGE-L Average_F: 0.42229 (95%-conf.int. 0.41286 - 0.43199)\u000a---------------------------------------------\u000a10 ROUGE-1 Average_R: 0.63336 (95%-conf.int. 0.62171 - 0.64476)\u000a10 ROUGE-1 Average_P: 0.35162 (95%-conf.int. 0.34295 - 0.36099)\u000a10 ROUGE-1 Average_F: 0.44754 (95%-conf.int. 0.43822 - 0.45690)\u000a---------------------------------------------\u000a10 ROUGE-2 Average_R: 0.30250 (95%-conf.int. 0.28865 - 0.31624)\u000a10 ROUGE-2 Average_P: 0.16876 (95%-conf.int. 0.16038 - 0.17782)\u000a10 ROUGE-2 Average_F: 0.21435 (95%-conf.int. 0.20422 - 0.22485)\u000a---------------------------------------------\u000a10 ROUGE-3 Average_R: 0.19585 (95%-conf.int. 0.18329 - 0.20851)\u000a10 ROUGE-3 Average_P: 0.10955 (95%-conf.int. 0.10230 - 0.11733)\u000a10 ROUGE-3 Average_F: 0.13903 (95%-conf.int. 0.13004 - 0.14832)\u000a---------------------------------------------\u000a10 ROUGE-4 Average_R: 0.14405 (95%-conf.int. 0.13317 - 0.15491)\u000a10 ROUGE-4 Average_P: 0.08048 (95%-conf.int. 0.07428 - 0.08717)\u000a10 ROUGE-4 Average_F: 0.10217 (95%-conf.int. 0.09445 - 0.11024)\u000a---------------------------------------------\u000a10 ROUGE-L Average_R: 0.59016 (95%-conf.int. 0.57849 - 0.60216)\u000a10 ROUGE-L Average_P: 0.32804 (95%-conf.int. 0.31939 - 0.33717)\u000a10 ROUGE-L Average_F: 0.41734 (95%-conf.int. 0.40793 - 0.42708)\u000a
p1
a.