(dp0
S'02'
p1
(dp2
VROUGE-L
p3
(lp4
(lp5
VAverage_R
p6
aV0.57496
p7
aV0.56353
p8
aV0.58645
p9
aa(lp10
VAverage_P
p11
aV0.32900
p12
aV0.32041
p13
aV0.33843
p14
aa(lp15
VAverage_F
p16
aV0.41426
p17
aV0.40497
p18
aV0.42394
p19
aasVROUGE-4
p20
(lp21
(lp22
VAverage_R
p23
aV0.13729
p24
aV0.12655
p25
aV0.14862
p26
aa(lp27
VAverage_P
p28
aV0.07853
p29
aV0.07231
p30
aV0.08528
p31
aa(lp32
VAverage_F
p33
aV0.09885
p34
aV0.09120
p35
aV0.10688
p36
aasVROUGE-2
p37
(lp38
(lp39
VAverage_R
p40
aV0.28890
p41
aV0.27481
p42
aV0.30295
p43
aa(lp44
VAverage_P
p45
aV0.16556
p46
aV0.15732
p47
aV0.17433
p48
aa(lp49
VAverage_F
p50
aV0.20828
p51
aV0.19829
p52
aV0.21884
p53
aasVROUGE-3
p54
(lp55
(lp56
VAverage_R
p57
aV0.18641
p58
aV0.17432
p59
aV0.19907
p60
aa(lp61
VAverage_P
p62
aV0.10694
p63
aV0.09985
p64
aV0.11472
p65
aa(lp66
VAverage_F
p67
aV0.13448
p68
aV0.12548
p69
aV0.14389
p70
aasVROUGE-1
p71
(lp72
(lp73
VAverage_R
p74
aV0.61962
p75
aV0.60778
p76
aV0.63135
p77
aa(lp78
VAverage_P
p79
aV0.35420
p80
aV0.34528
p81
aV0.36384
p82
aa(lp83
VAverage_F
p84
aV0.44616
p85
aV0.43684
p86
aV0.45604
p87
aassS'03'
p88
(dp89
VROUGE-L
p90
(lp91
(lp92
VAverage_R
p93
aV0.52724
p94
aV0.51366
p95
aV0.53991
p96
aa(lp97
VAverage_P
p98
aV0.36414
p99
aV0.35606
p100
aV0.37281
p101
aa(lp102
VAverage_F
p103
aV0.42389
p104
aV0.41515
p105
aV0.43291
p106
aasVROUGE-4
p107
(lp108
(lp109
VAverage_R
p110
aV0.12146
p111
aV0.11178
p112
aV0.13223
p113
aa(lp114
VAverage_P
p115
aV0.08156
p116
aV0.07562
p117
aV0.08793
p118
aa(lp119
VAverage_F
p120
aV0.09610
p121
aV0.08906
p122
aV0.10385
p123
aasVROUGE-2
p124
(lp125
(lp126
VAverage_R
p127
aV0.26232
p128
aV0.24870
p129
aV0.27585
p130
aa(lp131
VAverage_P
p132
aV0.17866
p133
aV0.17048
p134
aV0.18759
p135
aa(lp136
VAverage_F
p137
aV0.20910
p138
aV0.19949
p139
aV0.21900
p140
aasVROUGE-3
p141
(lp142
(lp143
VAverage_R
p144
aV0.16697
p145
aV0.15551
p146
aV0.17928
p147
aa(lp148
VAverage_P
p149
aV0.11271
p150
aV0.10570
p151
aV0.12014
p152
aa(lp153
VAverage_F
p154
aV0.13251
p155
aV0.12412
p156
aV0.14126
p157
aasVROUGE-1
p158
(lp159
(lp160
VAverage_R
p161
aV0.56628
p162
aV0.55195
p163
aV0.57957
p164
aa(lp165
VAverage_P
p166
aV0.39107
p167
aV0.38265
p168
aV0.40012
p169
aa(lp170
VAverage_F
p171
aV0.45528
p172
aV0.44627
p173
aV0.46410
p174
aassS'01'
p175
(dp176
VROUGE-L
p177
(lp178
(lp179
VAverage_R
p180
aV0.51861
p181
aV0.50516
p182
aV0.53051
p183
aa(lp184
VAverage_P
p185
aV0.37606
p186
aV0.36786
p187
aV0.38552
p188
aa(lp189
VAverage_F
p190
aV0.42813
p191
aV0.41835
p192
aV0.43735
p193
aasVROUGE-4
p194
(lp195
(lp196
VAverage_R
p197
aV0.12334
p198
aV0.11421
p199
aV0.13327
p200
aa(lp201
VAverage_P
p202
aV0.08714
p203
aV0.08114
p204
aV0.09432
p205
aa(lp206
VAverage_F
p207
aV0.10041
p208
aV0.09345
p209
aV0.10816
p210
aasVROUGE-2
p211
(lp212
(lp213
VAverage_R
p214
aV0.26247
p215
aV0.24911
p216
aV0.27552
p217
aa(lp218
VAverage_P
p219
aV0.18754
p220
aV0.17911
p221
aV0.19698
p222
aa(lp223
VAverage_F
p224
aV0.21497
p225
aV0.20504
p226
aV0.22496
p227
aasVROUGE-3
p228
(lp229
(lp230
VAverage_R
p231
aV0.16923
p232
aV0.15850
p233
aV0.18052
p234
aa(lp235
VAverage_P
p236
aV0.12008
p237
aV0.11325
p238
aV0.12813
p239
aa(lp240
VAverage_F
p241
aV0.13812
p242
aV0.12981
p243
aV0.14686
p244
aasVROUGE-1
p245
(lp246
(lp247
VAverage_R
p248
aV0.55608
p249
aV0.54195
p250
aV0.56820
p251
aa(lp252
VAverage_P
p253
aV0.40295
p254
aV0.39438
p255
aV0.41296
p256
aa(lp257
VAverage_F
p258
aV0.45894
p259
aV0.44893
p260
aV0.46856
p261
aassS'04'
p262
(dp263
VROUGE-L
p264
(lp265
(lp266
VAverage_R
p267
aV0.59016
p268
aV0.57849
p269
aV0.60216
p270
aa(lp271
VAverage_P
p272
aV0.32804
p273
aV0.31939
p274
aV0.33717
p275
aa(lp276
VAverage_F
p277
aV0.41734
p278
aV0.40793
p279
aV0.42708
p280
aasVROUGE-4
p281
(lp282
(lp283
VAverage_R
p284
aV0.14405
p285
aV0.13317
p286
aV0.15491
p287
aa(lp288
VAverage_P
p289
aV0.08048
p290
aV0.07428
p291
aV0.08717
p292
aa(lp293
VAverage_F
p294
aV0.10217
p295
aV0.09445
p296
aV0.11024
p297
aasVROUGE-2
p298
(lp299
(lp300
VAverage_R
p301
aV0.30250
p302
aV0.28865
p303
aV0.31624
p304
aa(lp305
VAverage_P
p306
aV0.16876
p307
aV0.16038
p308
aV0.17782
p309
aa(lp310
VAverage_F
p311
aV0.21435
p312
aV0.20422
p313
aV0.22485
p314
aasVROUGE-3
p315
(lp316
(lp317
VAverage_R
p318
aV0.19585
p319
aV0.18329
p320
aV0.20851
p321
aa(lp322
VAverage_P
p323
aV0.10955
p324
aV0.10230
p325
aV0.11733
p326
aa(lp327
VAverage_F
p328
aV0.13903
p329
aV0.13004
p330
aV0.14832
p331
aasVROUGE-1
p332
(lp333
(lp334
VAverage_R
p335
aV0.63336
p336
aV0.62171
p337
aV0.64476
p338
aa(lp339
VAverage_P
p340
aV0.35162
p341
aV0.34295
p342
aV0.36099
p343
aa(lp344
VAverage_F
p345
aV0.44754
p346
aV0.43822
p347
aV0.45690
p348
aassS'05'
p349
(dp350
VROUGE-L
p351
(lp352
(lp353
VAverage_R
p354
aV0.48590
p355
aV0.47128
p356
aV0.50017
p357
aa(lp358
VAverage_P
p359
aV0.37093
p360
aV0.36164
p361
aV0.38123
p362
aa(lp363
VAverage_F
p364
aV0.41242
p365
aV0.40258
p366
aV0.42234
p367
aasVROUGE-4
p368
(lp369
(lp370
VAverage_R
p371
aV0.11250
p372
aV0.10284
p373
aV0.12258
p374
aa(lp375
VAverage_P
p376
aV0.08313
p377
aV0.07677
p378
aV0.09053
p379
aa(lp380
VAverage_F
p381
aV0.09362
p382
aV0.08637
p383
aV0.10185
p384
aasVROUGE-2
p385
(lp386
(lp387
VAverage_R
p388
aV0.23942
p389
aV0.22559
p390
aV0.25382
p391
aa(lp392
VAverage_P
p393
aV0.17914
p394
aV0.17011
p395
aV0.18926
p396
aa(lp397
VAverage_F
p398
aV0.20084
p399
aV0.19054
p400
aV0.21203
p401
aasVROUGE-3
p402
(lp403
(lp404
VAverage_R
p405
aV0.15386
p406
aV0.14233
p407
aV0.16588
p408
aa(lp409
VAverage_P
p410
aV0.11420
p411
aV0.10659
p412
aV0.12275
p413
aa(lp414
VAverage_F
p415
aV0.12844
p416
aV0.11956
p417
aV0.13825
p418
aasVROUGE-1
p419
(lp420
(lp421
VAverage_R
p422
aV0.52147
p423
aV0.50647
p424
aV0.53633
p425
aa(lp426
VAverage_P
p427
aV0.39824
p428
aV0.38848
p429
aV0.40885
p430
aa(lp431
VAverage_F
p432
aV0.44270
p433
aV0.43275
p434
aV0.45292
p435
aassS'08'
p436
(dp437
VROUGE-L
p438
(lp439
(lp440
VAverage_R
p441
aV0.50260
p442
aV0.48816
p443
aV0.51624
p444
aa(lp445
VAverage_P
p446
aV0.37625
p447
aV0.36781
p448
aV0.38633
p449
aa(lp450
VAverage_F
p451
aV0.42229
p452
aV0.41286
p453
aV0.43199
p454
aasVROUGE-4
p455
(lp456
(lp457
VAverage_R
p458
aV0.11839
p459
aV0.10884
p460
aV0.12865
p461
aa(lp462
VAverage_P
p463
aV0.08585
p464
aV0.07952
p465
aV0.09286
p466
aa(lp467
VAverage_F
p468
aV0.09766
p469
aV0.09046
p470
aV0.10559
p471
aasVROUGE-2
p472
(lp473
(lp474
VAverage_R
p475
aV0.25016
p476
aV0.23594
p477
aV0.26367
p478
aa(lp479
VAverage_P
p480
aV0.18357
p481
aV0.17471
p482
aV0.19324
p483
aa(lp484
VAverage_F
p485
aV0.20786
p486
aV0.19776
p487
aV0.21832
p488
aasVROUGE-3
p489
(lp490
(lp491
VAverage_R
p492
aV0.16150
p493
aV0.14963
p494
aV0.17324
p495
aa(lp496
VAverage_P
p497
aV0.11748
p498
aV0.11000
p499
aV0.12589
p500
aa(lp501
VAverage_F
p502
aV0.13353
p503
aV0.12501
p504
aV0.14258
p505
aasVROUGE-1
p506
(lp507
(lp508
VAverage_R
p509
aV0.53970
p510
aV0.52520
p511
aV0.55355
p512
aa(lp513
VAverage_P
p514
aV0.40402
p515
aV0.39509
p516
aV0.41435
p517
aa(lp518
VAverage_F
p519
aV0.45350
p520
aV0.44374
p521
aV0.46327
p522
aassS'10'
p523
(dp524
VROUGE-L
p525
(lp526
(lp527
VAverage_R
p528
aV0.59016
p529
aV0.57849
p530
aV0.60216
p531
aa(lp532
VAverage_P
p533
aV0.32804
p534
aV0.31939
p535
aV0.33717
p536
aa(lp537
VAverage_F
p538
aV0.41734
p539
aV0.40793
p540
aV0.42708
p541
aasVROUGE-4
p542
(lp543
(lp544
VAverage_R
p545
aV0.14405
p546
aV0.13317
p547
aV0.15491
p548
aa(lp549
VAverage_P
p550
aV0.08048
p551
aV0.07428
p552
aV0.08717
p553
aa(lp554
VAverage_F
p555
aV0.10217
p556
aV0.09445
p557
aV0.11024
p558
aasVROUGE-2
p559
(lp560
(lp561
VAverage_R
p562
aV0.30250
p563
aV0.28865
p564
aV0.31624
p565
aa(lp566
VAverage_P
p567
aV0.16876
p568
aV0.16038
p569
aV0.17782
p570
aa(lp571
VAverage_F
p572
aV0.21435
p573
aV0.20422
p574
aV0.22485
p575
aasVROUGE-3
p576
(lp577
(lp578
VAverage_R
p579
aV0.19585
p580
aV0.18329
p581
aV0.20851
p582
aa(lp583
VAverage_P
p584
aV0.10955
p585
aV0.10230
p586
aV0.11733
p587
aa(lp588
VAverage_F
p589
aV0.13903
p590
aV0.13004
p591
aV0.14832
p592
aasVROUGE-1
p593
(lp594
(lp595
VAverage_R
p596
aV0.63336
p597
aV0.62171
p598
aV0.64476
p599
aa(lp600
VAverage_P
p601
aV0.35162
p602
aV0.34295
p603
aV0.36099
p604
aa(lp605
VAverage_F
p606
aV0.44754
p607
aV0.43822
p608
aV0.45690
p609
aass.