(dp0
S'11'
p1
(dp2
VROUGE-L
p3
(lp4
(lp5
VAverage_R
p6
aV0.00871
p7
aV0.00871
p8
aV0.00871
p9
aa(lp10
VAverage_P
p11
aV0.66667
p12
aV0.66667
p13
aV0.66667
p14
aa(lp15
VAverage_F
p16
aV0.01720
p17
aV0.01720
p18
aV0.01720
p19
aasVROUGE-4
p20
(lp21
(lp22
VAverage_R
p23
aV0.00000
p24
aV0.00000
p25
aV0.00000
p26
aa(lp27
VAverage_P
p28
aV0.00000
p29
aV0.00000
p30
aV0.00000
p31
aa(lp32
VAverage_F
p33
aV0.00000
p34
aV0.00000
p35
aV0.00000
p36
aasVROUGE-2
p37
(lp38
(lp39
VAverage_R
p40
aV0.00000
p41
aV0.00000
p42
aV0.00000
p43
aa(lp44
VAverage_P
p45
aV0.00000
p46
aV0.00000
p47
aV0.00000
p48
aa(lp49
VAverage_F
p50
aV0.00000
p51
aV0.00000
p52
aV0.00000
p53
aasVROUGE-3
p54
(lp55
(lp56
VAverage_R
p57
aV0.00000
p58
aV0.00000
p59
aV0.00000
p60
aa(lp61
VAverage_P
p62
aV0.00000
p63
aV0.00000
p64
aV0.00000
p65
aa(lp66
VAverage_F
p67
aV0.00000
p68
aV0.00000
p69
aV0.00000
p70
aasVROUGE-1
p71
(lp72
(lp73
VAverage_R
p74
aV0.01089
p75
aV0.01089
p76
aV0.01089
p77
aa(lp78
VAverage_P
p79
aV0.83333
p80
aV0.83333
p81
aV0.83333
p82
aa(lp83
VAverage_F
p84
aV0.02150
p85
aV0.02150
p86
aV0.02150
p87
aassS'13'
p88
(dp89
VROUGE-L
p90
(lp91
(lp92
VAverage_R
p93
aV0.20316
p94
aV0.20044
p95
aV0.20588
p96
aa(lp97
VAverage_P
p98
aV0.62001
p99
aV0.60526
p100
aV0.63482
p101
aa(lp102
VAverage_F
p103
aV0.30602
p104
aV0.30115
p105
aV0.31090
p106
aasVROUGE-4
p107
(lp108
(lp109
VAverage_R
p110
aV0.01213
p111
aV0.00662
p112
aV0.01766
p113
aa(lp114
VAverage_P
p115
aV0.03859
p116
aV0.02055
p117
aV0.05670
p118
aa(lp119
VAverage_F
p120
aV0.01845
p121
aV0.01001
p122
aV0.02693
p123
aasVROUGE-2
p124
(lp125
(lp126
VAverage_R
p127
aV0.06837
p128
aV0.06346
p129
aV0.07331
p130
aa(lp131
VAverage_P
p132
aV0.21093
p133
aV0.19333
p134
aV0.22861
p135
aa(lp136
VAverage_F
p137
aV0.10326
p138
aV0.09555
p139
aV0.11100
p140
aasVROUGE-3
p141
(lp142
(lp143
VAverage_R
p144
aV0.02141
p145
aV0.01538
p146
aV0.02747
p147
aa(lp148
VAverage_P
p149
aV0.06713
p150
aV0.04730
p151
aV0.08703
p152
aa(lp153
VAverage_F
p154
aV0.03246
p155
aV0.02321
p156
aV0.04176
p157
aasVROUGE-1
p158
(lp159
(lp160
VAverage_R
p161
aV0.22004
p162
aV0.21569
p163
aV0.22440
p164
aa(lp165
VAverage_P
p166
aV0.67167
p167
aV0.65132
p168
aV0.69210
p169
aa(lp170
VAverage_F
p171
aV0.33146
p172
aV0.32406
p173
aV0.33889
p174
aassS'12'
p175
(dp176
VROUGE-L
p177
(lp178
(lp179
VAverage_R
p180
aV0.13616
p181
aV0.13290
p182
aV0.13943
p183
aa(lp184
VAverage_P
p185
aV0.60602
p186
aV0.57547
p187
aV0.63670
p188
aa(lp189
VAverage_F
p190
aV0.22229
p191
aV0.21593
p192
aV0.22869
p193
aasVROUGE-4
p194
(lp195
(lp196
VAverage_R
p197
aV0.01048
p198
aV0.00442
p199
aV0.01656
p200
aa(lp201
VAverage_P
p202
aV0.05105
p203
aV0.02000
p204
aV0.08222
p205
aa(lp206
VAverage_F
p207
aV0.01738
p208
aV0.00724
p209
aV0.02756
p210
aasVROUGE-2
p211
(lp212
(lp213
VAverage_R
p214
aV0.04155
p215
aV0.03282
p216
aV0.05033
p217
aa(lp218
VAverage_P
p219
aV0.19053
p220
aV0.14423
p221
aV0.23701
p222
aa(lp223
VAverage_F
p224
aV0.06820
p225
aV0.05347
p226
aV0.08299
p227
aasVROUGE-3
p228
(lp229
(lp230
VAverage_R
p231
aV0.01427
p232
aV0.00659
p233
aV0.02197
p234
aa(lp235
VAverage_P
p236
aV0.06817
p237
aV0.02941
p238
aV0.10710
p239
aa(lp240
VAverage_F
p241
aV0.02359
p242
aV0.01077
p243
aV0.03646
p244
aasVROUGE-1
p245
(lp246
(lp247
VAverage_R
p248
aV0.15195
p249
aV0.14815
p250
aV0.15578
p251
aa(lp252
VAverage_P
p253
aV0.67638
p254
aV0.64151
p255
aV0.71138
p256
aa(lp257
VAverage_F
p258
aV0.24809
p259
aV0.24071
p260
aV0.25549
p261
aassS'15'
p262
(dp263
VROUGE-L
p264
(lp265
(lp266
VAverage_R
p267
aV0.32073
p268
aV0.28105
p269
aV0.36057
p270
aa(lp271
VAverage_P
p272
aV0.47462
p273
aV0.44792
p274
aV0.50144
p275
aa(lp276
VAverage_F
p277
aV0.38169
p278
aV0.34539
p279
aV0.41814
p280
aasVROUGE-4
p281
(lp282
(lp283
VAverage_R
p284
aV0.04188
p285
aV0.01104
p286
aV0.07285
p287
aa(lp288
VAverage_P
p289
aV0.05582
p290
aV0.01773
p291
aV0.09406
p292
aa(lp293
VAverage_F
p294
aV0.04775
p295
aV0.01361
p296
aV0.08202
p297
aasVROUGE-2
p298
(lp299
(lp300
VAverage_R
p301
aV0.12466
p302
aV0.08972
p303
aV0.15974
p304
aa(lp305
VAverage_P
p306
aV0.17996
p307
aV0.14336
p308
aV0.21671
p309
aa(lp310
VAverage_F
p311
aV0.14681
p312
aV0.11037
p313
aV0.18339
p314
aasVROUGE-3
p315
(lp316
(lp317
VAverage_R
p318
aV0.05763
p319
aV0.02418
p320
aV0.09121
p321
aa(lp322
VAverage_P
p323
aV0.07897
p324
aV0.03873
p325
aV0.11937
p326
aa(lp327
VAverage_F
p328
aV0.06643
p329
aV0.02977
p330
aV0.10323
p331
aasVROUGE-1
p332
(lp333
(lp334
VAverage_R
p335
aV0.35286
p336
aV0.31590
p337
aV0.38998
p338
aa(lp339
VAverage_P
p340
aV0.52385
p341
aV0.50347
p342
aV0.54431
p343
aa(lp344
VAverage_F
p345
aV0.42051
p346
aV0.38822
p347
aV0.45292
p348
aassS'14'
p349
(dp350
VROUGE-L
p351
(lp352
(lp353
VAverage_R
p354
aV0.25435
p355
aV0.25054
p356
aV0.25817
p357
aa(lp358
VAverage_P
p359
aV0.51062
p360
aV0.47131
p361
aV0.55009
p362
aa(lp363
VAverage_F
p364
aV0.33876
p365
aV0.32716
p366
aV0.35042
p367
aasVROUGE-4
p368
(lp369
(lp370
VAverage_R
p371
aV0.01600
p372
aV0.01104
p373
aV0.02098
p374
aa(lp375
VAverage_P
p376
aV0.03435
p377
aV0.02101
p378
aV0.04774
p379
aa(lp380
VAverage_F
p381
aV0.02176
p382
aV0.01447
p383
aV0.02908
p384
aasVROUGE-2
p385
(lp386
(lp387
VAverage_R
p388
aV0.09244
p389
aV0.08534
p390
aV0.09957
p391
aa(lp392
VAverage_P
p393
aV0.18852
p394
aV0.16116
p395
aV0.21599
p396
aa(lp397
VAverage_F
p398
aV0.12373
p399
aV0.11159
p400
aV0.13592
p401
aasVROUGE-3
p402
(lp403
(lp404
VAverage_R
p405
aV0.02966
p406
aV0.02418
p407
aV0.03517
p408
aa(lp409
VAverage_P
p410
aV0.06197
p411
aV0.04583
p412
aV0.07818
p413
aa(lp414
VAverage_F
p415
aV0.04001
p416
aV0.03166
p417
aV0.04838
p418
aasVROUGE-1
p419
(lp420
(lp421
VAverage_R
p422
aV0.27941
p423
aV0.27669
p424
aV0.28214
p425
aa(lp426
VAverage_P
p427
aV0.56039
p428
aV0.52049
p429
aV0.60045
p430
aa(lp431
VAverage_F
p432
aV0.37203
p433
aV0.36131
p434
aV0.38280
p435
aassS'17'
p436
(dp437
VROUGE-L
p438
(lp439
(lp440
VAverage_R
p441
aV0.41708
p442
aV0.35294
p443
aV0.48148
p444
aa(lp445
VAverage_P
p446
aV0.44227
p447
aV0.42188
p448
aV0.46274
p449
aa(lp450
VAverage_F
p451
aV0.42610
p452
aV0.38434
p453
aV0.46804
p454
aasVROUGE-4
p455
(lp456
(lp457
VAverage_R
p458
aV0.08044
p459
aV0.01104
p460
aV0.15011
p461
aa(lp462
VAverage_P
p463
aV0.06936
p464
aV0.01323
p465
aV0.12571
p466
aa(lp467
VAverage_F
p468
aV0.07421
p469
aV0.01204
p470
aV0.13663
p471
aasVROUGE-2
p472
(lp473
(lp474
VAverage_R
p475
aV0.17272
p476
aV0.10284
p477
aV0.24288
p478
aa(lp479
VAverage_P
p480
aV0.17115
p481
aV0.12304
p482
aV0.21946
p483
aa(lp484
VAverage_F
p485
aV0.17046
p486
aV0.11204
p487
aV0.22912
p488
aasVROUGE-3
p489
(lp490
(lp491
VAverage_R
p492
aV0.09821
p493
aV0.02637
p494
aV0.17033
p495
aa(lp496
VAverage_P
p497
aV0.08834
p498
aV0.03158
p499
aV0.14532
p500
aa(lp501
VAverage_F
p502
aV0.09243
p503
aV0.02874
p504
aV0.15637
p505
aasVROUGE-1
p506
(lp507
(lp508
VAverage_R
p509
aV0.44977
p510
aV0.38998
p511
aV0.50981
p512
aa(lp513
VAverage_P
p514
aV0.47953
p515
aV0.46615
p516
aV0.49296
p517
aa(lp518
VAverage_F
p519
aV0.46080
p520
aV0.42468
p521
aV0.49707
p522
aassS'16'
p523
(dp524
VROUGE-L
p525
(lp526
(lp527
VAverage_R
p528
aV0.39039
p529
aV0.32244
p530
aV0.45861
p531
aa(lp532
VAverage_P
p533
aV0.45017
p534
aV0.42529
p535
aV0.47515
p536
aa(lp537
VAverage_F
p538
aV0.41442
p539
aV0.36679
p540
aV0.46225
p541
aasVROUGE-4
p542
(lp543
(lp544
VAverage_R
p545
aV0.08044
p546
aV0.01104
p547
aV0.15011
p548
aa(lp549
VAverage_P
p550
aV0.07456
p551
aV0.01462
p552
aV0.13474
p553
aa(lp554
VAverage_F
p555
aV0.07704
p556
aV0.01258
p557
aV0.14176
p558
aasVROUGE-2
p559
(lp560
(lp561
VAverage_R
p562
aV0.16342
p563
aV0.09190
p564
aV0.23523
p565
aa(lp566
VAverage_P
p567
aV0.17443
p568
aV0.12139
p569
aV0.22769
p570
aa(lp571
VAverage_F
p572
aV0.16705
p573
aV0.10461
p574
aV0.22974
p575
aasVROUGE-3
p576
(lp577
(lp578
VAverage_R
p579
aV0.09656
p580
aV0.02418
p581
aV0.16924
p582
aa(lp583
VAverage_P
p584
aV0.09314
p585
aV0.03198
p586
aV0.15456
p587
aa(lp588
VAverage_F
p589
aV0.09416
p590
aV0.02754
p591
aV0.16104
p592
aasVROUGE-1
p593
(lp594
(lp595
VAverage_R
p596
aV0.42471
p597
aV0.36166
p598
aV0.48802
p599
aa(lp600
VAverage_P
p601
aV0.49330
p602
aV0.47701
p603
aV0.50966
p604
aa(lp605
VAverage_F
p606
aV0.45249
p607
aV0.41140
p608
aV0.49375
p609
aass.