(lp0
V---------------------------------------------\u000a01 ROUGE-1 Average_R: 0.28693 (95%-conf.int. 0.26920 - 0.30490)\u000a01 ROUGE-1 Average_P: 0.38938 (95%-conf.int. 0.36655 - 0.41346)\u000a01 ROUGE-1 Average_F: 0.30978 (95%-conf.int. 0.29324 - 0.32599)\u000a---------------------------------------------\u000a01 ROUGE-2 Average_R: 0.07388 (95%-conf.int. 0.06284 - 0.08464)\u000a01 ROUGE-2 Average_P: 0.10323 (95%-conf.int. 0.08784 - 0.12044)\u000a01 ROUGE-2 Average_F: 0.08020 (95%-conf.int. 0.06901 - 0.09209)\u000a---------------------------------------------\u000a01 ROUGE-3 Average_R: 0.03556 (95%-conf.int. 0.02629 - 0.04534)\u000a01 ROUGE-3 Average_P: 0.05063 (95%-conf.int. 0.03771 - 0.06501)\u000a01 ROUGE-3 Average_F: 0.03891 (95%-conf.int. 0.02923 - 0.04955)\u000a---------------------------------------------\u000a01 ROUGE-4 Average_R: 0.02587 (95%-conf.int. 0.01754 - 0.03506)\u000a01 ROUGE-4 Average_P: 0.03660 (95%-conf.int. 0.02493 - 0.04968)\u000a01 ROUGE-4 Average_F: 0.02832 (95%-conf.int. 0.01947 - 0.03812)\u000a---------------------------------------------\u000a01 ROUGE-L Average_R: 0.25286 (95%-conf.int. 0.23703 - 0.26934)\u000a01 ROUGE-L Average_P: 0.34481 (95%-conf.int. 0.32423 - 0.36714)\u000a01 ROUGE-L Average_F: 0.27335 (95%-conf.int. 0.25818 - 0.28822)\u000a---------------------------------------------\u000a02 ROUGE-1 Average_R: 0.29081 (95%-conf.int. 0.27427 - 0.30767)\u000a02 ROUGE-1 Average_P: 0.40062 (95%-conf.int. 0.38027 - 0.42212)\u000a02 ROUGE-1 Average_F: 0.31354 (95%-conf.int. 0.29921 - 0.32814)\u000a---------------------------------------------\u000a02 ROUGE-2 Average_R: 0.08109 (95%-conf.int. 0.06985 - 0.09257)\u000a02 ROUGE-2 Average_P: 0.11158 (95%-conf.int. 0.09528 - 0.12853)\u000a02 ROUGE-2 Average_F: 0.08823 (95%-conf.int. 0.07636 - 0.10044)\u000a---------------------------------------------\u000a02 ROUGE-3 Average_R: 0.04835 (95%-conf.int. 0.03818 - 0.05844)\u000a02 ROUGE-3 Average_P: 0.06864 (95%-conf.int. 0.05351 - 0.08483)\u000a02 ROUGE-3 Average_F: 0.05359 (95%-conf.int. 0.04222 - 0.06542)\u000a---------------------------------------------\u000a02 ROUGE-4 Average_R: 0.03965 (95%-conf.int. 0.02982 - 0.04968)\u000a02 ROUGE-4 Average_P: 0.05785 (95%-conf.int. 0.04264 - 0.07390)\u000a02 ROUGE-4 Average_F: 0.04462 (95%-conf.int. 0.03332 - 0.05583)\u000a---------------------------------------------\u000a02 ROUGE-L Average_R: 0.24883 (95%-conf.int. 0.23414 - 0.26316)\u000a02 ROUGE-L Average_P: 0.34505 (95%-conf.int. 0.32530 - 0.36582)\u000a02 ROUGE-L Average_F: 0.26887 (95%-conf.int. 0.25476 - 0.28243)\u000a---------------------------------------------\u000a03 ROUGE-1 Average_R: 0.33191 (95%-conf.int. 0.31503 - 0.34809)\u000a03 ROUGE-1 Average_P: 0.45869 (95%-conf.int. 0.43704 - 0.48019)\u000a03 ROUGE-1 Average_F: 0.36621 (95%-conf.int. 0.35301 - 0.37979)\u000a---------------------------------------------\u000a03 ROUGE-2 Average_R: 0.11040 (95%-conf.int. 0.09813 - 0.12388)\u000a03 ROUGE-2 Average_P: 0.15428 (95%-conf.int. 0.13852 - 0.17069)\u000a03 ROUGE-2 Average_F: 0.12210 (95%-conf.int. 0.10985 - 0.13533)\u000a---------------------------------------------\u000a03 ROUGE-3 Average_R: 0.06765 (95%-conf.int. 0.05691 - 0.08075)\u000a03 ROUGE-3 Average_P: 0.09415 (95%-conf.int. 0.08049 - 0.10906)\u000a03 ROUGE-3 Average_F: 0.07473 (95%-conf.int. 0.06355 - 0.08730)\u000a---------------------------------------------\u000a03 ROUGE-4 Average_R: 0.05446 (95%-conf.int. 0.04427 - 0.06697)\u000a03 ROUGE-4 Average_P: 0.07517 (95%-conf.int. 0.06201 - 0.08938)\u000a03 ROUGE-4 Average_F: 0.05986 (95%-conf.int. 0.04893 - 0.07155)\u000a---------------------------------------------\u000a03 ROUGE-L Average_R: 0.29757 (95%-conf.int. 0.28311 - 0.31261)\u000a03 ROUGE-L Average_P: 0.41373 (95%-conf.int. 0.39337 - 0.43387)\u000a03 ROUGE-L Average_F: 0.32914 (95%-conf.int. 0.31659 - 0.34244)\u000a---------------------------------------------\u000a04 ROUGE-1 Average_R: 0.25002 (95%-conf.int. 0.23392 - 0.26574)\u000a04 ROUGE-1 Average_P: 0.35817 (95%-conf.int. 0.33695 - 0.37939)\u000a04 ROUGE-1 Average_F: 0.26954 (95%-conf.int. 0.25563 - 0.28329)\u000a---------------------------------------------\u000a04 ROUGE-2 Average_R: 0.04888 (95%-conf.int. 0.04108 - 0.05659)\u000a04 ROUGE-2 Average_P: 0.06839 (95%-conf.int. 0.05704 - 0.08030)\u000a04 ROUGE-2 Average_F: 0.05283 (95%-conf.int. 0.04489 - 0.06107)\u000a---------------------------------------------\u000a04 ROUGE-3 Average_R: 0.01931 (95%-conf.int. 0.01297 - 0.02596)\u000a04 ROUGE-3 Average_P: 0.02680 (95%-conf.int. 0.01741 - 0.03720)\u000a04 ROUGE-3 Average_F: 0.02093 (95%-conf.int. 0.01440 - 0.02824)\u000a---------------------------------------------\u000a04 ROUGE-4 Average_R: 0.01333 (95%-conf.int. 0.00737 - 0.01983)\u000a04 ROUGE-4 Average_P: 0.01887 (95%-conf.int. 0.01033 - 0.02908)\u000a04 ROUGE-4 Average_F: 0.01460 (95%-conf.int. 0.00830 - 0.02176)\u000a---------------------------------------------\u000a04 ROUGE-L Average_R: 0.21569 (95%-conf.int. 0.20171 - 0.22934)\u000a04 ROUGE-L Average_P: 0.31221 (95%-conf.int. 0.29318 - 0.33155)\u000a04 ROUGE-L Average_F: 0.23349 (95%-conf.int. 0.22109 - 0.24583)\u000a---------------------------------------------\u000a05 ROUGE-1 Average_R: 0.32670 (95%-conf.int. 0.30833 - 0.34512)\u000a05 ROUGE-1 Average_P: 0.42401 (95%-conf.int. 0.40167 - 0.44636)\u000a05 ROUGE-1 Average_F: 0.34878 (95%-conf.int. 0.33001 - 0.36589)\u000a---------------------------------------------\u000a05 ROUGE-2 Average_R: 0.10546 (95%-conf.int. 0.09189 - 0.11980)\u000a05 ROUGE-2 Average_P: 0.13725 (95%-conf.int. 0.11919 - 0.15718)\u000a05 ROUGE-2 Average_F: 0.11329 (95%-conf.int. 0.09872 - 0.12864)\u000a---------------------------------------------\u000a05 ROUGE-3 Average_R: 0.06227 (95%-conf.int. 0.05045 - 0.07522)\u000a05 ROUGE-3 Average_P: 0.08065 (95%-conf.int. 0.06459 - 0.09862)\u000a05 ROUGE-3 Average_F: 0.06708 (95%-conf.int. 0.05398 - 0.08167)\u000a---------------------------------------------\u000a05 ROUGE-4 Average_R: 0.04980 (95%-conf.int. 0.03845 - 0.06213)\u000a05 ROUGE-4 Average_P: 0.06464 (95%-conf.int. 0.04967 - 0.08127)\u000a05 ROUGE-4 Average_F: 0.05377 (95%-conf.int. 0.04136 - 0.06707)\u000a---------------------------------------------\u000a05 ROUGE-L Average_R: 0.29079 (95%-conf.int. 0.27304 - 0.30832)\u000a05 ROUGE-L Average_P: 0.37850 (95%-conf.int. 0.35682 - 0.40079)\u000a05 ROUGE-L Average_F: 0.31099 (95%-conf.int. 0.29327 - 0.32770)\u000a---------------------------------------------\u000a06 ROUGE-1 Average_R: 0.30512 (95%-conf.int. 0.28542 - 0.32509)\u000a06 ROUGE-1 Average_P: 0.41432 (95%-conf.int. 0.39020 - 0.43951)\u000a06 ROUGE-1 Average_F: 0.32940 (95%-conf.int. 0.31122 - 0.34762)\u000a---------------------------------------------\u000a06 ROUGE-2 Average_R: 0.09055 (95%-conf.int. 0.07782 - 0.10326)\u000a06 ROUGE-2 Average_P: 0.12228 (95%-conf.int. 0.10376 - 0.14020)\u000a06 ROUGE-2 Average_F: 0.09775 (95%-conf.int. 0.08429 - 0.11135)\u000a---------------------------------------------\u000a06 ROUGE-3 Average_R: 0.04870 (95%-conf.int. 0.03774 - 0.06006)\u000a06 ROUGE-3 Average_P: 0.06531 (95%-conf.int. 0.04962 - 0.08185)\u000a06 ROUGE-3 Average_F: 0.05241 (95%-conf.int. 0.04096 - 0.06458)\u000a---------------------------------------------\u000a06 ROUGE-4 Average_R: 0.03714 (95%-conf.int. 0.02752 - 0.04792)\u000a06 ROUGE-4 Average_P: 0.05004 (95%-conf.int. 0.03578 - 0.06569)\u000a06 ROUGE-4 Average_F: 0.03988 (95%-conf.int. 0.02942 - 0.05164)\u000a---------------------------------------------\u000a06 ROUGE-L Average_R: 0.27163 (95%-conf.int. 0.25347 - 0.28941)\u000a06 ROUGE-L Average_P: 0.36922 (95%-conf.int. 0.34622 - 0.39338)\u000a06 ROUGE-L Average_F: 0.29347 (95%-conf.int. 0.27605 - 0.31041)\u000a---------------------------------------------\u000a07 ROUGE-1 Average_R: 0.31358 (95%-conf.int. 0.29529 - 0.33133)\u000a07 ROUGE-1 Average_P: 0.41615 (95%-conf.int. 0.39341 - 0.44050)\u000a07 ROUGE-1 Average_F: 0.33732 (95%-conf.int. 0.31939 - 0.35415)\u000a---------------------------------------------\u000a07 ROUGE-2 Average_R: 0.09415 (95%-conf.int. 0.08136 - 0.10678)\u000a07 ROUGE-2 Average_P: 0.12400 (95%-conf.int. 0.10646 - 0.14127)\u000a07 ROUGE-2 Average_F: 0.10143 (95%-conf.int. 0.08734 - 0.11506)\u000a---------------------------------------------\u000a07 ROUGE-3 Average_R: 0.05115 (95%-conf.int. 0.04004 - 0.06229)\u000a07 ROUGE-3 Average_P: 0.06687 (95%-conf.int. 0.05195 - 0.08322)\u000a07 ROUGE-3 Average_F: 0.05515 (95%-conf.int. 0.04382 - 0.06765)\u000a---------------------------------------------\u000a07 ROUGE-4 Average_R: 0.03898 (95%-conf.int. 0.02865 - 0.04978)\u000a07 ROUGE-4 Average_P: 0.05150 (95%-conf.int. 0.03760 - 0.06725)\u000a07 ROUGE-4 Average_F: 0.04225 (95%-conf.int. 0.03104 - 0.05399)\u000a---------------------------------------------\u000a07 ROUGE-L Average_R: 0.27894 (95%-conf.int. 0.26134 - 0.29575)\u000a07 ROUGE-L Average_P: 0.37074 (95%-conf.int. 0.34899 - 0.39404)\u000a07 ROUGE-L Average_F: 0.30029 (95%-conf.int. 0.28310 - 0.31682)\u000a---------------------------------------------\u000a08 ROUGE-1 Average_R: 0.33321 (95%-conf.int. 0.31500 - 0.35074)\u000a08 ROUGE-1 Average_P: 0.43881 (95%-conf.int. 0.41552 - 0.46184)\u000a08 ROUGE-1 Average_F: 0.35818 (95%-conf.int. 0.34061 - 0.37426)\u000a---------------------------------------------\u000a08 ROUGE-2 Average_R: 0.10903 (95%-conf.int. 0.09481 - 0.12260)\u000a08 ROUGE-2 Average_P: 0.14489 (95%-conf.int. 0.12579 - 0.16335)\u000a08 ROUGE-2 Average_F: 0.11811 (95%-conf.int. 0.10351 - 0.13236)\u000a---------------------------------------------\u000a08 ROUGE-3 Average_R: 0.06350 (95%-conf.int. 0.05063 - 0.07673)\u000a08 ROUGE-3 Average_P: 0.08511 (95%-conf.int. 0.06752 - 0.10212)\u000a08 ROUGE-3 Average_F: 0.06929 (95%-conf.int. 0.05533 - 0.08234)\u000a---------------------------------------------\u000a08 ROUGE-4 Average_R: 0.05033 (95%-conf.int. 0.03831 - 0.06303)\u000a08 ROUGE-4 Average_P: 0.06796 (95%-conf.int. 0.05117 - 0.08410)\u000a08 ROUGE-4 Average_F: 0.05513 (95%-conf.int. 0.04200 - 0.06762)\u000a---------------------------------------------\u000a08 ROUGE-L Average_R: 0.29811 (95%-conf.int. 0.28186 - 0.31433)\u000a08 ROUGE-L Average_P: 0.39464 (95%-conf.int. 0.37295 - 0.41755)\u000a08 ROUGE-L Average_F: 0.32121 (95%-conf.int. 0.30482 - 0.33650)\u000a---------------------------------------------\u000a09 ROUGE-1 Average_R: 0.31714 (95%-conf.int. 0.29948 - 0.33514)\u000a09 ROUGE-1 Average_P: 0.43262 (95%-conf.int. 0.40803 - 0.45624)\u000a09 ROUGE-1 Average_F: 0.34199 (95%-conf.int. 0.32563 - 0.35766)\u000a---------------------------------------------\u000a09 ROUGE-2 Average_R: 0.09631 (95%-conf.int. 0.08364 - 0.10947)\u000a09 ROUGE-2 Average_P: 0.13325 (95%-conf.int. 0.11484 - 0.15157)\u000a09 ROUGE-2 Average_F: 0.10351 (95%-conf.int. 0.09037 - 0.11676)\u000a---------------------------------------------\u000a09 ROUGE-3 Average_R: 0.05278 (95%-conf.int. 0.04137 - 0.06533)\u000a09 ROUGE-3 Average_P: 0.06943 (95%-conf.int. 0.05474 - 0.08573)\u000a09 ROUGE-3 Average_F: 0.05639 (95%-conf.int. 0.04500 - 0.06906)\u000a---------------------------------------------\u000a09 ROUGE-4 Average_R: 0.04077 (95%-conf.int. 0.02998 - 0.05272)\u000a09 ROUGE-4 Average_P: 0.05341 (95%-conf.int. 0.03923 - 0.06940)\u000a09 ROUGE-4 Average_F: 0.04345 (95%-conf.int. 0.03258 - 0.05553)\u000a---------------------------------------------\u000a09 ROUGE-L Average_R: 0.28081 (95%-conf.int. 0.26417 - 0.29715)\u000a09 ROUGE-L Average_P: 0.38469 (95%-conf.int. 0.36169 - 0.40743)\u000a09 ROUGE-L Average_F: 0.30312 (95%-conf.int. 0.28808 - 0.31813)\u000a---------------------------------------------\u000a10 ROUGE-1 Average_R: 0.25002 (95%-conf.int. 0.23392 - 0.26574)\u000a10 ROUGE-1 Average_P: 0.35817 (95%-conf.int. 0.33695 - 0.37939)\u000a10 ROUGE-1 Average_F: 0.26954 (95%-conf.int. 0.25563 - 0.28329)\u000a---------------------------------------------\u000a10 ROUGE-2 Average_R: 0.04888 (95%-conf.int. 0.04108 - 0.05659)\u000a10 ROUGE-2 Average_P: 0.06839 (95%-conf.int. 0.05704 - 0.08030)\u000a10 ROUGE-2 Average_F: 0.05283 (95%-conf.int. 0.04489 - 0.06107)\u000a---------------------------------------------\u000a10 ROUGE-3 Average_R: 0.01931 (95%-conf.int. 0.01297 - 0.02596)\u000a10 ROUGE-3 Average_P: 0.02680 (95%-conf.int. 0.01741 - 0.03720)\u000a10 ROUGE-3 Average_F: 0.02093 (95%-conf.int. 0.01440 - 0.02824)\u000a---------------------------------------------\u000a10 ROUGE-4 Average_R: 0.01333 (95%-conf.int. 0.00737 - 0.01983)\u000a10 ROUGE-4 Average_P: 0.01887 (95%-conf.int. 0.01033 - 0.02908)\u000a10 ROUGE-4 Average_F: 0.01460 (95%-conf.int. 0.00830 - 0.02176)\u000a---------------------------------------------\u000a10 ROUGE-L Average_R: 0.21569 (95%-conf.int. 0.20171 - 0.22934)\u000a10 ROUGE-L Average_P: 0.31221 (95%-conf.int. 0.29318 - 0.33155)\u000a10 ROUGE-L Average_F: 0.23349 (95%-conf.int. 0.22109 - 0.24583)\u000a
p1
a.