(lp0
V---------------------------------------------\u000a01 ROUGE-1 Average_R: 0.34201 (95%-conf.int. 0.32465 - 0.35884)\u000a01 ROUGE-1 Average_P: 0.43593 (95%-conf.int. 0.41259 - 0.45986)\u000a01 ROUGE-1 Average_F: 0.36680 (95%-conf.int. 0.35153 - 0.38224)\u000a---------------------------------------------\u000a01 ROUGE-2 Average_R: 0.12158 (95%-conf.int. 0.10789 - 0.13660)\u000a01 ROUGE-2 Average_P: 0.15794 (95%-conf.int. 0.13952 - 0.17776)\u000a01 ROUGE-2 Average_F: 0.13135 (95%-conf.int. 0.11740 - 0.14605)\u000a---------------------------------------------\u000a01 ROUGE-3 Average_R: 0.07594 (95%-conf.int. 0.06353 - 0.08899)\u000a01 ROUGE-3 Average_P: 0.09944 (95%-conf.int. 0.08312 - 0.11794)\u000a01 ROUGE-3 Average_F: 0.08222 (95%-conf.int. 0.06941 - 0.09588)\u000a---------------------------------------------\u000a01 ROUGE-4 Average_R: 0.06132 (95%-conf.int. 0.04981 - 0.07319)\u000a01 ROUGE-4 Average_P: 0.08067 (95%-conf.int. 0.06529 - 0.09825)\u000a01 ROUGE-4 Average_F: 0.06640 (95%-conf.int. 0.05420 - 0.07898)\u000a---------------------------------------------\u000a01 ROUGE-L Average_R: 0.30944 (95%-conf.int. 0.29381 - 0.32536)\u000a01 ROUGE-L Average_P: 0.39584 (95%-conf.int. 0.37415 - 0.41821)\u000a01 ROUGE-L Average_F: 0.33253 (95%-conf.int. 0.31789 - 0.34780)\u000a---------------------------------------------\u000a02 ROUGE-1 Average_R: 0.30920 (95%-conf.int. 0.28951 - 0.32940)\u000a02 ROUGE-1 Average_P: 0.40209 (95%-conf.int. 0.38057 - 0.42220)\u000a02 ROUGE-1 Average_F: 0.33119 (95%-conf.int. 0.31353 - 0.34800)\u000a---------------------------------------------\u000a02 ROUGE-2 Average_R: 0.11101 (95%-conf.int. 0.09498 - 0.12713)\u000a02 ROUGE-2 Average_P: 0.13694 (95%-conf.int. 0.11981 - 0.15484)\u000a02 ROUGE-2 Average_F: 0.11685 (95%-conf.int. 0.10144 - 0.13274)\u000a---------------------------------------------\u000a02 ROUGE-3 Average_R: 0.07665 (95%-conf.int. 0.06210 - 0.09176)\u000a02 ROUGE-3 Average_P: 0.09208 (95%-conf.int. 0.07578 - 0.10940)\u000a02 ROUGE-3 Average_F: 0.07999 (95%-conf.int. 0.06551 - 0.09511)\u000a---------------------------------------------\u000a02 ROUGE-4 Average_R: 0.06616 (95%-conf.int. 0.05215 - 0.08076)\u000a02 ROUGE-4 Average_P: 0.07872 (95%-conf.int. 0.06304 - 0.09591)\u000a02 ROUGE-4 Average_F: 0.06884 (95%-conf.int. 0.05441 - 0.08346)\u000a---------------------------------------------\u000a02 ROUGE-L Average_R: 0.27227 (95%-conf.int. 0.25323 - 0.29055)\u000a02 ROUGE-L Average_P: 0.35398 (95%-conf.int. 0.33454 - 0.37406)\u000a02 ROUGE-L Average_F: 0.29165 (95%-conf.int. 0.27515 - 0.30795)\u000a---------------------------------------------\u000a03 ROUGE-1 Average_R: 0.32315 (95%-conf.int. 0.30316 - 0.34164)\u000a03 ROUGE-1 Average_P: 0.43833 (95%-conf.int. 0.41698 - 0.46029)\u000a03 ROUGE-1 Average_F: 0.35147 (95%-conf.int. 0.33485 - 0.36704)\u000a---------------------------------------------\u000a03 ROUGE-2 Average_R: 0.12142 (95%-conf.int. 0.10579 - 0.13662)\u000a03 ROUGE-2 Average_P: 0.15934 (95%-conf.int. 0.14220 - 0.17711)\u000a03 ROUGE-2 Average_F: 0.12876 (95%-conf.int. 0.11464 - 0.14235)\u000a---------------------------------------------\u000a03 ROUGE-3 Average_R: 0.07781 (95%-conf.int. 0.06465 - 0.09122)\u000a03 ROUGE-3 Average_P: 0.09875 (95%-conf.int. 0.08350 - 0.11425)\u000a03 ROUGE-3 Average_F: 0.08120 (95%-conf.int. 0.06874 - 0.09381)\u000a---------------------------------------------\u000a03 ROUGE-4 Average_R: 0.06291 (95%-conf.int. 0.05036 - 0.07560)\u000a03 ROUGE-4 Average_P: 0.07754 (95%-conf.int. 0.06355 - 0.09122)\u000a03 ROUGE-4 Average_F: 0.06508 (95%-conf.int. 0.05320 - 0.07684)\u000a---------------------------------------------\u000a03 ROUGE-L Average_R: 0.29469 (95%-conf.int. 0.27630 - 0.31187)\u000a03 ROUGE-L Average_P: 0.39999 (95%-conf.int. 0.37920 - 0.42031)\u000a03 ROUGE-L Average_F: 0.32041 (95%-conf.int. 0.30456 - 0.33543)\u000a---------------------------------------------\u000a04 ROUGE-1 Average_R: 0.30305 (95%-conf.int. 0.28240 - 0.32258)\u000a04 ROUGE-1 Average_P: 0.41936 (95%-conf.int. 0.39849 - 0.44262)\u000a04 ROUGE-1 Average_F: 0.32580 (95%-conf.int. 0.30732 - 0.34385)\u000a---------------------------------------------\u000a04 ROUGE-2 Average_R: 0.10409 (95%-conf.int. 0.08943 - 0.11873)\u000a04 ROUGE-2 Average_P: 0.13850 (95%-conf.int. 0.11921 - 0.15749)\u000a04 ROUGE-2 Average_F: 0.11116 (95%-conf.int. 0.09615 - 0.12599)\u000a---------------------------------------------\u000a04 ROUGE-3 Average_R: 0.06711 (95%-conf.int. 0.05384 - 0.08051)\u000a04 ROUGE-3 Average_P: 0.08810 (95%-conf.int. 0.06983 - 0.10612)\u000a04 ROUGE-3 Average_F: 0.07127 (95%-conf.int. 0.05767 - 0.08474)\u000a---------------------------------------------\u000a04 ROUGE-4 Average_R: 0.05650 (95%-conf.int. 0.04398 - 0.06912)\u000a04 ROUGE-4 Average_P: 0.07405 (95%-conf.int. 0.05701 - 0.09125)\u000a04 ROUGE-4 Average_F: 0.05991 (95%-conf.int. 0.04645 - 0.07220)\u000a---------------------------------------------\u000a04 ROUGE-L Average_R: 0.26687 (95%-conf.int. 0.24866 - 0.28512)\u000a04 ROUGE-L Average_P: 0.36989 (95%-conf.int. 0.34934 - 0.39261)\u000a04 ROUGE-L Average_F: 0.28685 (95%-conf.int. 0.26901 - 0.30319)\u000a---------------------------------------------\u000a05 ROUGE-1 Average_R: 0.37475 (95%-conf.int. 0.35593 - 0.39481)\u000a05 ROUGE-1 Average_P: 0.47271 (95%-conf.int. 0.44792 - 0.49742)\u000a05 ROUGE-1 Average_F: 0.39979 (95%-conf.int. 0.38200 - 0.41727)\u000a---------------------------------------------\u000a05 ROUGE-2 Average_R: 0.16367 (95%-conf.int. 0.14653 - 0.18153)\u000a05 ROUGE-2 Average_P: 0.20847 (95%-conf.int. 0.18784 - 0.23095)\u000a05 ROUGE-2 Average_F: 0.17596 (95%-conf.int. 0.15888 - 0.19382)\u000a---------------------------------------------\u000a05 ROUGE-3 Average_R: 0.11696 (95%-conf.int. 0.10077 - 0.13344)\u000a05 ROUGE-3 Average_P: 0.14861 (95%-conf.int. 0.13043 - 0.16880)\u000a05 ROUGE-3 Average_F: 0.12576 (95%-conf.int. 0.10933 - 0.14251)\u000a---------------------------------------------\u000a05 ROUGE-4 Average_R: 0.10041 (95%-conf.int. 0.08484 - 0.11653)\u000a05 ROUGE-4 Average_P: 0.12772 (95%-conf.int. 0.11005 - 0.14679)\u000a05 ROUGE-4 Average_F: 0.10793 (95%-conf.int. 0.09240 - 0.12438)\u000a---------------------------------------------\u000a05 ROUGE-L Average_R: 0.34331 (95%-conf.int. 0.32554 - 0.36249)\u000a05 ROUGE-L Average_P: 0.43386 (95%-conf.int. 0.41035 - 0.45846)\u000a05 ROUGE-L Average_F: 0.36662 (95%-conf.int. 0.34956 - 0.38403)\u000a---------------------------------------------\u000a06 ROUGE-1 Average_R: 0.35285 (95%-conf.int. 0.33709 - 0.36872)\u000a06 ROUGE-1 Average_P: 0.44976 (95%-conf.int. 0.42833 - 0.47245)\u000a06 ROUGE-1 Average_F: 0.37746 (95%-conf.int. 0.36271 - 0.39282)\u000a---------------------------------------------\u000a06 ROUGE-2 Average_R: 0.13270 (95%-conf.int. 0.11965 - 0.14643)\u000a06 ROUGE-2 Average_P: 0.17183 (95%-conf.int. 0.15378 - 0.19001)\u000a06 ROUGE-2 Average_F: 0.14305 (95%-conf.int. 0.12925 - 0.15687)\u000a---------------------------------------------\u000a06 ROUGE-3 Average_R: 0.08641 (95%-conf.int. 0.07395 - 0.09892)\u000a06 ROUGE-3 Average_P: 0.11107 (95%-conf.int. 0.09520 - 0.12693)\u000a06 ROUGE-3 Average_F: 0.09285 (95%-conf.int. 0.07997 - 0.10565)\u000a---------------------------------------------\u000a06 ROUGE-4 Average_R: 0.07149 (95%-conf.int. 0.05942 - 0.08314)\u000a06 ROUGE-4 Average_P: 0.09153 (95%-conf.int. 0.07626 - 0.10691)\u000a06 ROUGE-4 Average_F: 0.07657 (95%-conf.int. 0.06453 - 0.08854)\u000a---------------------------------------------\u000a06 ROUGE-L Average_R: 0.32060 (95%-conf.int. 0.30611 - 0.33568)\u000a06 ROUGE-L Average_P: 0.41080 (95%-conf.int. 0.38995 - 0.43275)\u000a06 ROUGE-L Average_F: 0.34372 (95%-conf.int. 0.32894 - 0.35831)\u000a---------------------------------------------\u000a07 ROUGE-1 Average_R: 0.36181 (95%-conf.int. 0.34577 - 0.38010)\u000a07 ROUGE-1 Average_P: 0.45623 (95%-conf.int. 0.43404 - 0.47868)\u000a07 ROUGE-1 Average_F: 0.38493 (95%-conf.int. 0.36868 - 0.40144)\u000a---------------------------------------------\u000a07 ROUGE-2 Average_R: 0.14489 (95%-conf.int. 0.12987 - 0.16053)\u000a07 ROUGE-2 Average_P: 0.18343 (95%-conf.int. 0.16444 - 0.20263)\u000a07 ROUGE-2 Average_F: 0.15501 (95%-conf.int. 0.13985 - 0.17077)\u000a---------------------------------------------\u000a07 ROUGE-3 Average_R: 0.09749 (95%-conf.int. 0.08372 - 0.11120)\u000a07 ROUGE-3 Average_P: 0.12306 (95%-conf.int. 0.10616 - 0.14059)\u000a07 ROUGE-3 Average_F: 0.10421 (95%-conf.int. 0.08982 - 0.11893)\u000a---------------------------------------------\u000a07 ROUGE-4 Average_R: 0.08146 (95%-conf.int. 0.06831 - 0.09437)\u000a07 ROUGE-4 Average_P: 0.10289 (95%-conf.int. 0.08668 - 0.11941)\u000a07 ROUGE-4 Average_F: 0.08701 (95%-conf.int. 0.07356 - 0.10033)\u000a---------------------------------------------\u000a07 ROUGE-L Average_R: 0.32906 (95%-conf.int. 0.31393 - 0.34634)\u000a07 ROUGE-L Average_P: 0.41652 (95%-conf.int. 0.39568 - 0.43813)\u000a07 ROUGE-L Average_F: 0.35081 (95%-conf.int. 0.33556 - 0.36702)\u000a---------------------------------------------\u000a08 ROUGE-1 Average_R: 0.38547 (95%-conf.int. 0.36964 - 0.40158)\u000a08 ROUGE-1 Average_P: 0.49107 (95%-conf.int. 0.46777 - 0.51461)\u000a08 ROUGE-1 Average_F: 0.41333 (95%-conf.int. 0.39940 - 0.42738)\u000a---------------------------------------------\u000a08 ROUGE-2 Average_R: 0.17029 (95%-conf.int. 0.15536 - 0.18519)\u000a08 ROUGE-2 Average_P: 0.21928 (95%-conf.int. 0.20056 - 0.23910)\u000a08 ROUGE-2 Average_F: 0.18337 (95%-conf.int. 0.16854 - 0.19803)\u000a---------------------------------------------\u000a08 ROUGE-3 Average_R: 0.12122 (95%-conf.int. 0.10712 - 0.13456)\u000a08 ROUGE-3 Average_P: 0.15553 (95%-conf.int. 0.13855 - 0.17382)\u000a08 ROUGE-3 Average_F: 0.13024 (95%-conf.int. 0.11599 - 0.14464)\u000a---------------------------------------------\u000a08 ROUGE-4 Average_R: 0.10325 (95%-conf.int. 0.09014 - 0.11569)\u000a08 ROUGE-4 Average_P: 0.13298 (95%-conf.int. 0.11732 - 0.15056)\u000a08 ROUGE-4 Average_F: 0.11102 (95%-conf.int. 0.09785 - 0.12478)\u000a---------------------------------------------\u000a08 ROUGE-L Average_R: 0.35209 (95%-conf.int. 0.33661 - 0.36684)\u000a08 ROUGE-L Average_P: 0.44959 (95%-conf.int. 0.42688 - 0.47229)\u000a08 ROUGE-L Average_F: 0.37796 (95%-conf.int. 0.36446 - 0.39190)\u000a---------------------------------------------\u000a09 ROUGE-1 Average_R: 0.38354 (95%-conf.int. 0.36635 - 0.40080)\u000a09 ROUGE-1 Average_P: 0.47392 (95%-conf.int. 0.45232 - 0.49546)\u000a09 ROUGE-1 Average_F: 0.40293 (95%-conf.int. 0.38865 - 0.41799)\u000a---------------------------------------------\u000a09 ROUGE-2 Average_R: 0.16480 (95%-conf.int. 0.15064 - 0.18018)\u000a09 ROUGE-2 Average_P: 0.20430 (95%-conf.int. 0.18669 - 0.22396)\u000a09 ROUGE-2 Average_F: 0.17327 (95%-conf.int. 0.16017 - 0.18852)\u000a---------------------------------------------\u000a09 ROUGE-3 Average_R: 0.11502 (95%-conf.int. 0.10152 - 0.13023)\u000a09 ROUGE-3 Average_P: 0.14196 (95%-conf.int. 0.12577 - 0.15958)\u000a09 ROUGE-3 Average_F: 0.12044 (95%-conf.int. 0.10747 - 0.13428)\u000a---------------------------------------------\u000a09 ROUGE-4 Average_R: 0.09765 (95%-conf.int. 0.08452 - 0.11133)\u000a09 ROUGE-4 Average_P: 0.12024 (95%-conf.int. 0.10470 - 0.13735)\u000a09 ROUGE-4 Average_F: 0.10190 (95%-conf.int. 0.08938 - 0.11473)\u000a---------------------------------------------\u000a09 ROUGE-L Average_R: 0.35077 (95%-conf.int. 0.33458 - 0.36734)\u000a09 ROUGE-L Average_P: 0.43468 (95%-conf.int. 0.41387 - 0.45688)\u000a09 ROUGE-L Average_F: 0.36892 (95%-conf.int. 0.35545 - 0.38415)\u000a---------------------------------------------\u000a10 ROUGE-1 Average_R: 0.30305 (95%-conf.int. 0.28240 - 0.32258)\u000a10 ROUGE-1 Average_P: 0.41936 (95%-conf.int. 0.39849 - 0.44262)\u000a10 ROUGE-1 Average_F: 0.32580 (95%-conf.int. 0.30732 - 0.34385)\u000a---------------------------------------------\u000a10 ROUGE-2 Average_R: 0.10409 (95%-conf.int. 0.08943 - 0.11873)\u000a10 ROUGE-2 Average_P: 0.13850 (95%-conf.int. 0.11921 - 0.15749)\u000a10 ROUGE-2 Average_F: 0.11116 (95%-conf.int. 0.09615 - 0.12599)\u000a---------------------------------------------\u000a10 ROUGE-3 Average_R: 0.06711 (95%-conf.int. 0.05384 - 0.08051)\u000a10 ROUGE-3 Average_P: 0.08810 (95%-conf.int. 0.06983 - 0.10612)\u000a10 ROUGE-3 Average_F: 0.07127 (95%-conf.int. 0.05767 - 0.08474)\u000a---------------------------------------------\u000a10 ROUGE-4 Average_R: 0.05650 (95%-conf.int. 0.04398 - 0.06912)\u000a10 ROUGE-4 Average_P: 0.07405 (95%-conf.int. 0.05701 - 0.09125)\u000a10 ROUGE-4 Average_F: 0.05991 (95%-conf.int. 0.04645 - 0.07220)\u000a---------------------------------------------\u000a10 ROUGE-L Average_R: 0.26687 (95%-conf.int. 0.24866 - 0.28512)\u000a10 ROUGE-L Average_P: 0.36989 (95%-conf.int. 0.34934 - 0.39261)\u000a10 ROUGE-L Average_F: 0.28685 (95%-conf.int. 0.26901 - 0.30319)\u000a
p1
a.