(dp0
S'24'
p1
(dp2
VROUGE-L
p3
(lp4
(lp5
VAverage_R
p6
aV0.36383
p7
aV0.36383
p8
aV0.36383
p9
aa(lp10
VAverage_P
p11
aV0.42066
p12
aV0.41960
p13
aV0.42173
p14
aa(lp15
VAverage_F
p16
aV0.39019
p17
aV0.38973
p18
aV0.39065
p19
aasVROUGE-4
p20
(lp21
(lp22
VAverage_R
p23
aV0.02649
p24
aV0.02649
p25
aV0.02649
p26
aa(lp27
VAverage_P
p28
aV0.03069
p29
aV0.03061
p30
aV0.03077
p31
aa(lp32
VAverage_F
p33
aV0.02843
p34
aV0.02840
p35
aV0.02847
p36
aasVROUGE-2
p37
(lp38
(lp39
VAverage_R
p40
aV0.11706
p41
aV0.11597
p42
aV0.11816
p43
aa(lp44
VAverage_P
p45
aV0.13545
p46
aV0.13384
p47
aV0.13708
p48
aa(lp49
VAverage_F
p50
aV0.12559
p51
aV0.12427
p52
aV0.12692
p53
aasVROUGE-3
p54
(lp55
(lp56
VAverage_R
p57
aV0.04615
p58
aV0.04615
p59
aV0.04615
p60
aa(lp61
VAverage_P
p62
aV0.05344
p63
aV0.05330
p64
aV0.05357
p65
aa(lp66
VAverage_F
p67
aV0.04953
p68
aV0.04947
p69
aV0.04959
p70
aasVROUGE-1
p71
(lp72
(lp73
VAverage_R
p74
aV0.39651
p75
aV0.39651
p76
aV0.39651
p77
aa(lp78
VAverage_P
p79
aV0.45845
p80
aV0.45729
p81
aV0.45961
p82
aa(lp83
VAverage_F
p84
aV0.42524
p85
aV0.42474
p86
aV0.42573
p87
aassS'03'
p88
(dp89
VROUGE-L
p90
(lp91
(lp92
VAverage_R
p93
aV0.39869
p94
aV0.39869
p95
aV0.39869
p96
aa(lp97
VAverage_P
p98
aV0.39956
p99
aV0.39956
p100
aV0.39956
p101
aa(lp102
VAverage_F
p103
aV0.39912
p104
aV0.39912
p105
aV0.39912
p106
aasVROUGE-4
p107
(lp108
(lp109
VAverage_R
p110
aV0.02649
p111
aV0.02649
p112
aV0.02649
p113
aa(lp114
VAverage_P
p115
aV0.02655
p116
aV0.02655
p117
aV0.02655
p118
aa(lp119
VAverage_F
p120
aV0.02652
p121
aV0.02652
p122
aV0.02652
p123
aasVROUGE-2
p124
(lp125
(lp126
VAverage_R
p127
aV0.12691
p128
aV0.12691
p129
aV0.12691
p130
aa(lp131
VAverage_P
p132
aV0.12719
p133
aV0.12719
p134
aV0.12719
p135
aa(lp136
VAverage_F
p137
aV0.12705
p138
aV0.12705
p139
aV0.12705
p140
aasVROUGE-3
p141
(lp142
(lp143
VAverage_R
p144
aV0.04615
p145
aV0.04615
p146
aV0.04615
p147
aa(lp148
VAverage_P
p149
aV0.04626
p150
aV0.04626
p151
aV0.04626
p152
aa(lp153
VAverage_F
p154
aV0.04620
p155
aV0.04620
p156
aV0.04620
p157
aasVROUGE-1
p158
(lp159
(lp160
VAverage_R
p161
aV0.43355
p162
aV0.43355
p163
aV0.43355
p164
aa(lp165
VAverage_P
p166
aV0.43450
p167
aV0.43450
p168
aV0.43450
p169
aa(lp170
VAverage_F
p171
aV0.43402
p172
aV0.43402
p173
aV0.43402
p174
aassS'20'
p175
(dp176
VROUGE-L
p177
(lp178
(lp179
VAverage_R
p180
aV0.23692
p181
aV0.23094
p182
aV0.24292
p183
aa(lp184
VAverage_P
p185
aV0.57074
p186
aV0.55789
p187
aV0.58364
p188
aa(lp189
VAverage_F
p190
aV0.33484
p191
aV0.32666
p192
aV0.34306
p193
aasVROUGE-4
p194
(lp195
(lp196
VAverage_R
p197
aV0.01048
p198
aV0.00662
p199
aV0.01435
p200
aa(lp201
VAverage_P
p202
aV0.02565
p203
aV0.01630
p204
aV0.03503
p205
aa(lp206
VAverage_F
p207
aV0.01488
p208
aV0.00942
p209
aV0.02036
p210
aasVROUGE-2
p211
(lp212
(lp213
VAverage_R
p214
aV0.06454
p215
aV0.05908
p216
aV0.07002
p217
aa(lp218
VAverage_P
p219
aV0.15637
p220
aV0.14362
p221
aV0.16918
p222
aa(lp223
VAverage_F
p224
aV0.09137
p225
aV0.08372
p226
aV0.09904
p227
aasVROUGE-3
p228
(lp229
(lp230
VAverage_R
p231
aV0.01977
p232
aV0.01538
p233
aV0.02417
p234
aa(lp235
VAverage_P
p236
aV0.04815
p237
aV0.03763
p238
aV0.05871
p239
aa(lp240
VAverage_F
p241
aV0.02803
p242
aV0.02184
p243
aV0.03425
p244
aasVROUGE-1
p245
(lp246
(lp247
VAverage_R
p248
aV0.26143
p249
aV0.25708
p250
aV0.26580
p251
aa(lp252
VAverage_P
p253
aV0.62983
p254
aV0.62105
p255
aV0.63865
p256
aa(lp257
VAverage_F
p258
aV0.36949
p259
aV0.36364
p260
aV0.37537
p261
aassS'21'
p262
(dp263
VROUGE-L
p264
(lp265
(lp266
VAverage_R
p267
aV0.30339
p268
aV0.29956
p269
aV0.30719
p270
aa(lp271
VAverage_P
p272
aV0.54718
p273
aV0.54651
p274
aV0.54785
p275
aa(lp276
VAverage_F
p277
aV0.39029
p278
aV0.38726
p279
aV0.39331
p280
aasVROUGE-4
p281
(lp282
(lp283
VAverage_R
p284
aV0.02428
p285
aV0.02428
p286
aV0.02428
p287
aa(lp288
VAverage_P
p289
aV0.04429
p290
aV0.04365
p291
aV0.04494
p292
aa(lp293
VAverage_F
p294
aV0.03136
p295
aV0.03120
p296
aV0.03152
p297
aasVROUGE-2
p298
(lp299
(lp300
VAverage_R
p301
aV0.09684
p302
aV0.09300
p303
aV0.10066
p304
aa(lp305
VAverage_P
p306
aV0.17507
p307
aV0.17042
p308
aV0.17969
p309
aa(lp310
VAverage_F
p311
aV0.12469
p312
aV0.12031
p313
aV0.12904
p314
aasVROUGE-3
p315
(lp316
(lp317
VAverage_R
p318
aV0.03956
p319
aV0.03956
p320
aV0.03956
p321
aa(lp322
VAverage_P
p323
aV0.07190
p324
aV0.07087
p325
aV0.07294
p326
aa(lp327
VAverage_F
p328
aV0.05103
p329
aV0.05078
p330
aV0.05129
p331
aasVROUGE-1
p332
(lp333
(lp334
VAverage_R
p335
aV0.33007
p336
aV0.32680
p337
aV0.33333
p338
aa(lp339
VAverage_P
p340
aV0.59538
p341
aV0.59302
p342
aV0.59774
p343
aa(lp344
VAverage_F
p345
aV0.42463
p346
aV0.42249
p347
aV0.42677
p348
aassS'22'
p349
(dp350
VROUGE-L
p351
(lp352
(lp353
VAverage_R
p354
aV0.32844
p355
aV0.32789
p356
aV0.32898
p357
aa(lp358
VAverage_P
p359
aV0.49926
p360
aV0.49517
p361
aV0.50333
p362
aa(lp363
VAverage_F
p364
aV0.39621
p365
aV0.39452
p366
aV0.39789
p367
aasVROUGE-4
p368
(lp369
(lp370
VAverage_R
p371
aV0.02649
p372
aV0.02649
p373
aV0.02649
p374
aa(lp375
VAverage_P
p376
aV0.04055
p377
aV0.04028
p378
aV0.04082
p379
aa(lp380
VAverage_F
p381
aV0.03205
p382
aV0.03196
p383
aV0.03213
p384
aasVROUGE-2
p385
(lp386
(lp387
VAverage_R
p388
aV0.10722
p389
aV0.10722
p390
aV0.10722
p391
aa(lp392
VAverage_P
p393
aV0.16336
p394
aV0.16228
p395
aV0.16443
p396
aa(lp397
VAverage_F
p398
aV0.12946
p399
aV0.12912
p400
aV0.12980
p401
aasVROUGE-3
p402
(lp403
(lp404
VAverage_R
p405
aV0.04615
p406
aV0.04615
p407
aV0.04615
p408
aa(lp409
VAverage_P
p410
aV0.07048
p411
aV0.07001
p412
aV0.07095
p413
aa(lp414
VAverage_F
p415
aV0.05577
p416
aV0.05562
p417
aV0.05592
p418
aasVROUGE-1
p419
(lp420
(lp421
VAverage_R
p422
aV0.35512
p423
aV0.35512
p424
aV0.35512
p425
aa(lp426
VAverage_P
p427
aV0.53981
p428
aV0.53628
p429
aV0.54333
p430
aa(lp431
VAverage_F
p432
aV0.42839
p433
aV0.42727
p434
aV0.42951
p435
aassS'23'
p436
(dp437
VROUGE-L
p438
(lp439
(lp440
VAverage_R
p441
aV0.34641
p442
aV0.34641
p443
aV0.34641
p444
aa(lp445
VAverage_P
p446
aV0.45170
p447
aV0.45170
p448
aV0.45170
p449
aa(lp450
VAverage_F
p451
aV0.39211
p452
aV0.39211
p453
aV0.39211
p454
aasVROUGE-4
p455
(lp456
(lp457
VAverage_R
p458
aV0.02649
p459
aV0.02649
p460
aV0.02649
p461
aa(lp462
VAverage_P
p463
aV0.03468
p464
aV0.03468
p465
aV0.03468
p466
aa(lp467
VAverage_F
p468
aV0.03004
p469
aV0.03004
p470
aV0.03004
p471
aasVROUGE-2
p472
(lp473
(lp474
VAverage_R
p475
aV0.11379
p476
aV0.11379
p477
aV0.11379
p478
aa(lp479
VAverage_P
p480
aV0.14857
p481
aV0.14857
p482
aV0.14857
p483
aa(lp484
VAverage_F
p485
aV0.12887
p486
aV0.12887
p487
aV0.12887
p488
aasVROUGE-3
p489
(lp490
(lp491
VAverage_R
p492
aV0.04615
p493
aV0.04615
p494
aV0.04615
p495
aa(lp496
VAverage_P
p497
aV0.06034
p498
aV0.06034
p499
aV0.06034
p500
aa(lp501
VAverage_F
p502
aV0.05230
p503
aV0.05230
p504
aV0.05230
p505
aasVROUGE-1
p506
(lp507
(lp508
VAverage_R
p509
aV0.37691
p510
aV0.37691
p511
aV0.37691
p512
aa(lp513
VAverage_P
p514
aV0.49148
p515
aV0.49148
p516
aV0.49148
p517
aa(lp518
VAverage_F
p519
aV0.42664
p520
aV0.42664
p521
aV0.42664
p522
aassS'19'
p523
(dp524
VROUGE-L
p525
(lp526
(lp527
VAverage_R
p528
aV0.16122
p529
aV0.16122
p530
aV0.16122
p531
aa(lp532
VAverage_P
p533
aV0.59677
p534
aV0.59677
p535
aV0.59677
p536
aa(lp537
VAverage_F
p538
aV0.25386
p539
aV0.25386
p540
aV0.25386
p541
aasVROUGE-4
p542
(lp543
(lp544
VAverage_R
p545
aV0.00662
p546
aV0.00662
p547
aV0.00662
p548
aa(lp549
VAverage_P
p550
aV0.02542
p551
aV0.02542
p552
aV0.02542
p553
aa(lp554
VAverage_F
p555
aV0.01050
p556
aV0.01050
p557
aV0.01050
p558
aasVROUGE-2
p559
(lp560
(lp561
VAverage_R
p562
aV0.04814
p563
aV0.04814
p564
aV0.04814
p565
aa(lp566
VAverage_P
p567
aV0.18033
p568
aV0.18033
p569
aV0.18033
p570
aa(lp571
VAverage_F
p572
aV0.07599
p573
aV0.07599
p574
aV0.07599
p575
aasVROUGE-3
p576
(lp577
(lp578
VAverage_R
p579
aV0.01319
p580
aV0.01319
p581
aV0.01319
p582
aa(lp583
VAverage_P
p584
aV0.05000
p585
aV0.05000
p586
aV0.05000
p587
aa(lp588
VAverage_F
p589
aV0.02087
p590
aV0.02087
p591
aV0.02087
p592
aasVROUGE-1
p593
(lp594
(lp595
VAverage_R
p596
aV0.17647
p597
aV0.17647
p598
aV0.17647
p599
aa(lp600
VAverage_P
p601
aV0.65323
p602
aV0.65323
p603
aV0.65323
p604
aa(lp605
VAverage_F
p606
aV0.27787
p607
aV0.27787
p608
aV0.27787
p609
aassS'18'
p610
(dp611
VROUGE-L
p612
(lp613
(lp614
VAverage_R
p615
aV0.05281
p616
aV0.04139
p617
aV0.06427
p618
aa(lp619
VAverage_P
p620
aV0.63125
p621
aV0.62916
p622
aV0.63333
p623
aa(lp624
VAverage_F
p625
aV0.09648
p626
aV0.07770
p627
aV0.11533
p628
aasVROUGE-4
p629
(lp630
(lp631
VAverage_R
p632
aV0.00110
p633
aV0.00000
p634
aV0.00221
p635
aa(lp636
VAverage_P
p637
aV0.00860
p638
aV0.00000
p639
aV0.01724
p640
aa(lp641
VAverage_F
p642
aV0.00196
p643
aV0.00000
p644
aV0.00392
p645
aasVROUGE-2
p646
(lp647
(lp648
VAverage_R
p649
aV0.01585
p650
aV0.01094
p651
aV0.02079
p652
aa(lp653
VAverage_P
p654
aV0.19036
p655
aV0.17857
p656
aV0.20219
p657
aa(lp658
VAverage_F
p659
aV0.02893
p660
aV0.02062
p661
aV0.03728
p662
aasVROUGE-3
p663
(lp664
(lp665
VAverage_R
p666
aV0.00164
p667
aV0.00000
p668
aV0.00330
p669
aa(lp670
VAverage_P
p671
aV0.01248
p672
aV0.00000
p673
aV0.02500
p674
aa(lp675
VAverage_F
p676
aV0.00291
p677
aV0.00000
p678
aV0.00583
p679
aasVROUGE-1
p680
(lp681
(lp682
VAverage_R
p683
aV0.05989
p684
aV0.04793
p685
aV0.07190
p686
aa(lp687
VAverage_P
p688
aV0.72190
p689
aV0.71042
p690
aV0.73333
p691
aa(lp692
VAverage_F
p693
aV0.10951
p694
aV0.08998
p695
aV0.12912
p696
aass.