(lp0
V---------------------------------------------\u000a03 ROUGE-1 Average_R: 0.43355 (95%-conf.int. 0.43355 - 0.43355)\u000a03 ROUGE-1 Average_P: 0.43450 (95%-conf.int. 0.43450 - 0.43450)\u000a03 ROUGE-1 Average_F: 0.43402 (95%-conf.int. 0.43402 - 0.43402)\u000a---------------------------------------------\u000a03 ROUGE-2 Average_R: 0.12691 (95%-conf.int. 0.12691 - 0.12691)\u000a03 ROUGE-2 Average_P: 0.12719 (95%-conf.int. 0.12719 - 0.12719)\u000a03 ROUGE-2 Average_F: 0.12705 (95%-conf.int. 0.12705 - 0.12705)\u000a---------------------------------------------\u000a03 ROUGE-3 Average_R: 0.04615 (95%-conf.int. 0.04615 - 0.04615)\u000a03 ROUGE-3 Average_P: 0.04626 (95%-conf.int. 0.04626 - 0.04626)\u000a03 ROUGE-3 Average_F: 0.04620 (95%-conf.int. 0.04620 - 0.04620)\u000a---------------------------------------------\u000a03 ROUGE-4 Average_R: 0.02649 (95%-conf.int. 0.02649 - 0.02649)\u000a03 ROUGE-4 Average_P: 0.02655 (95%-conf.int. 0.02655 - 0.02655)\u000a03 ROUGE-4 Average_F: 0.02652 (95%-conf.int. 0.02652 - 0.02652)\u000a---------------------------------------------\u000a03 ROUGE-L Average_R: 0.39869 (95%-conf.int. 0.39869 - 0.39869)\u000a03 ROUGE-L Average_P: 0.39956 (95%-conf.int. 0.39956 - 0.39956)\u000a03 ROUGE-L Average_F: 0.39912 (95%-conf.int. 0.39912 - 0.39912)\u000a---------------------------------------------\u000a18 ROUGE-1 Average_R: 0.05989 (95%-conf.int. 0.04793 - 0.07190)\u000a18 ROUGE-1 Average_P: 0.72190 (95%-conf.int. 0.71042 - 0.73333)\u000a18 ROUGE-1 Average_F: 0.10951 (95%-conf.int. 0.08998 - 0.12912)\u000a---------------------------------------------\u000a18 ROUGE-2 Average_R: 0.01585 (95%-conf.int. 0.01094 - 0.02079)\u000a18 ROUGE-2 Average_P: 0.19036 (95%-conf.int. 0.17857 - 0.20219)\u000a18 ROUGE-2 Average_F: 0.02893 (95%-conf.int. 0.02062 - 0.03728)\u000a---------------------------------------------\u000a18 ROUGE-3 Average_R: 0.00164 (95%-conf.int. 0.00000 - 0.00330)\u000a18 ROUGE-3 Average_P: 0.01248 (95%-conf.int. 0.00000 - 0.02500)\u000a18 ROUGE-3 Average_F: 0.00291 (95%-conf.int. 0.00000 - 0.00583)\u000a---------------------------------------------\u000a18 ROUGE-4 Average_R: 0.00110 (95%-conf.int. 0.00000 - 0.00221)\u000a18 ROUGE-4 Average_P: 0.00860 (95%-conf.int. 0.00000 - 0.01724)\u000a18 ROUGE-4 Average_F: 0.00196 (95%-conf.int. 0.00000 - 0.00392)\u000a---------------------------------------------\u000a18 ROUGE-L Average_R: 0.05281 (95%-conf.int. 0.04139 - 0.06427)\u000a18 ROUGE-L Average_P: 0.63125 (95%-conf.int. 0.62916 - 0.63333)\u000a18 ROUGE-L Average_F: 0.09648 (95%-conf.int. 0.07770 - 0.11533)\u000a---------------------------------------------\u000a19 ROUGE-1 Average_R: 0.17647 (95%-conf.int. 0.17647 - 0.17647)\u000a19 ROUGE-1 Average_P: 0.65323 (95%-conf.int. 0.65323 - 0.65323)\u000a19 ROUGE-1 Average_F: 0.27787 (95%-conf.int. 0.27787 - 0.27787)\u000a---------------------------------------------\u000a19 ROUGE-2 Average_R: 0.04814 (95%-conf.int. 0.04814 - 0.04814)\u000a19 ROUGE-2 Average_P: 0.18033 (95%-conf.int. 0.18033 - 0.18033)\u000a19 ROUGE-2 Average_F: 0.07599 (95%-conf.int. 0.07599 - 0.07599)\u000a---------------------------------------------\u000a19 ROUGE-3 Average_R: 0.01319 (95%-conf.int. 0.01319 - 0.01319)\u000a19 ROUGE-3 Average_P: 0.05000 (95%-conf.int. 0.05000 - 0.05000)\u000a19 ROUGE-3 Average_F: 0.02087 (95%-conf.int. 0.02087 - 0.02087)\u000a---------------------------------------------\u000a19 ROUGE-4 Average_R: 0.00662 (95%-conf.int. 0.00662 - 0.00662)\u000a19 ROUGE-4 Average_P: 0.02542 (95%-conf.int. 0.02542 - 0.02542)\u000a19 ROUGE-4 Average_F: 0.01050 (95%-conf.int. 0.01050 - 0.01050)\u000a---------------------------------------------\u000a19 ROUGE-L Average_R: 0.16122 (95%-conf.int. 0.16122 - 0.16122)\u000a19 ROUGE-L Average_P: 0.59677 (95%-conf.int. 0.59677 - 0.59677)\u000a19 ROUGE-L Average_F: 0.25386 (95%-conf.int. 0.25386 - 0.25386)\u000a---------------------------------------------\u000a20 ROUGE-1 Average_R: 0.26143 (95%-conf.int. 0.25708 - 0.26580)\u000a20 ROUGE-1 Average_P: 0.62983 (95%-conf.int. 0.62105 - 0.63865)\u000a20 ROUGE-1 Average_F: 0.36949 (95%-conf.int. 0.36364 - 0.37537)\u000a---------------------------------------------\u000a20 ROUGE-2 Average_R: 0.06454 (95%-conf.int. 0.05908 - 0.07002)\u000a20 ROUGE-2 Average_P: 0.15637 (95%-conf.int. 0.14362 - 0.16918)\u000a20 ROUGE-2 Average_F: 0.09137 (95%-conf.int. 0.08372 - 0.09904)\u000a---------------------------------------------\u000a20 ROUGE-3 Average_R: 0.01977 (95%-conf.int. 0.01538 - 0.02417)\u000a20 ROUGE-3 Average_P: 0.04815 (95%-conf.int. 0.03763 - 0.05871)\u000a20 ROUGE-3 Average_F: 0.02803 (95%-conf.int. 0.02184 - 0.03425)\u000a---------------------------------------------\u000a20 ROUGE-4 Average_R: 0.01048 (95%-conf.int. 0.00662 - 0.01435)\u000a20 ROUGE-4 Average_P: 0.02565 (95%-conf.int. 0.01630 - 0.03503)\u000a20 ROUGE-4 Average_F: 0.01488 (95%-conf.int. 0.00942 - 0.02036)\u000a---------------------------------------------\u000a20 ROUGE-L Average_R: 0.23692 (95%-conf.int. 0.23094 - 0.24292)\u000a20 ROUGE-L Average_P: 0.57074 (95%-conf.int. 0.55789 - 0.58364)\u000a20 ROUGE-L Average_F: 0.33484 (95%-conf.int. 0.32666 - 0.34306)\u000a---------------------------------------------\u000a21 ROUGE-1 Average_R: 0.33007 (95%-conf.int. 0.32680 - 0.33333)\u000a21 ROUGE-1 Average_P: 0.59538 (95%-conf.int. 0.59302 - 0.59774)\u000a21 ROUGE-1 Average_F: 0.42463 (95%-conf.int. 0.42249 - 0.42677)\u000a---------------------------------------------\u000a21 ROUGE-2 Average_R: 0.09684 (95%-conf.int. 0.09300 - 0.10066)\u000a21 ROUGE-2 Average_P: 0.17507 (95%-conf.int. 0.17042 - 0.17969)\u000a21 ROUGE-2 Average_F: 0.12469 (95%-conf.int. 0.12031 - 0.12904)\u000a---------------------------------------------\u000a21 ROUGE-3 Average_R: 0.03956 (95%-conf.int. 0.03956 - 0.03956)\u000a21 ROUGE-3 Average_P: 0.07190 (95%-conf.int. 0.07087 - 0.07294)\u000a21 ROUGE-3 Average_F: 0.05103 (95%-conf.int. 0.05078 - 0.05129)\u000a---------------------------------------------\u000a21 ROUGE-4 Average_R: 0.02428 (95%-conf.int. 0.02428 - 0.02428)\u000a21 ROUGE-4 Average_P: 0.04429 (95%-conf.int. 0.04365 - 0.04494)\u000a21 ROUGE-4 Average_F: 0.03136 (95%-conf.int. 0.03120 - 0.03152)\u000a---------------------------------------------\u000a21 ROUGE-L Average_R: 0.30339 (95%-conf.int. 0.29956 - 0.30719)\u000a21 ROUGE-L Average_P: 0.54718 (95%-conf.int. 0.54651 - 0.54785)\u000a21 ROUGE-L Average_F: 0.39029 (95%-conf.int. 0.38726 - 0.39331)\u000a---------------------------------------------\u000a22 ROUGE-1 Average_R: 0.35512 (95%-conf.int. 0.35512 - 0.35512)\u000a22 ROUGE-1 Average_P: 0.53981 (95%-conf.int. 0.53628 - 0.54333)\u000a22 ROUGE-1 Average_F: 0.42839 (95%-conf.int. 0.42727 - 0.42951)\u000a---------------------------------------------\u000a22 ROUGE-2 Average_R: 0.10722 (95%-conf.int. 0.10722 - 0.10722)\u000a22 ROUGE-2 Average_P: 0.16336 (95%-conf.int. 0.16228 - 0.16443)\u000a22 ROUGE-2 Average_F: 0.12946 (95%-conf.int. 0.12912 - 0.12980)\u000a---------------------------------------------\u000a22 ROUGE-3 Average_R: 0.04615 (95%-conf.int. 0.04615 - 0.04615)\u000a22 ROUGE-3 Average_P: 0.07048 (95%-conf.int. 0.07001 - 0.07095)\u000a22 ROUGE-3 Average_F: 0.05577 (95%-conf.int. 0.05562 - 0.05592)\u000a---------------------------------------------\u000a22 ROUGE-4 Average_R: 0.02649 (95%-conf.int. 0.02649 - 0.02649)\u000a22 ROUGE-4 Average_P: 0.04055 (95%-conf.int. 0.04028 - 0.04082)\u000a22 ROUGE-4 Average_F: 0.03205 (95%-conf.int. 0.03196 - 0.03213)\u000a---------------------------------------------\u000a22 ROUGE-L Average_R: 0.32844 (95%-conf.int. 0.32789 - 0.32898)\u000a22 ROUGE-L Average_P: 0.49926 (95%-conf.int. 0.49517 - 0.50333)\u000a22 ROUGE-L Average_F: 0.39621 (95%-conf.int. 0.39452 - 0.39789)\u000a---------------------------------------------\u000a23 ROUGE-1 Average_R: 0.37691 (95%-conf.int. 0.37691 - 0.37691)\u000a23 ROUGE-1 Average_P: 0.49148 (95%-conf.int. 0.49148 - 0.49148)\u000a23 ROUGE-1 Average_F: 0.42664 (95%-conf.int. 0.42664 - 0.42664)\u000a---------------------------------------------\u000a23 ROUGE-2 Average_R: 0.11379 (95%-conf.int. 0.11379 - 0.11379)\u000a23 ROUGE-2 Average_P: 0.14857 (95%-conf.int. 0.14857 - 0.14857)\u000a23 ROUGE-2 Average_F: 0.12887 (95%-conf.int. 0.12887 - 0.12887)\u000a---------------------------------------------\u000a23 ROUGE-3 Average_R: 0.04615 (95%-conf.int. 0.04615 - 0.04615)\u000a23 ROUGE-3 Average_P: 0.06034 (95%-conf.int. 0.06034 - 0.06034)\u000a23 ROUGE-3 Average_F: 0.05230 (95%-conf.int. 0.05230 - 0.05230)\u000a---------------------------------------------\u000a23 ROUGE-4 Average_R: 0.02649 (95%-conf.int. 0.02649 - 0.02649)\u000a23 ROUGE-4 Average_P: 0.03468 (95%-conf.int. 0.03468 - 0.03468)\u000a23 ROUGE-4 Average_F: 0.03004 (95%-conf.int. 0.03004 - 0.03004)\u000a---------------------------------------------\u000a23 ROUGE-L Average_R: 0.34641 (95%-conf.int. 0.34641 - 0.34641)\u000a23 ROUGE-L Average_P: 0.45170 (95%-conf.int. 0.45170 - 0.45170)\u000a23 ROUGE-L Average_F: 0.39211 (95%-conf.int. 0.39211 - 0.39211)\u000a---------------------------------------------\u000a24 ROUGE-1 Average_R: 0.39651 (95%-conf.int. 0.39651 - 0.39651)\u000a24 ROUGE-1 Average_P: 0.45845 (95%-conf.int. 0.45729 - 0.45961)\u000a24 ROUGE-1 Average_F: 0.42524 (95%-conf.int. 0.42474 - 0.42573)\u000a---------------------------------------------\u000a24 ROUGE-2 Average_R: 0.11706 (95%-conf.int. 0.11597 - 0.11816)\u000a24 ROUGE-2 Average_P: 0.13545 (95%-conf.int. 0.13384 - 0.13708)\u000a24 ROUGE-2 Average_F: 0.12559 (95%-conf.int. 0.12427 - 0.12692)\u000a---------------------------------------------\u000a24 ROUGE-3 Average_R: 0.04615 (95%-conf.int. 0.04615 - 0.04615)\u000a24 ROUGE-3 Average_P: 0.05344 (95%-conf.int. 0.05330 - 0.05357)\u000a24 ROUGE-3 Average_F: 0.04953 (95%-conf.int. 0.04947 - 0.04959)\u000a---------------------------------------------\u000a24 ROUGE-4 Average_R: 0.02649 (95%-conf.int. 0.02649 - 0.02649)\u000a24 ROUGE-4 Average_P: 0.03069 (95%-conf.int. 0.03061 - 0.03077)\u000a24 ROUGE-4 Average_F: 0.02843 (95%-conf.int. 0.02840 - 0.02847)\u000a---------------------------------------------\u000a24 ROUGE-L Average_R: 0.36383 (95%-conf.int. 0.36383 - 0.36383)\u000a24 ROUGE-L Average_P: 0.42066 (95%-conf.int. 0.41960 - 0.42173)\u000a24 ROUGE-L Average_F: 0.39019 (95%-conf.int. 0.38973 - 0.39065)\u000a
p1
a.