(isxpPackage
sxpResult
p0
(dp1
S'importance_sentset'
p2
(lp3
(lp4
(lp5
I5
acnumpy.core.multiarray
scalar
p6
(cnumpy
dtype
p7
(S'i4'
p8
I0
I1
tp9
Rp10
(I3
S'<'
p11
NNNI-1
I-1
I0
tp12
bS'\x00\x00\x00\x00'
p13
tp14
Rp15
aI1
aI0
aI0
aI0
aa(lp16
I10
ag6
(g10
S'\x00\x00\x00\x00'
p17
tp18
Rp19
aI1
aI0
aI2
aI0
aa(lp20
I15
ag6
(g10
S'\x00\x00\x00\x00'
p21
tp22
Rp23
aI1
aI0
aI3
aI0
aa(lp24
I20
ag6
(g10
S'\x01\x00\x00\x00'
p25
tp26
Rp27
aI0
aI0
aI3
aI0
aaa(lp28
(lp29
I5
ag6
(g10
S'\x02\x00\x00\x00'
p30
tp31
Rp32
aI0
aI0
aI0
aI0
aa(lp33
I10
ag6
(g10
S'\x05\x00\x00\x00'
p34
tp35
Rp36
aI0
aI0
aI0
aI0
aa(lp37
I15
ag6
(g10
S'\x05\x00\x00\x00'
p38
tp39
Rp40
aI0
aI0
aI2
aI0
aa(lp41
I20
ag6
(g10
S'\t\x00\x00\x00'
p42
tp43
Rp44
aI0
aI0
aI3
aI1
aaa(lp45
(lp46
I5
ag6
(g10
S'\x04\x00\x00\x00'
p47
tp48
Rp49
aI0
aI0
aI0
aI0
aa(lp50
I10
ag6
(g10
S'\x06\x00\x00\x00'
p51
tp52
Rp53
aI0
aI0
aI1
aI0
aa(lp54
I15
ag6
(g10
S'\n\x00\x00\x00'
p55
tp56
Rp57
aI0
aI0
aI1
aI0
aa(lp58
I20
ag6
(g10
S'\x0c\x00\x00\x00'
p59
tp60
Rp61
aI0
aI0
aI1
aI0
aaa(lp62
(lp63
I5
ag6
(g10
S'\x03\x00\x00\x00'
p64
tp65
Rp66
aI0
aI1
aI1
aI0
aa(lp67
I10
ag6
(g10
S'\x03\x00\x00\x00'
p68
tp69
Rp70
aI0
aI1
aI1
aI0
aa(lp71
I15
ag6
(g10
S'\x03\x00\x00\x00'
p72
tp73
Rp74
aI0
aI1
aI3
aI0
aa(lp75
I20
ag6
(g10
S'\x04\x00\x00\x00'
p76
tp77
Rp78
aI0
aI1
aI3
aI0
aaa(lp79
(lp80
I5
ag6
(g10
S'\x03\x00\x00\x00'
p81
tp82
Rp83
aI0
aI0
aI0
aI0
aa(lp84
I10
ag6
(g10
S'\x08\x00\x00\x00'
p85
tp86
Rp87
aI0
aI0
aI0
aI0
aa(lp88
I15
ag6
(g10
S'\x0c\x00\x00\x00'
p89
tp90
Rp91
aI0
aI1
aI1
aI0
aa(lp92
I20
ag6
(g10
S'\x11\x00\x00\x00'
p93
tp94
Rp95
aI0
aI1
aI1
aI0
aaa(lp96
(lp97
I5
ag6
(g10
S'\x03\x00\x00\x00'
p98
tp99
Rp100
aI0
aI0
aI1
aI0
aa(lp101
I10
ag6
(g10
S'\x08\x00\x00\x00'
p102
tp103
Rp104
aI0
aI0
aI1
aI0
aa(lp105
I15
ag6
(g10
S'\r\x00\x00\x00'
p106
tp107
Rp108
aI0
aI0
aI1
aI0
aa(lp109
I20
ag6
(g10
S'\x12\x00\x00\x00'
p110
tp111
Rp112
aI0
aI0
aI1
aI0
aaa(lp113
(lp114
I5
ag6
(g10
S'\x02\x00\x00\x00'
p115
tp116
Rp117
aI0
aI0
aI1
aI0
aa(lp118
I10
ag6
(g10
S'\x04\x00\x00\x00'
p119
tp120
Rp121
aI0
aI0
aI1
aI0
aa(lp122
I15
ag6
(g10
S'\x08\x00\x00\x00'
p123
tp124
Rp125
aI0
aI0
aI1
aI0
aa(lp126
I20
ag6
(g10
S'\n\x00\x00\x00'
p127
tp128
Rp129
aI0
aI0
aI1
aI0
aaa(lp130
(lp131
I5
ag6
(g10
S'\x00\x00\x00\x00'
p132
tp133
Rp134
aI1
aI0
aI0
aI0
aa(lp135
I10
ag6
(g10
S'\x00\x00\x00\x00'
p136
tp137
Rp138
aI1
aI0
aI0
aI0
aa(lp139
I15
ag6
(g10
S'\x00\x00\x00\x00'
p140
tp141
Rp142
aI1
aI0
aI0
aI0
aa(lp143
I20
ag6
(g10
S'\x02\x00\x00\x00'
p144
tp145
Rp146
aI0
aI0
aI0
aI0
aaa(lp147
(lp148
I5
ag6
(g10
S'\x04\x00\x00\x00'
p149
tp150
Rp151
aI0
aI1
aI1
aI1
aa(lp152
I10
ag6
(g10
S'\t\x00\x00\x00'
p153
tp154
Rp155
aI0
aI1
aI1
aI1
aa(lp156
I15
ag6
(g10
S'\x0b\x00\x00\x00'
p157
tp158
Rp159
aI0
aI1
aI1
aI1
aa(lp160
I20
ag6
(g10
S'\x0f\x00\x00\x00'
p161
tp162
Rp163
aI0
aI1
aI2
aI1
aaa(lp164
(lp165
I5
ag6
(g10
S'\x02\x00\x00\x00'
p166
tp167
Rp168
aI0
aI0
aI0
aI0
aa(lp169
I10
ag6
(g10
S'\x04\x00\x00\x00'
p170
tp171
Rp172
aI0
aI0
aI0
aI0
aa(lp173
I15
ag6
(g10
S'\x08\x00\x00\x00'
p174
tp175
Rp176
aI0
aI0
aI0
aI0
aa(lp177
I20
ag6
(g10
S'\n\x00\x00\x00'
p178
tp179
Rp180
aI0
aI1
aI1
aI0
aaa(lp181
(lp182
I5
ag6
(g10
S'\x04\x00\x00\x00'
p183
tp184
Rp185
aI0
aI0
aI0
aI0
aa(lp186
I10
ag6
(g10
S'\x07\x00\x00\x00'
p187
tp188
Rp189
aI0
aI0
aI0
aI0
aa(lp190
I15
ag6
(g10
S'\t\x00\x00\x00'
p191
tp192
Rp193
aI0
aI0
aI0
aI0
aa(lp194
I20
ag6
(g10
S'\r\x00\x00\x00'
p195
tp196
Rp197
aI0
aI0
aI0
aI0
aaa(lp198
(lp199
I5
ag6
(g10
S'\x01\x00\x00\x00'
p200
tp201
Rp202
aI0
aI0
aI0
aI0
aa(lp203
I10
ag6
(g10
S'\x01\x00\x00\x00'
p204
tp205
Rp206
aI0
aI0
aI0
aI0
aa(lp207
I15
ag6
(g10
S'\x02\x00\x00\x00'
p208
tp209
Rp210
aI0
aI0
aI1
aI0
aa(lp211
I20
ag6
(g10
S'\x04\x00\x00\x00'
p212
tp213
Rp214
aI0
aI0
aI1
aI0
aaa(lp215
(lp216
I5
ag6
(g10
S'\x02\x00\x00\x00'
p217
tp218
Rp219
aI0
aI0
aI0
aI0
aa(lp220
I10
ag6
(g10
S'\x06\x00\x00\x00'
p221
tp222
Rp223
aI0
aI0
aI0
aI0
aa(lp224
I15
ag6
(g10
S'\x08\x00\x00\x00'
p225
tp226
Rp227
aI0
aI0
aI0
aI0
aa(lp228
I20
ag6
(g10
S'\t\x00\x00\x00'
p229
tp230
Rp231
aI0
aI0
aI0
aI0
aaa(lp232
(lp233
I5
ag6
(g10
S'\x01\x00\x00\x00'
p234
tp235
Rp236
aI0
aI0
aI0
aI0
aa(lp237
I10
ag6
(g10
S'\x04\x00\x00\x00'
p238
tp239
Rp240
aI0
aI0
aI0
aI0
aa(lp241
I15
ag6
(g10
S'\x08\x00\x00\x00'
p242
tp243
Rp244
aI0
aI0
aI0
aI0
aa(lp245
I20
ag6
(g10
S'\x0b\x00\x00\x00'
p246
tp247
Rp248
aI0
aI0
aI0
aI0
aaa(lp249
(lp250
I5
ag6
(g10
S'\x00\x00\x00\x00'
p251
tp252
Rp253
aI1
aI0
aI0
aI0
aa(lp254
I10
ag6
(g10
S'\x01\x00\x00\x00'
p255
tp256
Rp257
aI0
aI0
aI0
aI0
aa(lp258
I15
ag6
(g10
S'\x02\x00\x00\x00'
p259
tp260
Rp261
aI0
aI0
aI0
aI0
aa(lp262
I20
ag6
(g10
S'\x04\x00\x00\x00'
p263
tp264
Rp265
aI0
aI0
aI0
aI0
aaa(lp266
(lp267
I5
ag6
(g10
S'\x04\x00\x00\x00'
p268
tp269
Rp270
aI0
aI1
aI1
aI0
aa(lp271
I10
ag6
(g10
S'\x08\x00\x00\x00'
p272
tp273
Rp274
aI0
aI1
aI1
aI0
aa(lp275
I15
ag6
(g10
S'\x0c\x00\x00\x00'
p276
tp277
Rp278
aI0
aI1
aI1
aI0
aa(lp279
I20
ag6
(g10
S'\x0f\x00\x00\x00'
p280
tp281
Rp282
aI0
aI1
aI1
aI0
aaa(lp283
(lp284
I5
ag6
(g10
S'\x03\x00\x00\x00'
p285
tp286
Rp287
aI0
aI1
aI2
aI0
aa(lp288
I10
ag6
(g10
S'\x06\x00\x00\x00'
p289
tp290
Rp291
aI0
aI1
aI3
aI0
aa(lp292
I15
ag6
(g10
S'\t\x00\x00\x00'
p293
tp294
Rp295
aI0
aI1
aI4
aI0
aa(lp296
I20
ag6
(g10
S'\r\x00\x00\x00'
p297
tp298
Rp299
aI0
aI1
aI4
aI0
aaa(lp300
(lp301
I5
ag6
(g10
S'\x04\x00\x00\x00'
p302
tp303
Rp304
aI0
aI1
aI1
aI0
aa(lp305
I10
ag6
(g10
S'\t\x00\x00\x00'
p306
tp307
Rp308
aI0
aI1
aI1
aI0
aa(lp309
I15
ag6
(g10
S'\n\x00\x00\x00'
p310
tp311
Rp312
aI0
aI1
aI1
aI0
aa(lp313
I20
ag6
(g10
S'\x0b\x00\x00\x00'
p314
tp315
Rp316
aI0
aI1
aI1
aI0
aaa(lp317
(lp318
I5
ag6
(g10
S'\x05\x00\x00\x00'
p319
tp320
Rp321
aI0
aI0
aI0
aI0
aa(lp322
I10
ag6
(g10
S'\t\x00\x00\x00'
p323
tp324
Rp325
aI0
aI0
aI0
aI0
aa(lp326
I15
ag6
(g10
S'\x0e\x00\x00\x00'
p327
tp328
Rp329
aI0
aI0
aI0
aI0
aa(lp330
I20
ag6
(g10
S'\x12\x00\x00\x00'
p331
tp332
Rp333
aI0
aI0
aI0
aI0
aaa(lp334
(lp335
I5
ag6
(g10
S'\x01\x00\x00\x00'
p336
tp337
Rp338
aI0
aI0
aI0
aI0
aa(lp339
I10
ag6
(g10
S'\x01\x00\x00\x00'
p340
tp341
Rp342
aI0
aI0
aI0
aI0
aa(lp343
I15
ag6
(g10
S'\x03\x00\x00\x00'
p344
tp345
Rp346
aI0
aI0
aI0
aI0
aa(lp347
I20
ag6
(g10
S'\x05\x00\x00\x00'
p348
tp349
Rp350
aI0
aI0
aI0
aI0
aaa(lp351
(lp352
I5
ag6
(g10
S'\x05\x00\x00\x00'
p353
tp354
Rp355
aI0
aI1
aI1
aI0
aa(lp356
I10
ag6
(g10
S'\n\x00\x00\x00'
p357
tp358
Rp359
aI0
aI1
aI2
aI1
aaa(lp360
(lp361
I5
ag6
(g10
S'\x05\x00\x00\x00'
p362
tp363
Rp364
aI0
aI0
aI0
aI0
aa(lp365
I10
ag6
(g10
S'\x07\x00\x00\x00'
p366
tp367
Rp368
aI0
aI0
aI0
aI0
aa(lp369
I15
ag6
(g10
S'\n\x00\x00\x00'
p370
tp371
Rp372
aI0
aI0
aI0
aI0
aa(lp373
I20
ag6
(g10
S'\x0f\x00\x00\x00'
p374
tp375
Rp376
aI0
aI0
aI0
aI0
aaa(lp377
(lp378
I5
ag6
(g10
S'\x05\x00\x00\x00'
p379
tp380
Rp381
aI0
aI0
aI0
aI0
aa(lp382
I10
ag6
(g10
S'\n\x00\x00\x00'
p383
tp384
Rp385
aI0
aI0
aI0
aI0
aa(lp386
I15
ag6
(g10
S'\x0e\x00\x00\x00'
p387
tp388
Rp389
aI0
aI0
aI0
aI0
aa(lp390
I20
ag6
(g10
S'\x12\x00\x00\x00'
p391
tp392
Rp393
aI0
aI0
aI0
aI0
aaa(lp394
(lp395
I5
ag6
(g10
S'\x01\x00\x00\x00'
p396
tp397
Rp398
aI0
aI0
aI1
aI0
aa(lp399
I10
ag6
(g10
S'\x04\x00\x00\x00'
p400
tp401
Rp402
aI0
aI0
aI1
aI0
aa(lp403
I15
ag6
(g10
S'\x05\x00\x00\x00'
p404
tp405
Rp406
aI0
aI0
aI1
aI0
aa(lp407
I20
ag6
(g10
S'\x07\x00\x00\x00'
p408
tp409
Rp410
aI0
aI0
aI1
aI0
aaa(lp411
(lp412
I5
ag6
(g10
S'\x01\x00\x00\x00'
p413
tp414
Rp415
aI0
aI0
aI0
aI0
aa(lp416
I10
ag6
(g10
S'\x02\x00\x00\x00'
p417
tp418
Rp419
aI0
aI0
aI0
aI0
aa(lp420
I15
ag6
(g10
S'\x02\x00\x00\x00'
p421
tp422
Rp423
aI0
aI0
aI0
aI0
aa(lp424
I20
ag6
(g10
S'\x02\x00\x00\x00'
p425
tp426
Rp427
aI0
aI0
aI0
aI0
aaa(lp428
(lp429
I5
ag6
(g10
S'\x05\x00\x00\x00'
p430
tp431
Rp432
aI0
aI0
aI0
aI0
aa(lp433
I10
ag6
(g10
S'\x08\x00\x00\x00'
p434
tp435
Rp436
aI0
aI1
aI1
aI0
aa(lp437
I15
ag6
(g10
S'\x0b\x00\x00\x00'
p438
tp439
Rp440
aI0
aI1
aI1
aI0
aa(lp441
I20
ag6
(g10
S'\x0e\x00\x00\x00'
p442
tp443
Rp444
aI0
aI1
aI1
aI0
aaa(lp445
(lp446
I5
ag6
(g10
S'\x02\x00\x00\x00'
p447
tp448
Rp449
aI0
aI0
aI0
aI0
aa(lp450
I10
ag6
(g10
S'\x03\x00\x00\x00'
p451
tp452
Rp453
aI0
aI0
aI0
aI0
aa(lp454
I15
ag6
(g10
S'\x05\x00\x00\x00'
p455
tp456
Rp457
aI0
aI0
aI0
aI0
aa(lp458
I20
ag6
(g10
S'\x06\x00\x00\x00'
p459
tp460
Rp461
aI0
aI0
aI1
aI0
aaa(lp462
(lp463
I5
ag6
(g10
S'\x04\x00\x00\x00'
p464
tp465
Rp466
aI0
aI1
aI2
aI0
aa(lp467
I10
ag6
(g10
S'\x08\x00\x00\x00'
p468
tp469
Rp470
aI0
aI1
aI2
aI0
aa(lp471
I15
ag6
(g10
S'\x0b\x00\x00\x00'
p472
tp473
Rp474
aI0
aI1
aI2
aI0
aa(lp475
I20
ag6
(g10
S'\x0e\x00\x00\x00'
p476
tp477
Rp478
aI0
aI1
aI3
aI0
aaa(lp479
(lp480
I5
ag6
(g10
S'\x00\x00\x00\x00'
p481
tp482
Rp483
aI1
aI0
aI0
aI0
aa(lp484
I10
ag6
(g10
S'\x01\x00\x00\x00'
p485
tp486
Rp487
aI0
aI0
aI0
aI0
aa(lp488
I15
ag6
(g10
S'\x02\x00\x00\x00'
p489
tp490
Rp491
aI0
aI0
aI0
aI0
aa(lp492
I20
ag6
(g10
S'\x03\x00\x00\x00'
p493
tp494
Rp495
aI0
aI0
aI1
aI0
aaa(lp496
(lp497
I5
ag6
(g10
S'\x02\x00\x00\x00'
p498
tp499
Rp500
aI0
aI1
aI1
aI0
aa(lp501
I10
ag6
(g10
S'\x03\x00\x00\x00'
p502
tp503
Rp504
aI0
aI1
aI1
aI0
aa(lp505
I15
ag6
(g10
S'\x05\x00\x00\x00'
p506
tp507
Rp508
aI0
aI1
aI1
aI0
aa(lp509
I20
ag6
(g10
S'\x06\x00\x00\x00'
p510
tp511
Rp512
aI0
aI1
aI1
aI0
aaa(lp513
(lp514
I5
ag6
(g10
S'\x03\x00\x00\x00'
p515
tp516
Rp517
aI0
aI1
aI2
aI0
aa(lp518
I10
ag6
(g10
S'\x03\x00\x00\x00'
p519
tp520
Rp521
aI0
aI1
aI4
aI0
aa(lp522
I15
ag6
(g10
S'\x06\x00\x00\x00'
p523
tp524
Rp525
aI0
aI1
aI4
aI0
aa(lp526
I20
ag6
(g10
S'\n\x00\x00\x00'
p527
tp528
Rp529
aI0
aI1
aI4
aI0
aaa(lp530
(lp531
I5
ag6
(g10
S'\x03\x00\x00\x00'
p532
tp533
Rp534
aI0
aI0
aI0
aI0
aa(lp535
I10
ag6
(g10
S'\x06\x00\x00\x00'
p536
tp537
Rp538
aI0
aI0
aI2
aI0
aa(lp539
I15
ag6
(g10
S'\x08\x00\x00\x00'
p540
tp541
Rp542
aI0
aI0
aI2
aI0
aa(lp543
I20
ag6
(g10
S'\x0b\x00\x00\x00'
p544
tp545
Rp546
aI0
aI0
aI2
aI0
aaa(lp547
(lp548
I5
ag6
(g10
S'\x04\x00\x00\x00'
p549
tp550
Rp551
aI0
aI0
aI0
aI0
aa(lp552
I10
ag6
(g10
S'\x08\x00\x00\x00'
p553
tp554
Rp555
aI0
aI0
aI0
aI0
aa(lp556
I15
ag6
(g10
S'\x0c\x00\x00\x00'
p557
tp558
Rp559
aI0
aI0
aI0
aI0
aa(lp560
I20
ag6
(g10
S'\x10\x00\x00\x00'
p561
tp562
Rp563
aI0
aI0
aI0
aI0
aaa(lp564
(lp565
I5
ag6
(g10
S'\x03\x00\x00\x00'
p566
tp567
Rp568
aI0
aI0
aI0
aI0
aa(lp569
I10
ag6
(g10
S'\x04\x00\x00\x00'
p570
tp571
Rp572
aI0
aI0
aI0
aI0
aa(lp573
I15
ag6
(g10
S'\x06\x00\x00\x00'
p574
tp575
Rp576
aI0
aI0
aI1
aI0
aa(lp577
I20
ag6
(g10
S'\x08\x00\x00\x00'
p578
tp579
Rp580
aI0
aI0
aI1
aI0
aaa(lp581
(lp582
I5
ag6
(g10
S'\x02\x00\x00\x00'
p583
tp584
Rp585
aI0
aI0
aI1
aI0
aa(lp586
I10
ag6
(g10
S'\x05\x00\x00\x00'
p587
tp588
Rp589
aI0
aI0
aI1
aI0
aa(lp590
I15
ag6
(g10
S'\x07\x00\x00\x00'
p591
tp592
Rp593
aI0
aI1
aI2
aI0
aa(lp594
I20
ag6
(g10
S'\x0b\x00\x00\x00'
p595
tp596
Rp597
aI0
aI1
aI2
aI0
aaa(lp598
(lp599
I5
ag6
(g10
S'\x05\x00\x00\x00'
p600
tp601
Rp602
aI0
aI0
aI0
aI0
aa(lp603
I10
ag6
(g10
S'\t\x00\x00\x00'
p604
tp605
Rp606
aI0
aI1
aI2
aI0
aa(lp607
I15
ag6
(g10
S'\x0c\x00\x00\x00'
p608
tp609
Rp610
aI0
aI1
aI3
aI0
aa(lp611
I20
ag6
(g10
S'\r\x00\x00\x00'
p612
tp613
Rp614
aI0
aI1
aI3
aI0
aaa(lp615
(lp616
I5
ag6
(g10
S'\x01\x00\x00\x00'
p617
tp618
Rp619
aI0
aI0
aI0
aI0
aa(lp620
I10
ag6
(g10
S'\x02\x00\x00\x00'
p621
tp622
Rp623
aI0
aI0
aI0
aI0
aa(lp624
I15
ag6
(g10
S'\x03\x00\x00\x00'
p625
tp626
Rp627
aI0
aI0
aI0
aI0
aa(lp628
I20
ag6
(g10
S'\x04\x00\x00\x00'
p629
tp630
Rp631
aI0
aI0
aI0
aI0
aaa(lp632
(lp633
I5
ag6
(g10
S'\x01\x00\x00\x00'
p634
tp635
Rp636
aI0
aI0
aI1
aI0
aa(lp637
I10
ag6
(g10
S'\x01\x00\x00\x00'
p638
tp639
Rp640
aI0
aI0
aI2
aI0
aa(lp641
I15
ag6
(g10
S'\x03\x00\x00\x00'
p642
tp643
Rp644
aI0
aI0
aI2
aI0
aa(lp645
I20
ag6
(g10
S'\x05\x00\x00\x00'
p646
tp647
Rp648
aI0
aI0
aI2
aI0
aaa(lp649
(lp650
I5
ag6
(g10
S'\x01\x00\x00\x00'
p651
tp652
Rp653
aI0
aI0
aI0
aI0
aa(lp654
I10
ag6
(g10
S'\x01\x00\x00\x00'
p655
tp656
Rp657
aI0
aI0
aI0
aI0
aa(lp658
I15
ag6
(g10
S'\x02\x00\x00\x00'
p659
tp660
Rp661
aI0
aI0
aI0
aI0
aa(lp662
I20
ag6
(g10
S'\x03\x00\x00\x00'
p663
tp664
Rp665
aI0
aI0
aI0
aI0
aaa(lp666
(lp667
I5
ag6
(g10
S'\x03\x00\x00\x00'
p668
tp669
Rp670
aI0
aI0
aI1
aI0
aa(lp671
I10
ag6
(g10
S'\x06\x00\x00\x00'
p672
tp673
Rp674
aI0
aI0
aI1
aI0
aa(lp675
I15
ag6
(g10
S'\n\x00\x00\x00'
p676
tp677
Rp678
aI0
aI0
aI1
aI0
aa(lp679
I20
ag6
(g10
S'\x0e\x00\x00\x00'
p680
tp681
Rp682
aI0
aI0
aI1
aI0
aaa(lp683
(lp684
I5
ag6
(g10
S'\x00\x00\x00\x00'
p685
tp686
Rp687
aI1
aI0
aI0
aI0
aa(lp688
I10
ag6
(g10
S'\x00\x00\x00\x00'
p689
tp690
Rp691
aI1
aI0
aI0
aI0
aa(lp692
I15
ag6
(g10
S'\x00\x00\x00\x00'
p693
tp694
Rp695
aI1
aI0
aI1
aI0
aa(lp696
I20
ag6
(g10
S'\x02\x00\x00\x00'
p697
tp698
Rp699
aI0
aI0
aI1
aI0
aaa(lp700
(lp701
I5
ag6
(g10
S'\x01\x00\x00\x00'
p702
tp703
Rp704
aI0
aI0
aI0
aI0
aa(lp705
I10
ag6
(g10
S'\x01\x00\x00\x00'
p706
tp707
Rp708
aI0
aI0
aI1
aI0
aa(lp709
I15
ag6
(g10
S'\x03\x00\x00\x00'
p710
tp711
Rp712
aI0
aI0
aI1
aI0
aa(lp713
I20
ag6
(g10
S'\x04\x00\x00\x00'
p714
tp715
Rp716
aI0
aI0
aI1
aI0
aaa(lp717
(lp718
I5
ag6
(g10
S'\x00\x00\x00\x00'
p719
tp720
Rp721
aI1
aI0
aI0
aI0
aa(lp722
I10
ag6
(g10
S'\x02\x00\x00\x00'
p723
tp724
Rp725
aI0
aI0
aI0
aI0
aa(lp726
I15
ag6
(g10
S'\x03\x00\x00\x00'
p727
tp728
Rp729
aI0
aI0
aI0
aI0
aa(lp730
I20
ag6
(g10
S'\x04\x00\x00\x00'
p731
tp732
Rp733
aI0
aI0
aI0
aI0
aaa(lp734
(lp735
I5
ag6
(g10
S'\x05\x00\x00\x00'
p736
tp737
Rp738
aI0
aI0
aI0
aI0
aa(lp739
I10
ag6
(g10
S'\n\x00\x00\x00'
p740
tp741
Rp742
aI0
aI0
aI0
aI0
aa(lp743
I15
ag6
(g10
S'\r\x00\x00\x00'
p744
tp745
Rp746
aI0
aI1
aI1
aI0
aa(lp747
I20
ag6
(g10
S'\x12\x00\x00\x00'
p748
tp749
Rp750
aI0
aI1
aI1
aI0
aaa(lp751
(lp752
I5
ag6
(g10
S'\x05\x00\x00\x00'
p753
tp754
Rp755
aI0
aI0
aI0
aI0
aa(lp756
I10
ag6
(g10
S'\n\x00\x00\x00'
p757
tp758
Rp759
aI0
aI0
aI0
aI0
aa(lp760
I15
ag6
(g10
S'\x0f\x00\x00\x00'
p761
tp762
Rp763
aI0
aI0
aI0
aI0
aa(lp764
I20
ag6
(g10
S'\x14\x00\x00\x00'
p765
tp766
Rp767
aI0
aI0
aI0
aI0
aaa(lp768
(lp769
I5
ag6
(g10
S'\x03\x00\x00\x00'
p770
tp771
Rp772
aI0
aI0
aI0
aI0
aa(lp773
I10
ag6
(g10
S'\x08\x00\x00\x00'
p774
tp775
Rp776
aI0
aI0
aI0
aI0
aa(lp777
I15
ag6
(g10
S'\n\x00\x00\x00'
p778
tp779
Rp780
aI0
aI0
aI0
aI0
aa(lp781
I20
ag6
(g10
S'\x0c\x00\x00\x00'
p782
tp783
Rp784
aI0
aI0
aI0
aI0
aaa(lp785
(lp786
I5
ag6
(g10
S'\x03\x00\x00\x00'
p787
tp788
Rp789
aI0
aI0
aI1
aI0
aa(lp790
I10
ag6
(g10
S'\x06\x00\x00\x00'
p791
tp792
Rp793
aI0
aI0
aI1
aI0
aa(lp794
I15
ag6
(g10
S'\x08\x00\x00\x00'
p795
tp796
Rp797
aI0
aI0
aI1
aI0
aa(lp798
I20
ag6
(g10
S'\x0b\x00\x00\x00'
p799
tp800
Rp801
aI0
aI0
aI1
aI0
aaa(lp802
(lp803
I5
ag6
(g10
S'\x02\x00\x00\x00'
p804
tp805
Rp806
aI0
aI0
aI0
aI0
aa(lp807
I10
ag6
(g10
S'\x02\x00\x00\x00'
p808
tp809
Rp810
aI0
aI0
aI0
aI0
aa(lp811
I15
ag6
(g10
S'\x03\x00\x00\x00'
p812
tp813
Rp814
aI0
aI0
aI0
aI0
aa(lp815
I20
ag6
(g10
S'\x03\x00\x00\x00'
p816
tp817
Rp818
aI0
aI0
aI0
aI0
aaa(lp819
(lp820
I5
ag6
(g10
S'\x01\x00\x00\x00'
p821
tp822
Rp823
aI0
aI0
aI0
aI0
aa(lp824
I10
ag6
(g10
S'\x01\x00\x00\x00'
p825
tp826
Rp827
aI0
aI0
aI0
aI0
aa(lp828
I15
ag6
(g10
S'\x01\x00\x00\x00'
p829
tp830
Rp831
aI0
aI0
aI0
aI0
aa(lp832
I20
ag6
(g10
S'\x02\x00\x00\x00'
p833
tp834
Rp835
aI0
aI0
aI0
aI0
aaa(lp836
(lp837
I5
ag6
(g10
S'\x00\x00\x00\x00'
p838
tp839
Rp840
aI1
aI0
aI0
aI0
aa(lp841
I10
ag6
(g10
S'\x00\x00\x00\x00'
p842
tp843
Rp844
aI1
aI0
aI0
aI0
aa(lp845
I15
ag6
(g10
S'\x00\x00\x00\x00'
p846
tp847
Rp848
aI1
aI0
aI1
aI0
aa(lp849
I20
ag6
(g10
S'\x00\x00\x00\x00'
p850
tp851
Rp852
aI1
aI0
aI1
aI0
aaa(lp853
(lp854
I5
ag6
(g10
S'\x03\x00\x00\x00'
p855
tp856
Rp857
aI0
aI0
aI0
aI0
aa(lp858
I10
ag6
(g10
S'\x05\x00\x00\x00'
p859
tp860
Rp861
aI0
aI0
aI0
aI0
aa(lp862
I15
ag6
(g10
S'\x08\x00\x00\x00'
p863
tp864
Rp865
aI0
aI0
aI0
aI0
aa(lp866
I20
ag6
(g10
S'\x0b\x00\x00\x00'
p867
tp868
Rp869
aI0
aI0
aI0
aI0
aaa(lp870
(lp871
I5
ag6
(g10
S'\x02\x00\x00\x00'
p872
tp873
Rp874
aI0
aI0
aI0
aI0
aa(lp875
I10
ag6
(g10
S'\x06\x00\x00\x00'
p876
tp877
Rp878
aI0
aI0
aI0
aI0
aa(lp879
I15
ag6
(g10
S'\x08\x00\x00\x00'
p880
tp881
Rp882
aI0
aI0
aI0
aI0
aa(lp883
I20
ag6
(g10
S'\x0b\x00\x00\x00'
p884
tp885
Rp886
aI0
aI0
aI0
aI0
aaa(lp887
(lp888
I5
ag6
(g10
S'\x02\x00\x00\x00'
p889
tp890
Rp891
aI0
aI1
aI2
aI0
aa(lp892
I10
ag6
(g10
S'\x03\x00\x00\x00'
p893
tp894
Rp895
aI0
aI1
aI3
aI0
aa(lp896
I15
ag6
(g10
S'\x03\x00\x00\x00'
p897
tp898
Rp899
aI0
aI1
aI3
aI0
aa(lp900
I20
ag6
(g10
S'\x05\x00\x00\x00'
p901
tp902
Rp903
aI0
aI1
aI4
aI1
aaa(lp904
(lp905
I5
ag6
(g10
S'\x00\x00\x00\x00'
p906
tp907
Rp908
aI1
aI0
aI0
aI0
aa(lp909
I10
ag6
(g10
S'\x00\x00\x00\x00'
p910
tp911
Rp912
aI1
aI0
aI0
aI0
aa(lp913
I15
ag6
(g10
S'\x00\x00\x00\x00'
p914
tp915
Rp916
aI1
aI0
aI0
aI0
aa(lp917
I20
ag6
(g10
S'\x01\x00\x00\x00'
p918
tp919
Rp920
aI0
aI0
aI1
aI0
aaa(lp921
(lp922
I5
ag6
(g10
S'\x02\x00\x00\x00'
p923
tp924
Rp925
aI0
aI0
aI0
aI0
aa(lp926
I10
ag6
(g10
S'\x04\x00\x00\x00'
p927
tp928
Rp929
aI0
aI0
aI0
aI0
aa(lp930
I15
ag6
(g10
S'\x05\x00\x00\x00'
p931
tp932
Rp933
aI0
aI0
aI1
aI0
aa(lp934
I20
ag6
(g10
S'\x07\x00\x00\x00'
p935
tp936
Rp937
aI0
aI0
aI1
aI0
aaa(lp938
(lp939
I5
ag6
(g10
S'\x02\x00\x00\x00'
p940
tp941
Rp942
aI0
aI0
aI2
aI0
aa(lp943
I10
ag6
(g10
S'\x03\x00\x00\x00'
p944
tp945
Rp946
aI0
aI0
aI2
aI0
aa(lp947
I15
ag6
(g10
S'\x04\x00\x00\x00'
p948
tp949
Rp950
aI0
aI0
aI2
aI0
aa(lp951
I20
ag6
(g10
S'\x06\x00\x00\x00'
p952
tp953
Rp954
aI0
aI1
aI3
aI0
aaa(lp955
(lp956
I5
ag6
(g10
S'\x01\x00\x00\x00'
p957
tp958
Rp959
aI0
aI0
aI0
aI0
aa(lp960
I10
ag6
(g10
S'\x05\x00\x00\x00'
p961
tp962
Rp963
aI0
aI1
aI1
aI0
aa(lp964
I15
ag6
(g10
S'\x08\x00\x00\x00'
p965
tp966
Rp967
aI0
aI1
aI1
aI0
aa(lp968
I20
ag6
(g10
S'\n\x00\x00\x00'
p969
tp970
Rp971
aI0
aI1
aI1
aI0
aaa(lp972
(lp973
I5
ag6
(g10
S'\x00\x00\x00\x00'
p974
tp975
Rp976
aI1
aI0
aI0
aI0
aa(lp977
I10
ag6
(g10
S'\x00\x00\x00\x00'
p978
tp979
Rp980
aI1
aI0
aI0
aI0
aa(lp981
I15
ag6
(g10
S'\x00\x00\x00\x00'
p982
tp983
Rp984
aI1
aI0
aI0
aI0
aa(lp985
I20
ag6
(g10
S'\x01\x00\x00\x00'
p986
tp987
Rp988
aI0
aI0
aI0
aI0
aaa(lp989
(lp990
I5
ag6
(g10
S'\x01\x00\x00\x00'
p991
tp992
Rp993
aI0
aI0
aI0
aI0
aa(lp994
I10
ag6
(g10
S'\x03\x00\x00\x00'
p995
tp996
Rp997
aI0
aI0
aI0
aI0
aa(lp998
I15
ag6
(g10
S'\x06\x00\x00\x00'
p999
tp1000
Rp1001
aI0
aI0
aI0
aI0
aa(lp1002
I20
ag6
(g10
S'\x06\x00\x00\x00'
p1003
tp1004
Rp1005
aI0
aI0
aI0
aI0
aaa(lp1006
(lp1007
I5
ag6
(g10
S'\x01\x00\x00\x00'
p1008
tp1009
Rp1010
aI0
aI0
aI0
aI0
aa(lp1011
I10
ag6
(g10
S'\x01\x00\x00\x00'
p1012
tp1013
Rp1014
aI0
aI0
aI0
aI0
aa(lp1015
I15
ag6
(g10
S'\x01\x00\x00\x00'
p1016
tp1017
Rp1018
aI0
aI0
aI0
aI0
aa(lp1019
I20
ag6
(g10
S'\x01\x00\x00\x00'
p1020
tp1021
Rp1022
aI0
aI0
aI0
aI0
aaa(lp1023
(lp1024
I5
ag6
(g10
S'\x00\x00\x00\x00'
p1025
tp1026
Rp1027
aI1
aI0
aI0
aI0
aa(lp1028
I10
ag6
(g10
S'\x00\x00\x00\x00'
p1029
tp1030
Rp1031
aI1
aI0
aI0
aI0
aa(lp1032
I15
ag6
(g10
S'\x01\x00\x00\x00'
p1033
tp1034
Rp1035
aI0
aI0
aI0
aI0
aa(lp1036
I20
ag6
(g10
S'\x03\x00\x00\x00'
p1037
tp1038
Rp1039
aI0
aI0
aI0
aI0
aaa(lp1040
(lp1041
I5
ag6
(g10
S'\x05\x00\x00\x00'
p1042
tp1043
Rp1044
aI0
aI0
aI0
aI0
aa(lp1045
I10
ag6
(g10
S'\x07\x00\x00\x00'
p1046
tp1047
Rp1048
aI0
aI0
aI0
aI0
aa(lp1049
I15
ag6
(g10
S'\t\x00\x00\x00'
p1050
tp1051
Rp1052
aI0
aI0
aI0
aI0
aa(lp1053
I20
ag6
(g10
S'\r\x00\x00\x00'
p1054
tp1055
Rp1056
aI0
aI0
aI0
aI0
aaa(lp1057
(lp1058
I5
ag6
(g10
S'\x00\x00\x00\x00'
p1059
tp1060
Rp1061
aI1
aI0
aI0
aI0
aa(lp1062
I10
ag6
(g10
S'\x00\x00\x00\x00'
p1063
tp1064
Rp1065
aI1
aI0
aI0
aI0
aa(lp1066
I15
ag6
(g10
S'\x02\x00\x00\x00'
p1067
tp1068
Rp1069
aI0
aI0
aI0
aI0
aa(lp1070
I20
ag6
(g10
S'\x02\x00\x00\x00'
p1071
tp1072
Rp1073
aI0
aI0
aI0
aI0
aaa(lp1074
(lp1075
I5
ag6
(g10
S'\x00\x00\x00\x00'
p1076
tp1077
Rp1078
aI1
aI0
aI0
aI0
aa(lp1079
I10
ag6
(g10
S'\x04\x00\x00\x00'
p1080
tp1081
Rp1082
aI0
aI1
aI1
aI0
aa(lp1083
I15
ag6
(g10
S'\x06\x00\x00\x00'
p1084
tp1085
Rp1086
aI0
aI1
aI2
aI0
aa(lp1087
I20
ag6
(g10
S'\t\x00\x00\x00'
p1088
tp1089
Rp1090
aI0
aI1
aI2
aI0
aaa(lp1091
(lp1092
I5
ag6
(g10
S'\x02\x00\x00\x00'
p1093
tp1094
Rp1095
aI0
aI1
aI1
aI0
aa(lp1096
I10
ag6
(g10
S'\x04\x00\x00\x00'
p1097
tp1098
Rp1099
aI0
aI1
aI2
aI0
aa(lp1100
I15
ag6
(g10
S'\x07\x00\x00\x00'
p1101
tp1102
Rp1103
aI0
aI1
aI2
aI0
aa(lp1104
I20
ag6
(g10
S'\t\x00\x00\x00'
p1105
tp1106
Rp1107
aI0
aI1
aI3
aI0
aaa(lp1108
(lp1109
I5
ag6
(g10
S'\x04\x00\x00\x00'
p1110
tp1111
Rp1112
aI0
aI0
aI0
aI0
aa(lp1113
I10
ag6
(g10
S'\x07\x00\x00\x00'
p1114
tp1115
Rp1116
aI0
aI0
aI0
aI0
aa(lp1117
I15
ag6
(g10
S'\x0b\x00\x00\x00'
p1118
tp1119
Rp1120
aI0
aI1
aI1
aI0
aa(lp1121
I20
ag6
(g10
S'\x0e\x00\x00\x00'
p1122
tp1123
Rp1124
aI0
aI1
aI1
aI0
aaa(lp1125
(lp1126
I5
ag6
(g10
S'\x03\x00\x00\x00'
p1127
tp1128
Rp1129
aI0
aI1
aI1
aI1
aa(lp1130
I10
ag6
(g10
S'\x06\x00\x00\x00'
p1131
tp1132
Rp1133
aI0
aI1
aI1
aI1
aa(lp1134
I15
ag6
(g10
S'\x08\x00\x00\x00'
p1135
tp1136
Rp1137
aI0
aI1
aI1
aI1
aa(lp1138
I20
ag6
(g10
S'\n\x00\x00\x00'
p1139
tp1140
Rp1141
aI0
aI1
aI1
aI1
aaa(lp1142
(lp1143
I5
ag6
(g10
S'\x02\x00\x00\x00'
p1144
tp1145
Rp1146
aI0
aI0
aI0
aI0
aa(lp1147
I10
ag6
(g10
S'\x03\x00\x00\x00'
p1148
tp1149
Rp1150
aI0
aI0
aI0
aI0
aa(lp1151
I15
ag6
(g10
S'\x05\x00\x00\x00'
p1152
tp1153
Rp1154
aI0
aI0
aI0
aI0
aa(lp1155
I20
ag6
(g10
S'\x08\x00\x00\x00'
p1156
tp1157
Rp1158
aI0
aI0
aI0
aI0
aaa(lp1159
(lp1160
I5
ag6
(g10
S'\x02\x00\x00\x00'
p1161
tp1162
Rp1163
aI0
aI0
aI0
aI0
aa(lp1164
I10
ag6
(g10
S'\x02\x00\x00\x00'
p1165
tp1166
Rp1167
aI0
aI0
aI0
aI0
aa(lp1168
I15
ag6
(g10
S'\x03\x00\x00\x00'
p1169
tp1170
Rp1171
aI0
aI0
aI0
aI0
aa(lp1172
I20
ag6
(g10
S'\x04\x00\x00\x00'
p1173
tp1174
Rp1175
aI0
aI0
aI0
aI0
aaa(lp1176
(lp1177
I5
ag6
(g10
S'\x01\x00\x00\x00'
p1178
tp1179
Rp1180
aI0
aI0
aI0
aI0
aa(lp1181
I10
ag6
(g10
S'\x02\x00\x00\x00'
p1182
tp1183
Rp1184
aI0
aI0
aI0
aI0
aa(lp1185
I15
ag6
(g10
S'\x04\x00\x00\x00'
p1186
tp1187
Rp1188
aI0
aI0
aI0
aI0
aa(lp1189
I20
ag6
(g10
S'\x07\x00\x00\x00'
p1190
tp1191
Rp1192
aI0
aI0
aI0
aI0
aaa(lp1193
(lp1194
I5
ag6
(g10
S'\x00\x00\x00\x00'
p1195
tp1196
Rp1197
aI1
aI0
aI0
aI0
aa(lp1198
I10
ag6
(g10
S'\x00\x00\x00\x00'
p1199
tp1200
Rp1201
aI1
aI0
aI0
aI0
aa(lp1202
I15
ag6
(g10
S'\x00\x00\x00\x00'
p1203
tp1204
Rp1205
aI1
aI0
aI0
aI0
aa(lp1206
I20
ag6
(g10
S'\x00\x00\x00\x00'
p1207
tp1208
Rp1209
aI1
aI0
aI0
aI0
aaa(lp1210
(lp1211
I5
ag6
(g10
S'\x02\x00\x00\x00'
p1212
tp1213
Rp1214
aI0
aI1
aI1
aI0
aa(lp1215
I10
ag6
(g10
S'\x06\x00\x00\x00'
p1216
tp1217
Rp1218
aI0
aI1
aI1
aI0
aa(lp1219
I15
ag6
(g10
S'\x07\x00\x00\x00'
p1220
tp1221
Rp1222
aI0
aI1
aI2
aI0
aa(lp1223
I20
ag6
(g10
S'\t\x00\x00\x00'
p1224
tp1225
Rp1226
aI0
aI1
aI2
aI0
aaa(lp1227
(lp1228
I5
ag6
(g10
S'\x03\x00\x00\x00'
p1229
tp1230
Rp1231
aI0
aI1
aI1
aI0
aa(lp1232
I10
ag6
(g10
S'\x06\x00\x00\x00'
p1233
tp1234
Rp1235
aI0
aI1
aI1
aI0
aa(lp1236
I15
ag6
(g10
S'\x08\x00\x00\x00'
p1237
tp1238
Rp1239
aI0
aI1
aI1
aI0
aa(lp1240
I20
ag6
(g10
S'\t\x00\x00\x00'
p1241
tp1242
Rp1243
aI0
aI1
aI1
aI0
aaa(lp1244
(lp1245
I5
ag6
(g10
S'\x04\x00\x00\x00'
p1246
tp1247
Rp1248
aI0
aI1
aI1
aI0
aa(lp1249
I10
ag6
(g10
S'\x06\x00\x00\x00'
p1250
tp1251
Rp1252
aI0
aI1
aI1
aI0
aa(lp1253
I15
ag6
(g10
S'\x0b\x00\x00\x00'
p1254
tp1255
Rp1256
aI0
aI1
aI1
aI0
aa(lp1257
I20
ag6
(g10
S'\x0e\x00\x00\x00'
p1258
tp1259
Rp1260
aI0
aI1
aI1
aI0
aaa(lp1261
(lp1262
I5
ag6
(g10
S'\x00\x00\x00\x00'
p1263
tp1264
Rp1265
aI1
aI0
aI1
aI0
aa(lp1266
I10
ag6
(g10
S'\x00\x00\x00\x00'
p1267
tp1268
Rp1269
aI1
aI0
aI1
aI0
aa(lp1270
I15
ag6
(g10
S'\x02\x00\x00\x00'
p1271
tp1272
Rp1273
aI0
aI0
aI1
aI0
aa(lp1274
I20
ag6
(g10
S'\x03\x00\x00\x00'
p1275
tp1276
Rp1277
aI0
aI0
aI1
aI0
aaa(lp1278
(lp1279
I5
ag6
(g10
S'\x01\x00\x00\x00'
p1280
tp1281
Rp1282
aI0
aI0
aI0
aI0
aa(lp1283
I10
ag6
(g10
S'\x03\x00\x00\x00'
p1284
tp1285
Rp1286
aI0
aI0
aI0
aI0
aa(lp1287
I15
ag6
(g10
S'\x05\x00\x00\x00'
p1288
tp1289
Rp1290
aI0
aI1
aI1
aI0
aa(lp1291
I20
ag6
(g10
S'\x07\x00\x00\x00'
p1292
tp1293
Rp1294
aI0
aI1
aI1
aI0
aaa(lp1295
(lp1296
I5
ag6
(g10
S'\x02\x00\x00\x00'
p1297
tp1298
Rp1299
aI0
aI0
aI0
aI0
aa(lp1300
I10
ag6
(g10
S'\x06\x00\x00\x00'
p1301
tp1302
Rp1303
aI0
aI1
aI1
aI0
aa(lp1304
I15
ag6
(g10
S'\x08\x00\x00\x00'
p1305
tp1306
Rp1307
aI0
aI1
aI1
aI0
aa(lp1308
I20
ag6
(g10
S'\t\x00\x00\x00'
p1309
tp1310
Rp1311
aI0
aI1
aI1
aI0
aaa(lp1312
(lp1313
I5
ag6
(g10
S'\x03\x00\x00\x00'
p1314
tp1315
Rp1316
aI0
aI0
aI1
aI0
aa(lp1317
I10
ag6
(g10
S'\x04\x00\x00\x00'
p1318
tp1319
Rp1320
aI0
aI0
aI2
aI0
aa(lp1321
I15
ag6
(g10
S'\x06\x00\x00\x00'
p1322
tp1323
Rp1324
aI0
aI1
aI4
aI0
aa(lp1325
I20
ag6
(g10
S'\t\x00\x00\x00'
p1326
tp1327
Rp1328
aI0
aI1
aI5
aI0
aaa(lp1329
(lp1330
I5
ag6
(g10
S'\x02\x00\x00\x00'
p1331
tp1332
Rp1333
aI0
aI0
aI1
aI0
aa(lp1334
I10
ag6
(g10
S'\x04\x00\x00\x00'
p1335
tp1336
Rp1337
aI0
aI0
aI2
aI0
aa(lp1338
I15
ag6
(g10
S'\x06\x00\x00\x00'
p1339
tp1340
Rp1341
aI0
aI0
aI2
aI0
aa(lp1342
I20
ag6
(g10
S'\n\x00\x00\x00'
p1343
tp1344
Rp1345
aI0
aI0
aI2
aI0
aaa(lp1346
(lp1347
I5
ag6
(g10
S'\x02\x00\x00\x00'
p1348
tp1349
Rp1350
aI0
aI0
aI0
aI0
aa(lp1351
I10
ag6
(g10
S'\x05\x00\x00\x00'
p1352
tp1353
Rp1354
aI0
aI1
aI1
aI0
aa(lp1355
I15
ag6
(g10
S'\x05\x00\x00\x00'
p1356
tp1357
Rp1358
aI0
aI1
aI1
aI0
aa(lp1359
I20
ag6
(g10
S'\x06\x00\x00\x00'
p1360
tp1361
Rp1362
aI0
aI1
aI1
aI0
aaa(lp1363
(lp1364
I5
ag6
(g10
S'\x01\x00\x00\x00'
p1365
tp1366
Rp1367
aI0
aI0
aI0
aI0
aa(lp1368
I10
ag6
(g10
S'\x04\x00\x00\x00'
p1369
tp1370
Rp1371
aI0
aI0
aI0
aI0
aa(lp1372
I15
ag6
(g10
S'\x06\x00\x00\x00'
p1373
tp1374
Rp1375
aI0
aI0
aI0
aI0
aa(lp1376
I20
ag6
(g10
S'\x06\x00\x00\x00'
p1377
tp1378
Rp1379
aI0
aI0
aI0
aI0
aaa(lp1380
(lp1381
I5
ag6
(g10
S'\x04\x00\x00\x00'
p1382
tp1383
Rp1384
aI0
aI0
aI0
aI0
aa(lp1385
I10
ag6
(g10
S'\x05\x00\x00\x00'
p1386
tp1387
Rp1388
aI0
aI0
aI2
aI0
aa(lp1389
I15
ag6
(g10
S'\x06\x00\x00\x00'
p1390
tp1391
Rp1392
aI0
aI0
aI3
aI0
aa(lp1393
I20
ag6
(g10
S'\x07\x00\x00\x00'
p1394
tp1395
Rp1396
aI0
aI0
aI3
aI0
aaa(lp1397
(lp1398
I5
ag6
(g10
S'\x03\x00\x00\x00'
p1399
tp1400
Rp1401
aI0
aI1
aI1
aI0
aa(lp1402
I10
ag6
(g10
S'\x03\x00\x00\x00'
p1403
tp1404
Rp1405
aI0
aI1
aI2
aI0
aa(lp1406
I15
ag6
(g10
S'\x04\x00\x00\x00'
p1407
tp1408
Rp1409
aI0
aI1
aI2
aI0
aa(lp1410
I20
ag6
(g10
S'\x07\x00\x00\x00'
p1411
tp1412
Rp1413
aI0
aI1
aI2
aI0
aaa(lp1414
(lp1415
I5
ag6
(g10
S'\x02\x00\x00\x00'
p1416
tp1417
Rp1418
aI0
aI0
aI0
aI0
aa(lp1419
I10
ag6
(g10
S'\x04\x00\x00\x00'
p1420
tp1421
Rp1422
aI0
aI0
aI1
aI0
aa(lp1423
I15
ag6
(g10
S'\x06\x00\x00\x00'
p1424
tp1425
Rp1426
aI0
aI1
aI2
aI0
aa(lp1427
I20
ag6
(g10
S'\x07\x00\x00\x00'
p1428
tp1429
Rp1430
aI0
aI1
aI3
aI0
aaa(lp1431
(lp1432
I5
ag6
(g10
S'\x04\x00\x00\x00'
p1433
tp1434
Rp1435
aI0
aI0
aI0
aI0
aa(lp1436
I10
ag6
(g10
S'\x05\x00\x00\x00'
p1437
tp1438
Rp1439
aI0
aI0
aI1
aI0
aa(lp1440
I15
ag6
(g10
S'\x08\x00\x00\x00'
p1441
tp1442
Rp1443
aI0
aI1
aI2
aI0
aa(lp1444
I20
ag6
(g10
S'\x08\x00\x00\x00'
p1445
tp1446
Rp1447
aI0
aI1
aI3
aI0
aaa(lp1448
(lp1449
I5
ag6
(g10
S'\x01\x00\x00\x00'
p1450
tp1451
Rp1452
aI0
aI0
aI1
aI0
aa(lp1453
I10
ag6
(g10
S'\x01\x00\x00\x00'
p1454
tp1455
Rp1456
aI0
aI0
aI3
aI0
aa(lp1457
I15
ag6
(g10
S'\x02\x00\x00\x00'
p1458
tp1459
Rp1460
aI0
aI0
aI4
aI0
aa(lp1461
I20
ag6
(g10
S'\x03\x00\x00\x00'
p1462
tp1463
Rp1464
aI0
aI0
aI5
aI1
aaa(lp1465
(lp1466
I5
ag6
(g10
S'\x00\x00\x00\x00'
p1467
tp1468
Rp1469
aI1
aI0
aI0
aI0
aa(lp1470
I10
ag6
(g10
S'\x00\x00\x00\x00'
p1471
tp1472
Rp1473
aI1
aI0
aI1
aI0
aa(lp1474
I15
ag6
(g10
S'\x01\x00\x00\x00'
p1475
tp1476
Rp1477
aI0
aI0
aI1
aI0
aa(lp1478
I20
ag6
(g10
S'\x01\x00\x00\x00'
p1479
tp1480
Rp1481
aI0
aI0
aI1
aI0
aaa(lp1482
(lp1483
I5
ag6
(g10
S'\x03\x00\x00\x00'
p1484
tp1485
Rp1486
aI0
aI0
aI0
aI0
aa(lp1487
I10
ag6
(g10
S'\x07\x00\x00\x00'
p1488
tp1489
Rp1490
aI0
aI0
aI0
aI0
aa(lp1491
I15
ag6
(g10
S'\x0b\x00\x00\x00'
p1492
tp1493
Rp1494
aI0
aI0
aI0
aI0
aa(lp1495
I20
ag6
(g10
S'\r\x00\x00\x00'
p1496
tp1497
Rp1498
aI0
aI0
aI1
aI0
aaa(lp1499
(lp1500
I5
ag6
(g10
S'\x01\x00\x00\x00'
p1501
tp1502
Rp1503
aI0
aI0
aI1
aI0
aa(lp1504
I10
ag6
(g10
S'\x04\x00\x00\x00'
p1505
tp1506
Rp1507
aI0
aI0
aI1
aI0
aa(lp1508
I15
ag6
(g10
S'\x06\x00\x00\x00'
p1509
tp1510
Rp1511
aI0
aI0
aI1
aI0
aa(lp1512
I20
ag6
(g10
S'\x08\x00\x00\x00'
p1513
tp1514
Rp1515
aI0
aI0
aI1
aI0
aaa(lp1516
(lp1517
I5
ag6
(g10
S'\x04\x00\x00\x00'
p1518
tp1519
Rp1520
aI0
aI1
aI1
aI0
aa(lp1521
I10
ag6
(g10
S'\x06\x00\x00\x00'
p1522
tp1523
Rp1524
aI0
aI1
aI2
aI0
aa(lp1525
I15
ag6
(g10
S'\x07\x00\x00\x00'
p1526
tp1527
Rp1528
aI0
aI1
aI3
aI0
aa(lp1529
I20
ag6
(g10
S'\t\x00\x00\x00'
p1530
tp1531
Rp1532
aI0
aI1
aI4
aI0
aaa(lp1533
(lp1534
I5
ag6
(g10
S'\x04\x00\x00\x00'
p1535
tp1536
Rp1537
aI0
aI0
aI1
aI0
aa(lp1538
I10
ag6
(g10
S'\x06\x00\x00\x00'
p1539
tp1540
Rp1541
aI0
aI0
aI1
aI0
aa(lp1542
I15
ag6
(g10
S'\n\x00\x00\x00'
p1543
tp1544
Rp1545
aI0
aI0
aI1
aI0
aa(lp1546
I20
ag6
(g10
S'\x0c\x00\x00\x00'
p1547
tp1548
Rp1549
aI0
aI0
aI1
aI0
aaa(lp1550
(lp1551
I5
ag6
(g10
S'\x03\x00\x00\x00'
p1552
tp1553
Rp1554
aI0
aI1
aI2
aI0
aa(lp1555
I10
ag6
(g10
S'\x06\x00\x00\x00'
p1556
tp1557
Rp1558
aI0
aI1
aI2
aI0
aa(lp1559
I15
ag6
(g10
S'\x08\x00\x00\x00'
p1560
tp1561
Rp1562
aI0
aI1
aI2
aI0
aa(lp1563
I20
ag6
(g10
S'\t\x00\x00\x00'
p1564
tp1565
Rp1566
aI0
aI1
aI2
aI0
aaa(lp1567
(lp1568
I5
ag6
(g10
S'\x00\x00\x00\x00'
p1569
tp1570
Rp1571
aI1
aI0
aI0
aI0
aa(lp1572
I10
ag6
(g10
S'\x01\x00\x00\x00'
p1573
tp1574
Rp1575
aI0
aI1
aI1
aI0
aa(lp1576
I15
ag6
(g10
S'\x03\x00\x00\x00'
p1577
tp1578
Rp1579
aI0
aI1
aI1
aI0
aa(lp1580
I20
ag6
(g10
S'\x04\x00\x00\x00'
p1581
tp1582
Rp1583
aI0
aI1
aI1
aI0
aaa(lp1584
(lp1585
I5
ag6
(g10
S'\x05\x00\x00\x00'
p1586
tp1587
Rp1588
aI0
aI0
aI0
aI0
aa(lp1589
I10
ag6
(g10
S'\n\x00\x00\x00'
p1590
tp1591
Rp1592
aI0
aI0
aI0
aI0
aa(lp1593
I15
ag6
(g10
S'\x0e\x00\x00\x00'
p1594
tp1595
Rp1596
aI0
aI1
aI1
aI0
aa(lp1597
I20
ag6
(g10
S'\x13\x00\x00\x00'
p1598
tp1599
Rp1600
aI0
aI1
aI1
aI0
aaa(lp1601
(lp1602
I5
ag6
(g10
S'\x02\x00\x00\x00'
p1603
tp1604
Rp1605
aI0
aI1
aI2
aI0
aa(lp1606
I10
ag6
(g10
S'\x03\x00\x00\x00'
p1607
tp1608
Rp1609
aI0
aI1
aI2
aI0
aa(lp1610
I15
ag6
(g10
S'\x06\x00\x00\x00'
p1611
tp1612
Rp1613
aI0
aI1
aI2
aI0
aa(lp1614
I20
ag6
(g10
S'\x06\x00\x00\x00'
p1615
tp1616
Rp1617
aI0
aI1
aI2
aI0
aaa(lp1618
(lp1619
I5
ag6
(g10
S'\x01\x00\x00\x00'
p1620
tp1621
Rp1622
aI0
aI0
aI2
aI0
aa(lp1623
I10
ag6
(g10
S'\x04\x00\x00\x00'
p1624
tp1625
Rp1626
aI0
aI1
aI3
aI0
aa(lp1627
I15
ag6
(g10
S'\x05\x00\x00\x00'
p1628
tp1629
Rp1630
aI0
aI1
aI3
aI0
aa(lp1631
I20
ag6
(g10
S'\x07\x00\x00\x00'
p1632
tp1633
Rp1634
aI0
aI1
aI3
aI0
aaa(lp1635
(lp1636
I5
ag6
(g10
S'\x05\x00\x00\x00'
p1637
tp1638
Rp1639
aI0
aI0
aI0
aI0
aa(lp1640
I10
ag6
(g10
S'\n\x00\x00\x00'
p1641
tp1642
Rp1643
aI0
aI0
aI0
aI0
aa(lp1644
I15
ag6
(g10
S'\x0e\x00\x00\x00'
p1645
tp1646
Rp1647
aI0
aI0
aI0
aI0
aa(lp1648
I20
ag6
(g10
S'\x13\x00\x00\x00'
p1649
tp1650
Rp1651
aI0
aI1
aI1
aI0
aaa(lp1652
(lp1653
I5
ag6
(g10
S'\x05\x00\x00\x00'
p1654
tp1655
Rp1656
aI0
aI1
aI1
aI0
aa(lp1657
I10
ag6
(g10
S'\x07\x00\x00\x00'
p1658
tp1659
Rp1660
aI0
aI1
aI1
aI0
aa(lp1661
I15
ag6
(g10
S'\n\x00\x00\x00'
p1662
tp1663
Rp1664
aI0
aI1
aI1
aI0
aa(lp1665
I20
ag6
(g10
S'\x0c\x00\x00\x00'
p1666
tp1667
Rp1668
aI0
aI1
aI1
aI0
aaa(lp1669
(lp1670
I5
ag6
(g10
S'\x03\x00\x00\x00'
p1671
tp1672
Rp1673
aI0
aI0
aI0
aI0
aa(lp1674
I10
ag6
(g10
S'\x06\x00\x00\x00'
p1675
tp1676
Rp1677
aI0
aI0
aI0
aI0
aa(lp1678
I15
ag6
(g10
S'\x0b\x00\x00\x00'
p1679
tp1680
Rp1681
aI0
aI0
aI0
aI0
aa(lp1682
I20
ag6
(g10
S'\x0f\x00\x00\x00'
p1683
tp1684
Rp1685
aI0
aI1
aI1
aI0
aaa(lp1686
(lp1687
I5
ag6
(g10
S'\x01\x00\x00\x00'
p1688
tp1689
Rp1690
aI0
aI0
aI0
aI0
aa(lp1691
I10
ag6
(g10
S'\x02\x00\x00\x00'
p1692
tp1693
Rp1694
aI0
aI0
aI0
aI0
aa(lp1695
I15
ag6
(g10
S'\x03\x00\x00\x00'
p1696
tp1697
Rp1698
aI0
aI0
aI0
aI0
aa(lp1699
I20
ag6
(g10
S'\x05\x00\x00\x00'
p1700
tp1701
Rp1702
aI0
aI0
aI0
aI0
aaa(lp1703
(lp1704
I5
ag6
(g10
S'\x05\x00\x00\x00'
p1705
tp1706
Rp1707
aI0
aI0
aI0
aI0
aa(lp1708
I10
ag6
(g10
S'\t\x00\x00\x00'
p1709
tp1710
Rp1711
aI0
aI1
aI2
aI0
aa(lp1712
I15
ag6
(g10
S'\r\x00\x00\x00'
p1713
tp1714
Rp1715
aI0
aI1
aI3
aI0
aa(lp1716
I20
ag6
(g10
S'\x12\x00\x00\x00'
p1717
tp1718
Rp1719
aI0
aI1
aI3
aI0
aaa(lp1720
(lp1721
I5
ag6
(g10
S'\x00\x00\x00\x00'
p1722
tp1723
Rp1724
aI1
aI0
aI0
aI0
aa(lp1725
I10
ag6
(g10
S'\x01\x00\x00\x00'
p1726
tp1727
Rp1728
aI0
aI0
aI0
aI0
aa(lp1729
I15
ag6
(g10
S'\x01\x00\x00\x00'
p1730
tp1731
Rp1732
aI0
aI0
aI0
aI0
aa(lp1733
I20
ag6
(g10
S'\x03\x00\x00\x00'
p1734
tp1735
Rp1736
aI0
aI0
aI0
aI0
aaa(lp1737
(lp1738
I5
ag6
(g10
S'\x00\x00\x00\x00'
p1739
tp1740
Rp1741
aI1
aI0
aI0
aI0
aa(lp1742
I10
ag6
(g10
S'\x00\x00\x00\x00'
p1743
tp1744
Rp1745
aI1
aI0
aI0
aI0
aa(lp1746
I15
ag6
(g10
S'\x00\x00\x00\x00'
p1747
tp1748
Rp1749
aI1
aI0
aI0
aI0
aa(lp1750
I20
ag6
(g10
S'\x02\x00\x00\x00'
p1751
tp1752
Rp1753
aI0
aI0
aI0
aI0
aaa(lp1754
(lp1755
I5
ag6
(g10
S'\x02\x00\x00\x00'
p1756
tp1757
Rp1758
aI0
aI0
aI0
aI0
aa(lp1759
I10
ag6
(g10
S'\x04\x00\x00\x00'
p1760
tp1761
Rp1762
aI0
aI0
aI1
aI0
aa(lp1763
I15
ag6
(g10
S'\x05\x00\x00\x00'
p1764
tp1765
Rp1766
aI0
aI0
aI2
aI0
aa(lp1767
I20
ag6
(g10
S'\x06\x00\x00\x00'
p1768
tp1769
Rp1770
aI0
aI0
aI2
aI0
aaa(lp1771
(lp1772
I5
ag6
(g10
S'\x01\x00\x00\x00'
p1773
tp1774
Rp1775
aI0
aI0
aI1
aI0
aa(lp1776
I10
ag6
(g10
S'\x02\x00\x00\x00'
p1777
tp1778
Rp1779
aI0
aI0
aI1
aI0
aa(lp1780
I15
ag6
(g10
S'\x06\x00\x00\x00'
p1781
tp1782
Rp1783
aI0
aI1
aI2
aI0
aa(lp1784
I20
ag6
(g10
S'\n\x00\x00\x00'
p1785
tp1786
Rp1787
aI0
aI1
aI2
aI0
aaa(lp1788
(lp1789
I5
ag6
(g10
S'\x04\x00\x00\x00'
p1790
tp1791
Rp1792
aI0
aI1
aI2
aI0
aa(lp1793
I10
ag6
(g10
S'\t\x00\x00\x00'
p1794
tp1795
Rp1796
aI0
aI1
aI2
aI0
aa(lp1797
I15
ag6
(g10
S'\x0e\x00\x00\x00'
p1798
tp1799
Rp1800
aI0
aI1
aI2
aI0
aa(lp1801
I20
ag6
(g10
S'\x12\x00\x00\x00'
p1802
tp1803
Rp1804
aI0
aI1
aI2
aI0
aaa(lp1805
(lp1806
I5
ag6
(g10
S'\x00\x00\x00\x00'
p1807
tp1808
Rp1809
aI1
aI0
aI0
aI0
aa(lp1810
I10
ag6
(g10
S'\x00\x00\x00\x00'
p1811
tp1812
Rp1813
aI1
aI0
aI0
aI0
aa(lp1814
I15
ag6
(g10
S'\x00\x00\x00\x00'
p1815
tp1816
Rp1817
aI1
aI0
aI0
aI0
aa(lp1818
I20
ag6
(g10
S'\x00\x00\x00\x00'
p1819
tp1820
Rp1821
aI1
aI0
aI0
aI0
aaa(lp1822
(lp1823
I5
ag6
(g10
S'\x01\x00\x00\x00'
p1824
tp1825
Rp1826
aI0
aI0
aI0
aI0
aa(lp1827
I10
ag6
(g10
S'\x03\x00\x00\x00'
p1828
tp1829
Rp1830
aI0
aI0
aI1
aI0
aa(lp1831
I15
ag6
(g10
S'\x07\x00\x00\x00'
p1832
tp1833
Rp1834
aI0
aI0
aI1
aI0
aa(lp1835
I20
ag6
(g10
S'\n\x00\x00\x00'
p1836
tp1837
Rp1838
aI0
aI0
aI2
aI0
aaa(lp1839
(lp1840
I5
ag6
(g10
S'\x05\x00\x00\x00'
p1841
tp1842
Rp1843
aI0
aI0
aI0
aI0
aa(lp1844
I10
ag6
(g10
S'\n\x00\x00\x00'
p1845
tp1846
Rp1847
aI0
aI0
aI0
aI0
aa(lp1848
I15
ag6
(g10
S'\r\x00\x00\x00'
p1849
tp1850
Rp1851
aI0
aI0
aI0
aI0
aa(lp1852
I20
ag6
(g10
S'\x10\x00\x00\x00'
p1853
tp1854
Rp1855
aI0
aI0
aI1
aI0
aaa(lp1856
(lp1857
I5
ag6
(g10
S'\x01\x00\x00\x00'
p1858
tp1859
Rp1860
aI0
aI0
aI0
aI0
aa(lp1861
I10
ag6
(g10
S'\x03\x00\x00\x00'
p1862
tp1863
Rp1864
aI0
aI0
aI0
aI0
aa(lp1865
I15
ag6
(g10
S'\x05\x00\x00\x00'
p1866
tp1867
Rp1868
aI0
aI0
aI1
aI0
aa(lp1869
I20
ag6
(g10
S'\t\x00\x00\x00'
p1870
tp1871
Rp1872
aI0
aI0
aI2
aI0
aaa(lp1873
(lp1874
I5
ag6
(g10
S'\x00\x00\x00\x00'
p1875
tp1876
Rp1877
aI1
aI0
aI0
aI0
aa(lp1878
I10
ag6
(g10
S'\x00\x00\x00\x00'
p1879
tp1880
Rp1881
aI1
aI0
aI0
aI0
aa(lp1882
I15
ag6
(g10
S'\x01\x00\x00\x00'
p1883
tp1884
Rp1885
aI0
aI0
aI0
aI0
aa(lp1886
I20
ag6
(g10
S'\x01\x00\x00\x00'
p1887
tp1888
Rp1889
aI0
aI0
aI0
aI0
aaa(lp1890
(lp1891
I5
ag6
(g10
S'\x00\x00\x00\x00'
p1892
tp1893
Rp1894
aI1
aI0
aI0
aI0
aa(lp1895
I10
ag6
(g10
S'\x01\x00\x00\x00'
p1896
tp1897
Rp1898
aI0
aI0
aI0
aI0
aa(lp1899
I15
ag6
(g10
S'\x02\x00\x00\x00'
p1900
tp1901
Rp1902
aI0
aI0
aI0
aI0
aa(lp1903
I20
ag6
(g10
S'\x02\x00\x00\x00'
p1904
tp1905
Rp1906
aI0
aI0
aI0
aI0
aaa(lp1907
(lp1908
I5
ag6
(g10
S'\x03\x00\x00\x00'
p1909
tp1910
Rp1911
aI0
aI0
aI0
aI0
aa(lp1912
I10
ag6
(g10
S'\x07\x00\x00\x00'
p1913
tp1914
Rp1915
aI0
aI0
aI0
aI0
aa(lp1916
I15
ag6
(g10
S'\n\x00\x00\x00'
p1917
tp1918
Rp1919
aI0
aI0
aI0
aI0
aa(lp1920
I20
ag6
(g10
S'\r\x00\x00\x00'
p1921
tp1922
Rp1923
aI0
aI0
aI0
aI0
aaa(lp1924
(lp1925
I5
ag6
(g10
S'\x01\x00\x00\x00'
p1926
tp1927
Rp1928
aI0
aI0
aI0
aI0
aa(lp1929
I10
ag6
(g10
S'\x01\x00\x00\x00'
p1930
tp1931
Rp1932
aI0
aI0
aI0
aI0
aa(lp1933
I15
ag6
(g10
S'\x03\x00\x00\x00'
p1934
tp1935
Rp1936
aI0
aI0
aI0
aI0
aa(lp1937
I20
ag6
(g10
S'\x03\x00\x00\x00'
p1938
tp1939
Rp1940
aI0
aI0
aI1
aI0
aaa(lp1941
(lp1942
I5
ag6
(g10
S'\x01\x00\x00\x00'
p1943
tp1944
Rp1945
aI0
aI1
aI1
aI0
aa(lp1946
I10
ag6
(g10
S'\x03\x00\x00\x00'
p1947
tp1948
Rp1949
aI0
aI1
aI1
aI0
aa(lp1950
I15
ag6
(g10
S'\x04\x00\x00\x00'
p1951
tp1952
Rp1953
aI0
aI1
aI1
aI0
aa(lp1954
I20
ag6
(g10
S'\x05\x00\x00\x00'
p1955
tp1956
Rp1957
aI0
aI1
aI1
aI0
aaa(lp1958
(lp1959
I5
ag6
(g10
S'\x05\x00\x00\x00'
p1960
tp1961
Rp1962
aI0
aI1
aI1
aI0
aa(lp1963
I10
ag6
(g10
S'\n\x00\x00\x00'
p1964
tp1965
Rp1966
aI0
aI1
aI1
aI0
aa(lp1967
I15
ag6
(g10
S'\x0f\x00\x00\x00'
p1968
tp1969
Rp1970
aI0
aI1
aI1
aI0
aa(lp1971
I20
ag6
(g10
S'\x13\x00\x00\x00'
p1972
tp1973
Rp1974
aI0
aI1
aI1
aI0
aaa(lp1975
(lp1976
I5
ag6
(g10
S'\x02\x00\x00\x00'
p1977
tp1978
Rp1979
aI0
aI0
aI0
aI0
aa(lp1980
I10
ag6
(g10
S'\x03\x00\x00\x00'
p1981
tp1982
Rp1983
aI0
aI1
aI1
aI0
aa(lp1984
I15
ag6
(g10
S'\x05\x00\x00\x00'
p1985
tp1986
Rp1987
aI0
aI1
aI2
aI0
aa(lp1988
I20
ag6
(g10
S'\x07\x00\x00\x00'
p1989
tp1990
Rp1991
aI0
aI1
aI2
aI0
aaa(lp1992
(lp1993
I5
ag6
(g10
S'\x01\x00\x00\x00'
p1994
tp1995
Rp1996
aI0
aI0
aI1
aI0
aa(lp1997
I10
ag6
(g10
S'\x02\x00\x00\x00'
p1998
tp1999
Rp2000
aI0
aI0
aI1
aI0
aa(lp2001
I15
ag6
(g10
S'\x02\x00\x00\x00'
p2002
tp2003
Rp2004
aI0
aI0
aI1
aI0
aa(lp2005
I20
ag6
(g10
S'\x05\x00\x00\x00'
p2006
tp2007
Rp2008
aI0
aI0
aI2
aI0
aaa(lp2009
(lp2010
I5
ag6
(g10
S'\x03\x00\x00\x00'
p2011
tp2012
Rp2013
aI0
aI0
aI0
aI0
aa(lp2014
I10
ag6
(g10
S'\x06\x00\x00\x00'
p2015
tp2016
Rp2017
aI0
aI0
aI0
aI0
aa(lp2018
I15
ag6
(g10
S'\x07\x00\x00\x00'
p2019
tp2020
Rp2021
aI0
aI1
aI1
aI0
aa(lp2022
I20
ag6
(g10
S'\x08\x00\x00\x00'
p2023
tp2024
Rp2025
aI0
aI1
aI1
aI0
aaa(lp2026
(lp2027
I5
ag6
(g10
S'\x00\x00\x00\x00'
p2028
tp2029
Rp2030
aI1
aI0
aI0
aI0
aa(lp2031
I10
ag6
(g10
S'\x01\x00\x00\x00'
p2032
tp2033
Rp2034
aI0
aI0
aI0
aI0
aa(lp2035
I15
ag6
(g10
S'\x01\x00\x00\x00'
p2036
tp2037
Rp2038
aI0
aI0
aI0
aI0
aa(lp2039
I20
ag6
(g10
S'\x03\x00\x00\x00'
p2040
tp2041
Rp2042
aI0
aI1
aI1
aI0
aaa(lp2043
(lp2044
I5
ag6
(g10
S'\x00\x00\x00\x00'
p2045
tp2046
Rp2047
aI1
aI0
aI0
aI0
aa(lp2048
I10
ag6
(g10
S'\x00\x00\x00\x00'
p2049
tp2050
Rp2051
aI1
aI0
aI0
aI0
aa(lp2052
I15
ag6
(g10
S'\x01\x00\x00\x00'
p2053
tp2054
Rp2055
aI0
aI0
aI0
aI0
aa(lp2056
I20
ag6
(g10
S'\x02\x00\x00\x00'
p2057
tp2058
Rp2059
aI0
aI0
aI0
aI0
aaa(lp2060
(lp2061
I5
ag6
(g10
S'\x01\x00\x00\x00'
p2062
tp2063
Rp2064
aI0
aI0
aI0
aI0
aa(lp2065
I10
ag6
(g10
S'\x03\x00\x00\x00'
p2066
tp2067
Rp2068
aI0
aI0
aI0
aI0
aa(lp2069
I15
ag6
(g10
S'\x03\x00\x00\x00'
p2070
tp2071
Rp2072
aI0
aI0
aI0
aI0
aa(lp2073
I20
ag6
(g10
S'\x04\x00\x00\x00'
p2074
tp2075
Rp2076
aI0
aI0
aI0
aI0
aaa(lp2077
(lp2078
I5
ag6
(g10
S'\x03\x00\x00\x00'
p2079
tp2080
Rp2081
aI0
aI0
aI0
aI0
aa(lp2082
I10
ag6
(g10
S'\x05\x00\x00\x00'
p2083
tp2084
Rp2085
aI0
aI0
aI1
aI0
aa(lp2086
I15
ag6
(g10
S'\x06\x00\x00\x00'
p2087
tp2088
Rp2089
aI0
aI0
aI1
aI0
aa(lp2090
I20
ag6
(g10
S'\x07\x00\x00\x00'
p2091
tp2092
Rp2093
aI0
aI0
aI1
aI0
aaa(lp2094
(lp2095
I5
ag6
(g10
S'\x02\x00\x00\x00'
p2096
tp2097
Rp2098
aI0
aI0
aI0
aI0
aa(lp2099
I10
ag6
(g10
S'\x03\x00\x00\x00'
p2100
tp2101
Rp2102
aI0
aI1
aI1
aI1
aa(lp2103
I15
ag6
(g10
S'\x05\x00\x00\x00'
p2104
tp2105
Rp2106
aI0
aI1
aI1
aI1
aa(lp2107
I20
ag6
(g10
S'\x08\x00\x00\x00'
p2108
tp2109
Rp2110
aI0
aI1
aI1
aI1
aaa(lp2111
(lp2112
I5
ag6
(g10
S'\x05\x00\x00\x00'
p2113
tp2114
Rp2115
aI0
aI0
aI0
aI0
aa(lp2116
I10
ag6
(g10
S'\n\x00\x00\x00'
p2117
tp2118
Rp2119
aI0
aI0
aI0
aI0
aa(lp2120
I15
ag6
(g10
S'\x0e\x00\x00\x00'
p2121
tp2122
Rp2123
aI0
aI0
aI0
aI0
aa(lp2124
I20
ag6
(g10
S'\x11\x00\x00\x00'
p2125
tp2126
Rp2127
aI0
aI0
aI1
aI0
aaa(lp2128
(lp2129
I5
ag6
(g10
S'\x05\x00\x00\x00'
p2130
tp2131
Rp2132
aI0
aI1
aI1
aI0
aa(lp2133
I10
ag6
(g10
S'\x08\x00\x00\x00'
p2134
tp2135
Rp2136
aI0
aI1
aI2
aI0
aa(lp2137
I15
ag6
(g10
S'\x0c\x00\x00\x00'
p2138
tp2139
Rp2140
aI0
aI1
aI3
aI0
aa(lp2141
I20
ag6
(g10
S'\x10\x00\x00\x00'
p2142
tp2143
Rp2144
aI0
aI1
aI3
aI0
aaa(lp2145
(lp2146
I5
ag6
(g10
S'\x03\x00\x00\x00'
p2147
tp2148
Rp2149
aI0
aI0
aI0
aI0
aa(lp2150
I10
ag6
(g10
S'\x07\x00\x00\x00'
p2151
tp2152
Rp2153
aI0
aI0
aI0
aI0
aa(lp2154
I15
ag6
(g10
S'\x0b\x00\x00\x00'
p2155
tp2156
Rp2157
aI0
aI1
aI1
aI0
aa(lp2158
I20
ag6
(g10
S'\x0e\x00\x00\x00'
p2159
tp2160
Rp2161
aI0
aI1
aI1
aI0
aaa(lp2162
(lp2163
I5
ag6
(g10
S'\x00\x00\x00\x00'
p2164
tp2165
Rp2166
aI1
aI0
aI0
aI0
aa(lp2167
I10
ag6
(g10
S'\x00\x00\x00\x00'
p2168
tp2169
Rp2170
aI1
aI0
aI0
aI0
aa(lp2171
I15
ag6
(g10
S'\x00\x00\x00\x00'
p2172
tp2173
Rp2174
aI1
aI0
aI0
aI0
aa(lp2175
I20
ag6
(g10
S'\x00\x00\x00\x00'
p2176
tp2177
Rp2178
aI1
aI0
aI0
aI0
aaa(lp2179
(lp2180
I5
ag6
(g10
S'\x00\x00\x00\x00'
p2181
tp2182
Rp2183
aI1
aI0
aI2
aI0
aa(lp2184
I10
ag6
(g10
S'\x00\x00\x00\x00'
p2185
tp2186
Rp2187
aI1
aI0
aI3
aI0
aa(lp2188
I15
ag6
(g10
S'\x00\x00\x00\x00'
p2189
tp2190
Rp2191
aI1
aI0
aI3
aI0
aa(lp2192
I20
ag6
(g10
S'\x00\x00\x00\x00'
p2193
tp2194
Rp2195
aI1
aI0
aI3
aI0
aaa(lp2196
(lp2197
I5
ag6
(g10
S'\x00\x00\x00\x00'
p2198
tp2199
Rp2200
aI1
aI0
aI0
aI0
aa(lp2201
I10
ag6
(g10
S'\x00\x00\x00\x00'
p2202
tp2203
Rp2204
aI1
aI0
aI1
aI0
aa(lp2205
I15
ag6
(g10
S'\x04\x00\x00\x00'
p2206
tp2207
Rp2208
aI0
aI0
aI1
aI0
aa(lp2209
I20
ag6
(g10
S'\x06\x00\x00\x00'
p2210
tp2211
Rp2212
aI0
aI0
aI1
aI0
aaa(lp2213
(lp2214
I5
ag6
(g10
S'\x00\x00\x00\x00'
p2215
tp2216
Rp2217
aI1
aI0
aI1
aI0
aa(lp2218
I10
ag6
(g10
S'\x02\x00\x00\x00'
p2219
tp2220
Rp2221
aI0
aI1
aI2
aI0
aa(lp2222
I15
ag6
(g10
S'\x04\x00\x00\x00'
p2223
tp2224
Rp2225
aI0
aI1
aI2
aI0
aa(lp2226
I20
ag6
(g10
S'\x06\x00\x00\x00'
p2227
tp2228
Rp2229
aI0
aI1
aI2
aI0
aaa(lp2230
(lp2231
I5
ag6
(g10
S'\x03\x00\x00\x00'
p2232
tp2233
Rp2234
aI0
aI1
aI1
aI0
aa(lp2235
I10
ag6
(g10
S'\x05\x00\x00\x00'
p2236
tp2237
Rp2238
aI0
aI1
aI2
aI0
aa(lp2239
I15
ag6
(g10
S'\x06\x00\x00\x00'
p2240
tp2241
Rp2242
aI0
aI1
aI2
aI0
aa(lp2243
I20
ag6
(g10
S'\n\x00\x00\x00'
p2244
tp2245
Rp2246
aI0
aI1
aI2
aI0
aaa(lp2247
(lp2248
I5
ag6
(g10
S'\x00\x00\x00\x00'
p2249
tp2250
Rp2251
aI1
aI0
aI0
aI0
aa(lp2252
I10
ag6
(g10
S'\x03\x00\x00\x00'
p2253
tp2254
Rp2255
aI0
aI0
aI0
aI0
aa(lp2256
I15
ag6
(g10
S'\x03\x00\x00\x00'
p2257
tp2258
Rp2259
aI0
aI0
aI0
aI0
aa(lp2260
I20
ag6
(g10
S'\x05\x00\x00\x00'
p2261
tp2262
Rp2263
aI0
aI0
aI0
aI0
aaa(lp2264
(lp2265
I5
ag6
(g10
S'\x03\x00\x00\x00'
p2266
tp2267
Rp2268
aI0
aI0
aI0
aI0
aa(lp2269
I10
ag6
(g10
S'\x06\x00\x00\x00'
p2270
tp2271
Rp2272
aI0
aI1
aI2
aI0
aa(lp2273
I15
ag6
(g10
S'\x07\x00\x00\x00'
p2274
tp2275
Rp2276
aI0
aI1
aI2
aI0
aa(lp2277
I20
ag6
(g10
S'\n\x00\x00\x00'
p2278
tp2279
Rp2280
aI0
aI1
aI2
aI0
aaa(lp2281
(lp2282
I5
ag6
(g10
S'\x01\x00\x00\x00'
p2283
tp2284
Rp2285
aI0
aI0
aI0
aI0
aa(lp2286
I10
ag6
(g10
S'\x03\x00\x00\x00'
p2287
tp2288
Rp2289
aI0
aI0
aI0
aI0
aa(lp2290
I15
ag6
(g10
S'\x06\x00\x00\x00'
p2291
tp2292
Rp2293
aI0
aI1
aI1
aI0
aa(lp2294
I20
ag6
(g10
S'\x07\x00\x00\x00'
p2295
tp2296
Rp2297
aI0
aI1
aI1
aI0
aaa(lp2298
(lp2299
I5
ag6
(g10
S'\x05\x00\x00\x00'
p2300
tp2301
Rp2302
aI0
aI0
aI0
aI0
aa(lp2303
I10
ag6
(g10
S'\t\x00\x00\x00'
p2304
tp2305
Rp2306
aI0
aI1
aI1
aI0
aa(lp2307
I15
ag6
(g10
S'\r\x00\x00\x00'
p2308
tp2309
Rp2310
aI0
aI1
aI1
aI0
aa(lp2311
I20
ag6
(g10
S'\x11\x00\x00\x00'
p2312
tp2313
Rp2314
aI0
aI1
aI1
aI0
aaa(lp2315
(lp2316
I5
ag6
(g10
S'\x00\x00\x00\x00'
p2317
tp2318
Rp2319
aI1
aI0
aI0
aI0
aa(lp2320
I10
ag6
(g10
S'\x00\x00\x00\x00'
p2321
tp2322
Rp2323
aI1
aI0
aI0
aI0
aa(lp2324
I15
ag6
(g10
S'\x00\x00\x00\x00'
p2325
tp2326
Rp2327
aI1
aI0
aI0
aI0
aa(lp2328
I20
ag6
(g10
S'\x00\x00\x00\x00'
p2329
tp2330
Rp2331
aI1
aI0
aI0
aI0
aaa(lp2332
(lp2333
I5
ag6
(g10
S'\x00\x00\x00\x00'
p2334
tp2335
Rp2336
aI1
aI0
aI0
aI0
aa(lp2337
I10
ag6
(g10
S'\x00\x00\x00\x00'
p2338
tp2339
Rp2340
aI1
aI0
aI0
aI0
aa(lp2341
I15
ag6
(g10
S'\x01\x00\x00\x00'
p2342
tp2343
Rp2344
aI0
aI0
aI0
aI0
aa(lp2345
I20
ag6
(g10
S'\x01\x00\x00\x00'
p2346
tp2347
Rp2348
aI0
aI0
aI2
aI0
aaa(lp2349
(lp2350
I5
ag6
(g10
S'\x02\x00\x00\x00'
p2351
tp2352
Rp2353
aI0
aI1
aI1
aI0
aa(lp2354
I10
ag6
(g10
S'\x04\x00\x00\x00'
p2355
tp2356
Rp2357
aI0
aI1
aI1
aI0
aa(lp2358
I15
ag6
(g10
S'\x04\x00\x00\x00'
p2359
tp2360
Rp2361
aI0
aI1
aI1
aI0
aa(lp2362
I20
ag6
(g10
S'\x04\x00\x00\x00'
p2363
tp2364
Rp2365
aI0
aI1
aI1
aI0
aaa(lp2366
(lp2367
I5
ag6
(g10
S'\x01\x00\x00\x00'
p2368
tp2369
Rp2370
aI0
aI0
aI1
aI0
aa(lp2371
I10
ag6
(g10
S'\x02\x00\x00\x00'
p2372
tp2373
Rp2374
aI0
aI0
aI1
aI0
aa(lp2375
I15
ag6
(g10
S'\x05\x00\x00\x00'
p2376
tp2377
Rp2378
aI0
aI0
aI2
aI0
aa(lp2379
I20
ag6
(g10
S'\x05\x00\x00\x00'
p2380
tp2381
Rp2382
aI0
aI0
aI2
aI0
aaa(lp2383
(lp2384
I5
ag6
(g10
S'\x04\x00\x00\x00'
p2385
tp2386
Rp2387
aI0
aI0
aI0
aI0
aa(lp2388
I10
ag6
(g10
S'\x04\x00\x00\x00'
p2389
tp2390
Rp2391
aI0
aI0
aI0
aI0
aa(lp2392
I15
ag6
(g10
S'\x06\x00\x00\x00'
p2393
tp2394
Rp2395
aI0
aI0
aI0
aI0
aa(lp2396
I20
ag6
(g10
S'\n\x00\x00\x00'
p2397
tp2398
Rp2399
aI0
aI0
aI0
aI0
aaa(lp2400
(lp2401
I5
ag6
(g10
S'\x04\x00\x00\x00'
p2402
tp2403
Rp2404
aI0
aI1
aI1
aI0
aa(lp2405
I10
ag6
(g10
S'\x08\x00\x00\x00'
p2406
tp2407
Rp2408
aI0
aI1
aI1
aI0
aa(lp2409
I15
ag6
(g10
S'\x0b\x00\x00\x00'
p2410
tp2411
Rp2412
aI0
aI1
aI1
aI0
aa(lp2413
I20
ag6
(g10
S'\r\x00\x00\x00'
p2414
tp2415
Rp2416
aI0
aI1
aI1
aI0
aaa(lp2417
(lp2418
I5
ag6
(g10
S'\x01\x00\x00\x00'
p2419
tp2420
Rp2421
aI0
aI0
aI0
aI0
aa(lp2422
I10
ag6
(g10
S'\x01\x00\x00\x00'
p2423
tp2424
Rp2425
aI0
aI0
aI0
aI0
aa(lp2426
I15
ag6
(g10
S'\x01\x00\x00\x00'
p2427
tp2428
Rp2429
aI0
aI0
aI0
aI0
aa(lp2430
I20
ag6
(g10
S'\x04\x00\x00\x00'
p2431
tp2432
Rp2433
aI0
aI0
aI0
aI0
aaa(lp2434
(lp2435
I5
ag6
(g10
S'\x02\x00\x00\x00'
p2436
tp2437
Rp2438
aI0
aI0
aI2
aI0
aa(lp2439
I10
ag6
(g10
S'\x05\x00\x00\x00'
p2440
tp2441
Rp2442
aI0
aI1
aI3
aI0
aa(lp2443
I15
ag6
(g10
S'\x08\x00\x00\x00'
p2444
tp2445
Rp2446
aI0
aI1
aI3
aI0
aa(lp2447
I20
ag6
(g10
S'\x08\x00\x00\x00'
p2448
tp2449
Rp2450
aI0
aI1
aI4
aI0
aaa(lp2451
(lp2452
I5
ag6
(g10
S'\x02\x00\x00\x00'
p2453
tp2454
Rp2455
aI0
aI0
aI0
aI0
aa(lp2456
I10
ag6
(g10
S'\x06\x00\x00\x00'
p2457
tp2458
Rp2459
aI0
aI0
aI0
aI0
aa(lp2460
I15
ag6
(g10
S'\x06\x00\x00\x00'
p2461
tp2462
Rp2463
aI0
aI0
aI0
aI0
aa(lp2464
I20
ag6
(g10
S'\x07\x00\x00\x00'
p2465
tp2466
Rp2467
aI0
aI0
aI0
aI0
aaa(lp2468
(lp2469
I5
ag6
(g10
S'\x00\x00\x00\x00'
p2470
tp2471
Rp2472
aI1
aI0
aI0
aI0
aa(lp2473
I10
ag6
(g10
S'\x00\x00\x00\x00'
p2474
tp2475
Rp2476
aI1
aI0
aI0
aI0
aa(lp2477
I15
ag6
(g10
S'\x00\x00\x00\x00'
p2478
tp2479
Rp2480
aI1
aI0
aI0
aI0
aa(lp2481
I20
ag6
(g10
S'\x00\x00\x00\x00'
p2482
tp2483
Rp2484
aI1
aI0
aI0
aI0
aaa(lp2485
(lp2486
I5
ag6
(g10
S'\x05\x00\x00\x00'
p2487
tp2488
Rp2489
aI0
aI1
aI1
aI0
aa(lp2490
I10
ag6
(g10
S'\x08\x00\x00\x00'
p2491
tp2492
Rp2493
aI0
aI1
aI1
aI0
aa(lp2494
I15
ag6
(g10
S'\x0c\x00\x00\x00'
p2495
tp2496
Rp2497
aI0
aI1
aI1
aI0
aa(lp2498
I20
ag6
(g10
S'\x0e\x00\x00\x00'
p2499
tp2500
Rp2501
aI0
aI1
aI1
aI0
aaa(lp2502
(lp2503
I5
ag6
(g10
S'\x03\x00\x00\x00'
p2504
tp2505
Rp2506
aI0
aI0
aI0
aI0
aa(lp2507
I10
ag6
(g10
S'\x05\x00\x00\x00'
p2508
tp2509
Rp2510
aI0
aI0
aI0
aI0
aa(lp2511
I15
ag6
(g10
S'\x07\x00\x00\x00'
p2512
tp2513
Rp2514
aI0
aI0
aI0
aI0
aa(lp2515
I20
ag6
(g10
S'\x0b\x00\x00\x00'
p2516
tp2517
Rp2518
aI0
aI0
aI0
aI0
aaa(lp2519
(lp2520
I5
ag6
(g10
S'\x02\x00\x00\x00'
p2521
tp2522
Rp2523
aI0
aI0
aI1
aI0
aa(lp2524
I10
ag6
(g10
S'\x03\x00\x00\x00'
p2525
tp2526
Rp2527
aI0
aI0
aI1
aI0
aa(lp2528
I15
ag6
(g10
S'\x04\x00\x00\x00'
p2529
tp2530
Rp2531
aI0
aI0
aI1
aI0
aa(lp2532
I20
ag6
(g10
S'\x06\x00\x00\x00'
p2533
tp2534
Rp2535
aI0
aI1
aI2
aI0
aaa(lp2536
(lp2537
I5
ag6
(g10
S'\x01\x00\x00\x00'
p2538
tp2539
Rp2540
aI0
aI0
aI0
aI0
aa(lp2541
I10
ag6
(g10
S'\x03\x00\x00\x00'
p2542
tp2543
Rp2544
aI0
aI1
aI1
aI0
aa(lp2545
I15
ag6
(g10
S'\x03\x00\x00\x00'
p2546
tp2547
Rp2548
aI0
aI1
aI1
aI0
aa(lp2549
I20
ag6
(g10
S'\x05\x00\x00\x00'
p2550
tp2551
Rp2552
aI0
aI1
aI1
aI0
aaa(lp2553
(lp2554
I5
ag6
(g10
S'\x04\x00\x00\x00'
p2555
tp2556
Rp2557
aI0
aI0
aI0
aI0
aa(lp2558
I10
ag6
(g10
S'\x08\x00\x00\x00'
p2559
tp2560
Rp2561
aI0
aI0
aI0
aI0
aa(lp2562
I15
ag6
(g10
S'\r\x00\x00\x00'
p2563
tp2564
Rp2565
aI0
aI1
aI1
aI0
aa(lp2566
I20
ag6
(g10
S'\x10\x00\x00\x00'
p2567
tp2568
Rp2569
aI0
aI1
aI2
aI0
aaa(lp2570
(lp2571
I5
ag6
(g10
S'\x05\x00\x00\x00'
p2572
tp2573
Rp2574
aI0
aI0
aI0
aI0
aa(lp2575
I10
ag6
(g10
S'\x08\x00\x00\x00'
p2576
tp2577
Rp2578
aI0
aI0
aI0
aI0
aa(lp2579
I15
ag6
(g10
S'\n\x00\x00\x00'
p2580
tp2581
Rp2582
aI0
aI0
aI0
aI0
aa(lp2583
I20
ag6
(g10
S'\x0e\x00\x00\x00'
p2584
tp2585
Rp2586
aI0
aI0
aI0
aI0
aaa(lp2587
(lp2588
I5
ag6
(g10
S'\x00\x00\x00\x00'
p2589
tp2590
Rp2591
aI1
aI0
aI1
aI0
aa(lp2592
I10
ag6
(g10
S'\x00\x00\x00\x00'
p2593
tp2594
Rp2595
aI1
aI0
aI1
aI0
aa(lp2596
I15
ag6
(g10
S'\x02\x00\x00\x00'
p2597
tp2598
Rp2599
aI0
aI1
aI3
aI0
aa(lp2600
I20
ag6
(g10
S'\x03\x00\x00\x00'
p2601
tp2602
Rp2603
aI0
aI1
aI4
aI0
aaa(lp2604
(lp2605
I5
ag6
(g10
S'\x00\x00\x00\x00'
p2606
tp2607
Rp2608
aI1
aI0
aI1
aI0
aa(lp2609
I10
ag6
(g10
S'\x00\x00\x00\x00'
p2610
tp2611
Rp2612
aI1
aI0
aI1
aI0
aa(lp2613
I15
ag6
(g10
S'\x03\x00\x00\x00'
p2614
tp2615
Rp2616
aI0
aI0
aI1
aI0
aa(lp2617
I20
ag6
(g10
S'\x05\x00\x00\x00'
p2618
tp2619
Rp2620
aI0
aI0
aI1
aI0
aaa(lp2621
(lp2622
I5
ag6
(g10
S'\x04\x00\x00\x00'
p2623
tp2624
Rp2625
aI0
aI1
aI1
aI0
aa(lp2626
I10
ag6
(g10
S'\t\x00\x00\x00'
p2627
tp2628
Rp2629
aI0
aI1
aI1
aI0
aa(lp2630
I15
ag6
(g10
S'\x0b\x00\x00\x00'
p2631
tp2632
Rp2633
aI0
aI1
aI2
aI0
aa(lp2634
I20
ag6
(g10
S'\r\x00\x00\x00'
p2635
tp2636
Rp2637
aI0
aI1
aI2
aI0
aaa(lp2638
(lp2639
I5
ag6
(g10
S'\x00\x00\x00\x00'
p2640
tp2641
Rp2642
aI1
aI0
aI0
aI0
aa(lp2643
I10
ag6
(g10
S'\x00\x00\x00\x00'
p2644
tp2645
Rp2646
aI1
aI0
aI0
aI0
aa(lp2647
I15
ag6
(g10
S'\x00\x00\x00\x00'
p2648
tp2649
Rp2650
aI1
aI0
aI0
aI0
aa(lp2651
I20
ag6
(g10
S'\x00\x00\x00\x00'
p2652
tp2653
Rp2654
aI1
aI0
aI0
aI0
aaa(lp2655
(lp2656
I5
ag6
(g10
S'\x01\x00\x00\x00'
p2657
tp2658
Rp2659
aI0
aI0
aI0
aI0
aa(lp2660
I10
ag6
(g10
S'\x03\x00\x00\x00'
p2661
tp2662
Rp2663
aI0
aI0
aI0
aI0
aa(lp2664
I15
ag6
(g10
S'\x05\x00\x00\x00'
p2665
tp2666
Rp2667
aI0
aI0
aI0
aI0
aa(lp2668
I20
ag6
(g10
S'\t\x00\x00\x00'
p2669
tp2670
Rp2671
aI0
aI0
aI1
aI0
aaa(lp2672
(lp2673
I5
ag6
(g10
S'\x03\x00\x00\x00'
p2674
tp2675
Rp2676
aI0
aI0
aI0
aI0
aa(lp2677
I10
ag6
(g10
S'\x06\x00\x00\x00'
p2678
tp2679
Rp2680
aI0
aI1
aI1
aI0
aa(lp2681
I15
ag6
(g10
S'\x06\x00\x00\x00'
p2682
tp2683
Rp2684
aI0
aI1
aI1
aI0
aa(lp2685
I20
ag6
(g10
S'\t\x00\x00\x00'
p2686
tp2687
Rp2688
aI0
aI1
aI1
aI0
aaa(lp2689
(lp2690
I5
ag6
(g10
S'\x03\x00\x00\x00'
p2691
tp2692
Rp2693
aI0
aI0
aI0
aI0
aa(lp2694
I10
ag6
(g10
S'\x05\x00\x00\x00'
p2695
tp2696
Rp2697
aI0
aI0
aI0
aI0
aa(lp2698
I15
ag6
(g10
S'\x06\x00\x00\x00'
p2699
tp2700
Rp2701
aI0
aI0
aI0
aI0
aa(lp2702
I20
ag6
(g10
S'\x08\x00\x00\x00'
p2703
tp2704
Rp2705
aI0
aI0
aI0
aI0
aaa(lp2706
(lp2707
I5
ag6
(g10
S'\x00\x00\x00\x00'
p2708
tp2709
Rp2710
aI1
aI0
aI0
aI0
aa(lp2711
I10
ag6
(g10
S'\x01\x00\x00\x00'
p2712
tp2713
Rp2714
aI0
aI0
aI0
aI0
aa(lp2715
I15
ag6
(g10
S'\x02\x00\x00\x00'
p2716
tp2717
Rp2718
aI0
aI0
aI0
aI0
aa(lp2719
I20
ag6
(g10
S'\x03\x00\x00\x00'
p2720
tp2721
Rp2722
aI0
aI0
aI0
aI0
aaa(lp2723
(lp2724
I5
ag6
(g10
S'\x03\x00\x00\x00'
p2725
tp2726
Rp2727
aI0
aI0
aI1
aI0
aa(lp2728
I10
ag6
(g10
S'\x06\x00\x00\x00'
p2729
tp2730
Rp2731
aI0
aI0
aI2
aI0
aa(lp2732
I15
ag6
(g10
S'\t\x00\x00\x00'
p2733
tp2734
Rp2735
aI0
aI1
aI3
aI0
aa(lp2736
I20
ag6
(g10
S'\x0c\x00\x00\x00'
p2737
tp2738
Rp2739
aI0
aI1
aI3
aI0
aaa(lp2740
(lp2741
I5
ag6
(g10
S'\x01\x00\x00\x00'
p2742
tp2743
Rp2744
aI0
aI1
aI1
aI0
aa(lp2745
I10
ag6
(g10
S'\x01\x00\x00\x00'
p2746
tp2747
Rp2748
aI0
aI1
aI1
aI0
aa(lp2749
I15
ag6
(g10
S'\x01\x00\x00\x00'
p2750
tp2751
Rp2752
aI0
aI1
aI2
aI0
aa(lp2753
I20
ag6
(g10
S'\x03\x00\x00\x00'
p2754
tp2755
Rp2756
aI0
aI1
aI3
aI0
aaa(lp2757
(lp2758
I5
ag6
(g10
S'\x03\x00\x00\x00'
p2759
tp2760
Rp2761
aI0
aI1
aI1
aI0
aa(lp2762
I10
ag6
(g10
S'\x07\x00\x00\x00'
p2763
tp2764
Rp2765
aI0
aI1
aI1
aI0
aa(lp2766
I15
ag6
(g10
S'\x0b\x00\x00\x00'
p2767
tp2768
Rp2769
aI0
aI1
aI1
aI0
aa(lp2770
I20
ag6
(g10
S'\x0f\x00\x00\x00'
p2771
tp2772
Rp2773
aI0
aI1
aI1
aI0
aaa(lp2774
(lp2775
I5
ag6
(g10
S'\x05\x00\x00\x00'
p2776
tp2777
Rp2778
aI0
aI1
aI1
aI0
aa(lp2779
I10
ag6
(g10
S'\x08\x00\x00\x00'
p2780
tp2781
Rp2782
aI0
aI1
aI1
aI0
aa(lp2783
I15
ag6
(g10
S'\x0c\x00\x00\x00'
p2784
tp2785
Rp2786
aI0
aI1
aI1
aI0
aa(lp2787
I20
ag6
(g10
S'\x11\x00\x00\x00'
p2788
tp2789
Rp2790
aI0
aI1
aI1
aI0
aaa(lp2791
(lp2792
I5
ag6
(g10
S'\x00\x00\x00\x00'
p2793
tp2794
Rp2795
aI1
aI0
aI0
aI0
aa(lp2796
I10
ag6
(g10
S'\x00\x00\x00\x00'
p2797
tp2798
Rp2799
aI1
aI0
aI0
aI0
aa(lp2800
I15
ag6
(g10
S'\x01\x00\x00\x00'
p2801
tp2802
Rp2803
aI0
aI0
aI0
aI0
aa(lp2804
I20
ag6
(g10
S'\x02\x00\x00\x00'
p2805
tp2806
Rp2807
aI0
aI1
aI1
aI0
aaa(lp2808
(lp2809
I5
ag6
(g10
S'\x05\x00\x00\x00'
p2810
tp2811
Rp2812
aI0
aI0
aI0
aI0
aa(lp2813
I10
ag6
(g10
S'\t\x00\x00\x00'
p2814
tp2815
Rp2816
aI0
aI0
aI0
aI0
aa(lp2817
I15
ag6
(g10
S'\x0e\x00\x00\x00'
p2818
tp2819
Rp2820
aI0
aI0
aI0
aI0
aa(lp2821
I20
ag6
(g10
S'\x12\x00\x00\x00'
p2822
tp2823
Rp2824
aI0
aI0
aI0
aI0
aaa(lp2825
(lp2826
I5
ag6
(g10
S'\x01\x00\x00\x00'
p2827
tp2828
Rp2829
aI0
aI0
aI1
aI0
aa(lp2830
I10
ag6
(g10
S'\x02\x00\x00\x00'
p2831
tp2832
Rp2833
aI0
aI0
aI1
aI0
aa(lp2834
I15
ag6
(g10
S'\x04\x00\x00\x00'
p2835
tp2836
Rp2837
aI0
aI0
aI1
aI0
aa(lp2838
I20
ag6
(g10
S'\x06\x00\x00\x00'
p2839
tp2840
Rp2841
aI0
aI1
aI2
aI0
aaa(lp2842
(lp2843
I5
ag6
(g10
S'\x02\x00\x00\x00'
p2844
tp2845
Rp2846
aI0
aI0
aI0
aI0
aa(lp2847
I10
ag6
(g10
S'\x04\x00\x00\x00'
p2848
tp2849
Rp2850
aI0
aI0
aI1
aI0
aa(lp2851
I15
ag6
(g10
S'\x06\x00\x00\x00'
p2852
tp2853
Rp2854
aI0
aI0
aI1
aI0
aa(lp2855
I20
ag6
(g10
S'\x08\x00\x00\x00'
p2856
tp2857
Rp2858
aI0
aI0
aI1
aI0
aaa(lp2859
(lp2860
I5
ag6
(g10
S'\x03\x00\x00\x00'
p2861
tp2862
Rp2863
aI0
aI0
aI0
aI0
aa(lp2864
I10
ag6
(g10
S'\x04\x00\x00\x00'
p2865
tp2866
Rp2867
aI0
aI0
aI1
aI0
aa(lp2868
I15
ag6
(g10
S'\x06\x00\x00\x00'
p2869
tp2870
Rp2871
aI0
aI0
aI2
aI0
aa(lp2872
I20
ag6
(g10
S'\x08\x00\x00\x00'
p2873
tp2874
Rp2875
aI0
aI0
aI2
aI0
aaa(lp2876
(lp2877
I5
ag6
(g10
S'\x01\x00\x00\x00'
p2878
tp2879
Rp2880
aI0
aI0
aI0
aI0
aa(lp2881
I10
ag6
(g10
S'\x03\x00\x00\x00'
p2882
tp2883
Rp2884
aI0
aI0
aI1
aI0
aa(lp2885
I15
ag6
(g10
S'\x04\x00\x00\x00'
p2886
tp2887
Rp2888
aI0
aI0
aI2
aI0
aa(lp2889
I20
ag6
(g10
S'\x05\x00\x00\x00'
p2890
tp2891
Rp2892
aI0
aI0
aI3
aI0
aaa(lp2893
(lp2894
I5
ag6
(g10
S'\x00\x00\x00\x00'
p2895
tp2896
Rp2897
aI1
aI0
aI0
aI0
aa(lp2898
I10
ag6
(g10
S'\x01\x00\x00\x00'
p2899
tp2900
Rp2901
aI0
aI0
aI0
aI0
aa(lp2902
I15
ag6
(g10
S'\x01\x00\x00\x00'
p2903
tp2904
Rp2905
aI0
aI0
aI0
aI0
aa(lp2906
I20
ag6
(g10
S'\x01\x00\x00\x00'
p2907
tp2908
Rp2909
aI0
aI0
aI0
aI0
aaa(lp2910
(lp2911
I5
ag6
(g10
S'\x02\x00\x00\x00'
p2912
tp2913
Rp2914
aI0
aI0
aI0
aI0
aa(lp2915
I10
ag6
(g10
S'\x03\x00\x00\x00'
p2916
tp2917
Rp2918
aI0
aI0
aI1
aI0
aa(lp2919
I15
ag6
(g10
S'\x06\x00\x00\x00'
p2920
tp2921
Rp2922
aI0
aI0
aI1
aI0
aa(lp2923
I20
ag6
(g10
S'\x07\x00\x00\x00'
p2924
tp2925
Rp2926
aI0
aI0
aI1
aI0
aaa(lp2927
(lp2928
I5
ag6
(g10
S'\x02\x00\x00\x00'
p2929
tp2930
Rp2931
aI0
aI0
aI1
aI0
aa(lp2932
I10
ag6
(g10
S'\x04\x00\x00\x00'
p2933
tp2934
Rp2935
aI0
aI0
aI1
aI0
aa(lp2936
I15
ag6
(g10
S'\x06\x00\x00\x00'
p2937
tp2938
Rp2939
aI0
aI1
aI3
aI0
aa(lp2940
I20
ag6
(g10
S'\t\x00\x00\x00'
p2941
tp2942
Rp2943
aI0
aI1
aI4
aI0
aaa(lp2944
(lp2945
I5
ag6
(g10
S'\x04\x00\x00\x00'
p2946
tp2947
Rp2948
aI0
aI0
aI0
aI0
aa(lp2949
I10
ag6
(g10
S'\x08\x00\x00\x00'
p2950
tp2951
Rp2952
aI0
aI0
aI0
aI0
aa(lp2953
I15
ag6
(g10
S'\n\x00\x00\x00'
p2954
tp2955
Rp2956
aI0
aI0
aI0
aI0
aa(lp2957
I20
ag6
(g10
S'\r\x00\x00\x00'
p2958
tp2959
Rp2960
aI0
aI0
aI0
aI0
aaasb.