(lp0
(lp1
I0
aI32
aI33
aI34
aI44
aI45
aI50
aI51
aI51
aI51
aa(lp2
I1
aI35
aI36
aI38
aI39
aI41
aI45
aI46
aI47
aI48
aI48
aa(lp3
I2
aI31
aI32
aI33
aI38
aI42
aI43
aa(lp4
I3
aI31
aI32
aI34
aI35
aI36
aI49
aI51
aI53
aI54
aI67
aa(lp5
I4
aI25
aI27
aI30
aI34
aI37
aI40
aI43
aI45
aI46
aa(lp6
I5
aI25
aI29
aI33
aI34
aI35
aI34
aI35
aI40
aI45
aI46
aI47
aI56
aI57
aI58
aa(lp7
I6
aI32
aI34
aI35
aI38
aI39
aI42
aI44
aI45
aI47
aa(lp8
I7
aI33
aI36
aI38
aI39
aI40
aI46
aI53
aI55
aI57
aa(lp9
I8
aI30
aI30
aI33
aI34
aI36
aI37
aa(lp10
I9
aI26
aI28
aI30
aI39
aI47
aI51
aI52
aI57
aI58
aa(lp11
I10
aI27
aI28
aI32
aI34
aI38
aI41
aI49
aI50
aa(lp12
I11
aI30
aI32
aI35
aI37
aI41
aI51
aI56
aI57
aa(lp13
I12
aI21
aI23
aI27
aI31
aI32
aI40
aI44
aI57
aa(lp14
I13
aI29
aI31
aI33
aI34
aI38
aI40
aI41
aI41
aI41
aa(lp15
I14
aI17
aI18
aI20
aI21
aI24
aI29
aI32
aa(lp16
I15
aI26
aI28
aI33
aI34
aI37
aa(lp17
I16
aI29
aI30
aI32
aI33
aI39
aI43
aI44
aI51
aa(lp18
I17
aI28
aI32
aI33
aI43
aI44
aI45
aa(lp19
I18
aI21
aI22
aI35
aI38
aI42
aI45
aI48
aI49
aI51
aI52
aa(lp20
I-1
aI-1
aI-1
aI-1
aI-1
aI-1
aI-1
aa(lp21
I20
aI21
aI25
aI30
aI32
aI34
aI36
aI38
aa(lp22
I-1
aI-1
aa(lp23
I22
aI26
aI27
aI29
aI33
aI34
aI40
aI44
aI56
aI58
aI59
aI60
aa(lp24
I23
aI38
aI39
aI42
aI44
aI46
aI47
aI48
aI49
aa(lp25
I24
aI20
aI21
aI24
aI28
aI29
aI32
aI34
aI37
aa(lp26
I25
aI19
aI20
aI22
aI23
aI26
aI30
aI37
aI42
aI48
aa(lp27
I26
aI48
aI55
aI57
aI63
aI64
aI65
aI67
aI69
aa(lp28
I27
aI38
aI39
aI44
aI49
aI50
aI57
aa(lp29
I28
aI22
aI23
aI24
aI25
aI27
aI29
aI32
aI36
aI37
aa(lp30
I29
aI24
aI27
aI28
aI29
aI38
aI39
aI40
aa(lp31
I30
aI32
aI33
aI34
aI35
aI39
aI40
aI41
aI47
aI48
aI51
aa(lp32
I31
aI28
aI31
aI32
aI36
aI38
aI39
aa(lp33
I32
aI24
aI25
aI25
aI29
aI29
aI33
aI34
aI35
aI38
aI39
aa(lp34
I33
aI27
aI28
aI31
aI38
aI40
aI47
aI48
aa(lp35
I34
aI33
aI37
aI33
aI39
aI42
aI43
aI44
aI49
aI57
aI64
aI69
aI70
aI72
aI74
aa(lp36
I35
aI27
aI32
aI36
aI38
aI39
aI40
aa(lp37
I36
aI26
aI28
aI31
aI34
aI36
aI39
aa(lp38
I37
aI27
aI32
aI33
aI36
aI38
aI41
aI43
aa(lp39
I38
aI26
aI28
aI29
aI37
aI38
aI39
aI44
aI50
aI52
aa(lp40
I39
aI34
aI40
aI41
aI42
aI45
aI46
aI51
aI52
aa(lp41
I40
aI31
aI31
aI40
aI45
aa(lp42
I41
aI39
aI40
aI41
aI44
aI46
aI54
aa(lp43
I42
aI26
aI28
aI30
aI34
aI36
aI37
aI41
aI42
aa(lp44
I43
aI25
aI28
aI29
aI46
aI47
aI53
aI56
aa(lp45
I44
aI19
aI20
aI23
aI27
aI28
aI34
aa(lp46
I45
aI17
aI20
aI23
aI24
aI37
aI40
aI41
aa(lp47
I46
aI28
aI31
aI32
aI33
aI41
aI43
aI43
aa(lp48
I-1
aI-1
aI-1
aI-1
aI-1
aI-1
aI-1
aI-1
aa(lp49
I48
aI24
aI25
aI29
aa(lp50
I49
aI28
aI29
aI32
aI34
aI36
aa(lp51
I50
aI29
aI32
aI33
aI39
aI40
aI43
aa(lp52
I51
aI27
aI28
aI29
aI30
aI32
aI37
aI38
aI39
aI40
aa(lp53
I52
aI43
aI44
aI46
aI47
aI53
aI59
aI63
aI71
aI73
aa(lp54
I53
aI30
aI32
aI33
aI39
aI40
aI41
aI42
aa(lp55
I54
aI27
aI31
aI35
aI22
aa(lp56
I55
aI38
aI42
aI43
aI46
aI48
aI49
aI50
aI53
aI56
aI59
aI61
aI66
aI67
aI68
aa(lp57
I56
aI32
aI36
aI37
aI41
aI42
aI43
aI49
aa(lp58
I57
aI16
aI22
aI26
aa(lp59
I58
aI23
aI29
aI30
aI35
aI40
aa(lp60
I59
aI39
aI41
aI43
aI46
aI47
aI48
aI49
aI50
aa(lp61
I60
aI23
aI26
aI29
aI32
aI36
aI37
aa(lp62
I61
aI28
aI31
aI33
aI36
aI39
aI43
aa(lp63
I62
aI29
aI35
aI37
aI39
aI43
aI45
aI49
aa(lp64
I63
aI37
aI38
aI42
aI44
aI47
aI48
aa(lp65
I64
aI32
aI37
aI38
aI39
aI54
aI59
aI60
aI61
aI62
aI65
aa(lp66
I65
aI33
aI34
aI38
aI41
aI47
aI50
aI51
aI58
aI59
aa(lp67
I66
aI39
aI45
aI49
aI51
aI52
aI54
aI56
aa(lp68
I67
aI21
aI29
aI30
aI33
aI34
aI36
aI39
aa(lp69
I68
aI25
aI26
aI31
aI40
aI43
aI48
aI51
aa(lp70
I69
aI35
aI37
aI39
aI40
aa(lp71
I70
aI29
aI30
aI32
aI34
aI36
aI37
aa(lp72
I71
aI29
aI30
aI37
aI40
aI41
aI42
aI43
aI45
aI46
aa(lp73
I72
aI28
aI29
aI30
aI36
aI37
aI42
aa(lp74
I73
aI22
aI23
aI24
aI28
aI35
aI36
aI39
aI41
aI44
aa(lp75
I-1
aI-1
aI-1
aI-1
aI-1
aI-1
aI-1
aI-1
aa(lp76
I75
aI29
aI35
aI38
aI44
aI52
aI53
aI54
aI57
aa(lp77
I76
aI25
aI27
aI28
aI32
aI33
aI34
aa(lp78
I77
aI38
aI41
aI42
aI44
aa(lp79
I78
aI39
aI42
aI43
aI51
aI61
aI62
aI64
aI67
aa(lp80
I79
aI33
aI34
aI38
aI39
aI40
aa(lp81
I80
aI28
aI30
aI41
aI46
aI47
aI48
aI51
aI57
aa(lp82
I81
aI36
aI39
aI40
aI43
aI48
aI50
aI53
aI56
aI58
aI59
aa(lp83
I82
aI29
aI30
aI31
aI31
aI33
aI35
aI36
aI37
aa(lp84
I83
aI27
aI28
aI33
aI34
aI36
aI39
aI43
aI44
aI52
aI53
aa(lp85
I84
aI29
aI35
aI36
aI37
aI23
aI51
aI55
aI56
aI58
aa(lp86
I85
aI27
aI29
aI30
aI34
aI41
aI44
aI47
aI48
aa(lp87
I86
aI31
aI33
aI35
aI36
aI41
aI43
aI45
aI46
aa(lp88
I87
aI33
aI35
aI37
aI39
aI45
aI54
aI57
aI59
aI60
aI63
aa(lp89
I88
aI36
aI38
aI43
aI44
aI47
aI50
aI53
aI55
aa(lp90
I89
aI16
aI18
aI23
aI25
aI26
aI28
aI30
aa(lp91
I90
aI17
aI19
aI26
aI27
aI29
aI30
aI31
aI32
aa(lp92
I91
aI25
aI26
aI28
aI37
aI41
aa(lp93
I92
aI22
aI26
aI28
aI31
aa(lp94
I93
aI12
aI13
aI14
aI18
aI22
aI23
aI27
aI33
aa(lp95
I94
aI20
aI24
aI27
aI29
aI32
aI34
aI40
aa(lp96
I95
aI28
aI30
aI31
aI33
aI36
aI39
aI40
aa(lp97
I96
aI17
aI18
aa(lp98
I97
aI20
aI21
aI26
aI27
aa(lp99
I98
aI27
aI29
aI36
aI37
aI38
aa(lp100
I99
aI15
aI16
aI23
aI24
aI25
aI36
aI37
aa(lp101
I100
aI24
aI26
aI29
aI30
aa(lp102
I101
aI17
aI21
aI23
aI25
aI26
aa(lp103
I102
aI31
aI32
aI33
aI34
aI43
aI45
aI51
aI52
aa(lp104
I103
aI19
aI25
aI26
aI28
aI31
aa(lp105
I-1
aI-1
aI-1
aI-1
aI-1
aI-1
aa(lp106
I105
aI22
aI24
aI25
aI29
aI36
aa(lp107
I106
aI16
aI20
aI21
aI26
aI32
aI34
aa(lp108
I107
aI32
aI35
aI36
aI41
aI42
aI43
aa(lp109
I108
aI14
aI18
aI19
aI22
aI24
aI29
aI37
aa(lp110
I109
aI21
aI30
aI31
aI38
aa(lp111
I110
aI17
aI22
aI23
aI27
aI30
aa(lp112
I111
aI17
aI23
aI37
aI38
aI40
aI41
aI42
aa(lp113
I112
aI21
aI22
aI39
aI40
aI41
aa(lp114
I113
aI18
aI19
aI21
aI22
aI27
aa(lp115
I114
aI22
aI24
aI27
aa(lp116
I115
aI12
aI14
aI20
aI21
aI26
aI59
aa(lp117
I116
aI20
aI21
aI22
aI29
aI32
aI34
aI35
aa(lp118
I117
aI14
aI22
aI25
aI27
aa(lp119
I118
aI21
aI22
aI26
aI30
aI36
aa(lp120
I119
aI25
aa(lp121
I120
aI23
aI33
aI34
aI35
aI36
aI37
aa(lp122
I121
aI19
aI25
aI32
aI33
aI34
aI35
aa(lp123
I122
aI19
aI21
aI29
aI30
aa(lp124
I123
aI21
aI23
aI27
aI30
aa(lp125
I124
aI18
aI20
aI21
aI24
aI28
aI32
aa(lp126
I125
aI25
aI26
aI33
aI38
aI39
aa(lp127
I126
aI22
aI24
aI26
aI34
aI35
aI41
aI43
aI45
aa(lp128
I127
aI20
aI23
aI25
aI28
aI29
aa(lp129
I128
aI26
aI28
aI31
aa(lp130
I129
aI29
aI30
aI36
aI44
aa(lp131
I130
aI25
aI26
aI27
aI32
aa(lp132
I131
aI24
aI26
aI31
aI32
aI35
aa(lp133
I132
aI18
aI21
aI33
aI35
aa(lp134
I133
aI26
aI33
aI49
aI52
aI55
aI56
aa(lp135
I134
aI18
aI21
aI25
aI26
aa(lp136
I135
aI24
aI25
aI29
aa(lp137
I136
aI19
aI21
aI26
aI41
aa(lp138
I137
aI27
aI30
aI35
aI44
aa(lp139
I138
aI22
aI23
aI32
aI33
aI39
aa(lp140
I139
aI15
aI17
aI20
aI29
aI31
aI35
aa(lp141
I140
aI16
aI21
aI26
aI30
aI31
aa(lp142
I141
aI25
aI34
aI39
aI41
aI42
aa(lp143
I142
aI19
aI23
aI24
aa(lp144
I143
aI30
aI31
aI38
aI43
aI48
aa(lp145
I144
aI19
aI22
aI23
aI30
aI31
aI32
aa(lp146
I145
aI24
aI27
aI34
aI35
aI39
aI41
aI45
aa(lp147
I146
aI37
aI39
aI44
aI45
aa(lp148
I147
aI20
aI32
aI36
aI37
aI38
aa(lp149
I148
aI21
aI23
aI28
aI29
aI32
aa(lp150
I149
aI30
aI57
aI60
aI60
aa(lp151
I150
aI25
aI36
aI47
aI56
aa(lp152
I151
aI23
aI31
aI32
aI35
aI37
aa(lp153
I152
aI18
aI24
aI26
aI27
aa(lp154
I153
aI26
aI28
aI31
aI33
aI37
aa(lp155
I154
aI22
aI23
aI24
aI25
aa(lp156
I155
aI16
aI17
aI22
aI24
aI26
aa(lp157
I156
aI21
aI22
aI27
aI29
aI31
aa(lp158
I157
aI18
aI21
aI25
aI35
aa(lp159
I158
aI27
aI29
aI37
aI46
aI47
aa(lp160
I159
aI17
aI25
aI26
aI32
aa(lp161
I160
aI18
aI22
aI28
aI32
aa(lp162
I161
aI16
aI20
aI22
aI51
aI28
aI31
aa(lp163
I162
aI14
aI15
aI16
aI22
aI23
aI30
aa(lp164
I163
aI22
aI23
aI25
aI33
aI34
aa(lp165
I164
aI25
aI26
aI62
aI64
aI65
aa(lp166
I165
aI20
aI23
aI37
aI39
aa(lp167
I166
aI17
aI19
aI22
aI25
aI30
aa(lp168
I167
aI19
aI29
aI30
aI36
aI37
aa(lp169
I168
aI15
aI16
aI20
aI21
aI24
aa(lp170
I169
aI19
aI20
aI27
aI23
aI31
aa(lp171
I170
aI21
aI24
aI27
aI36
aI40
aa(lp172
I171
aI17
aI24
aI25
aI33
aa.