(lp0
(lp1
I7
aI8
aI9
aI19
aI20
aI25
aI26
aa(lp2
I5
aI6
aI8
aI9
aI11
aI15
aI16
aI17
aI18
aa(lp3
I5
aI6
aI7
aI12
aI16
aI17
aa(lp4
I6
aI7
aI9
aI10
aI11
aI24
aI26
aI28
aI29
aI42
aa(lp5
I4
aI6
aI9
aI13
aI16
aI19
aI22
aI24
aI25
aa(lp6
I7
aI11
aI15
aI16
aI17
aI22
aI27
aI28
aI29
aI38
aI39
aI40
aa(lp7
I8
aI10
aI11
aI14
aI15
aI18
aI20
aI21
aI23
aa(lp8
I14
aI17
aI19
aI20
aI21
aI27
aI34
aI36
aI38
aa(lp9
I6
aI9
aI10
aI12
aI13
aa(lp10
I9
aI11
aI13
aI22
aI30
aI34
aI35
aI40
aI41
aa(lp11
I7
aI8
aI12
aI14
aI18
aI21
aI29
aI30
aa(lp12
I9
aI11
aI14
aI16
aI20
aI30
aI35
aI36
aa(lp13
I4
aI6
aI10
aI14
aI15
aI23
aI27
aI40
aa(lp14
I6
aI8
aI10
aI11
aI15
aI17
aI18
aa(lp15
I4
aI5
aI7
aI8
aI11
aI16
aI19
aa(lp16
I10
aI12
aI17
aI18
aI21
aa(lp17
I8
aI9
aI11
aI12
aI18
aI22
aI23
aI30
aa(lp18
I11
aI15
aI16
aI26
aI27
aI28
aa(lp19
I7
aI8
aI21
aI24
aI28
aI31
aI34
aI35
aI37
aI38
aa(lp20
I-1
aI-1
aI-1
aI-1
aI-1
aI-1
aI-1
aa(lp21
I4
aI8
aI13
aI15
aI17
aI19
aI21
aa(lp22
I-1
aI-1
aa(lp23
I8
aI9
aI11
aI15
aI16
aI22
aI26
aI38
aI40
aI41
aI42
aa(lp24
I7
aI8
aI11
aI13
aI15
aI16
aI17
aI18
aa(lp25
I7
aI8
aI11
aI15
aI16
aI19
aI21
aI24
aa(lp26
I7
aI8
aI10
aI11
aI14
aI18
aI25
aI30
aI36
aa(lp27
I10
aI17
aI19
aI25
aI26
aI27
aI29
aI31
aa(lp28
I11
aI12
aI17
aI22
aI23
aI30
aa(lp29
I8
aI9
aI10
aI11
aI13
aI15
aI18
aI22
aI23
aa(lp30
I11
aI14
aI15
aI16
aI25
aI26
aI27
aa(lp31
I10
aI11
aI12
aI13
aI17
aI18
aI19
aI25
aI26
aI29
aa(lp32
I9
aI12
aI13
aI17
aI19
aI20
aa(lp33
I7
aI8
aI12
aI16
aI17
aI18
aI21
aI22
aa(lp34
I9
aI10
aI13
aI20
aI22
aI29
aI30
aa(lp35
I7
aI11
aI13
aI16
aI17
aI18
aI23
aI31
aI38
aI43
aI44
aI46
aI48
aa(lp36
I5
aI10
aI14
aI16
aI17
aI18
aa(lp37
I6
aI8
aI11
aI14
aI16
aI19
aa(lp38
I7
aI12
aI13
aI16
aI18
aI21
aI23
aa(lp39
I10
aI12
aI13
aI21
aI22
aI23
aI28
aI34
aI36
aa(lp40
I8
aI14
aI15
aI16
aI19
aI20
aI25
aI26
aa(lp41
I4
aI13
aI18
aa(lp42
I13
aI14
aI15
aI18
aI20
aI28
aa(lp43
I6
aI8
aI10
aI14
aI16
aI17
aI21
aI22
aa(lp44
I7
aI10
aI11
aI28
aI29
aI35
aI38
aa(lp45
I7
aI8
aI11
aI15
aI16
aI22
aa(lp46
I4
aI7
aI10
aI11
aI24
aI27
aI28
aa(lp47
I5
aI8
aI9
aI10
aI18
aI20
aa(lp48
I-1
aI-1
aI-1
aI-1
aI-1
aI-1
aI-1
aI-1
aa(lp49
I6
aI7
aI11
aa(lp50
I6
aI7
aI10
aI12
aI14
aa(lp51
I6
aI9
aI10
aI16
aI17
aI20
aa(lp52
I6
aI7
aI8
aI9
aI11
aI16
aI17
aI18
aI19
aa(lp53
I16
aI17
aI19
aI20
aI26
aI32
aI36
aI44
aI46
aa(lp54
I10
aI12
aI13
aI19
aI20
aI21
aI22
aa(lp55
I6
aI10
aI14
aI1
aa(lp56
I5
aI9
aI10
aI13
aI15
aI16
aI17
aI20
aI23
aI26
aI28
aI33
aI34
aI35
aa(lp57
I8
aI12
aI13
aI17
aI18
aI19
aI25
aa(lp58
I5
aI11
aI15
aa(lp59
I12
aI18
aI19
aI24
aI29
aa(lp60
I10
aI12
aI14
aI17
aI18
aI19
aI20
aI21
aa(lp61
I7
aI10
aI13
aI16
aI20
aI21
aa(lp62
I8
aI11
aI13
aI16
aI19
aI23
aa(lp63
I7
aI13
aI15
aI17
aI21
aI23
aI27
aa(lp64
I8
aI9
aI13
aI15
aI18
aI19
aa(lp65
I7
aI12
aI13
aI14
aI29
aI34
aI35
aI36
aI37
aI40
aa(lp66
I10
aI11
aI15
aI18
aI24
aI27
aI28
aI35
aI36
aa(lp67
I18
aI24
aI28
aI30
aI31
aI33
aI35
aa(lp68
I5
aI13
aI14
aI17
aI18
aI20
aI23
aa(lp69
I5
aI6
aI11
aI20
aI23
aI28
aI31
aa(lp70
I2
aI4
aI6
aI7
aa(lp71
I9
aI10
aI12
aI14
aI16
aI17
aa(lp72
I9
aI10
aI17
aI20
aI21
aI22
aI23
aI25
aI26
aa(lp73
I6
aI7
aI8
aI14
aI15
aI20
aa(lp74
I8
aI9
aI10
aI14
aI21
aI22
aI25
aI27
aI30
aa(lp75
I-1
aI-1
aI-1
aI-1
aI-1
aI-1
aI-1
aI-1
aa(lp76
I5
aI11
aI14
aI20
aI28
aI29
aI30
aI33
aa(lp77
I9
aI11
aI12
aI16
aI17
aI18
aa(lp78
I12
aI15
aI16
aI18
aa(lp79
I10
aI13
aI14
aI22
aI32
aI33
aI35
aI38
aa(lp80
I9
aI10
aI14
aI15
aI16
aa(lp81
I4
aI6
aI17
aI22
aI23
aI24
aI27
aI33
aa(lp82
I9
aI12
aI13
aI16
aI21
aI23
aI26
aI29
aI31
aI32
aa(lp83
I6
aI7
aI8
aI10
aI12
aI13
aI14
aa(lp84
I5
aI6
aI11
aI12
aI14
aI17
aI21
aI22
aI30
aI31
aa(lp85
I7
aI13
aI14
aI15
aI1
aI29
aI33
aI34
aI36
aa(lp86
I6
aI8
aI9
aI13
aI20
aI23
aI26
aI27
aa(lp87
I6
aI8
aI10
aI11
aI16
aI18
aI20
aI21
aa(lp88
I4
aI6
aI8
aI10
aI16
aI25
aI28
aI30
aI31
aI34
aa(lp89
I8
aI10
aI15
aI16
aI19
aI22
aI25
aI27
aa(lp90
I5
aI7
aI12
aI14
aI15
aI17
aI19
aa(lp91
I3
aI5
aI12
aI13
aI15
aI16
aI17
aI18
aa(lp92
I12
aI13
aI15
aI24
aI28
aa(lp93
I6
aI10
aI12
aI15
aa(lp94
I6
aI7
aI8
aI12
aI16
aI17
aI21
aI27
aa(lp95
I5
aI9
aI12
aI14
aI17
aI19
aI25
aa(lp96
I8
aI10
aI11
aI13
aI16
aI19
aI20
aa(lp97
I5
aI6
aa(lp98
I5
aI6
aI11
aI12
aa(lp99
I9
aI11
aI18
aI19
aI20
aa(lp100
I7
aI8
aI15
aI16
aI17
aI28
aI29
aa(lp101
I7
aI9
aI12
aI13
aa(lp102
I4
aI8
aI10
aI12
aI13
aa(lp103
I8
aI9
aI10
aI11
aI20
aI22
aI28
aI29
aa(lp104
I6
aI12
aI13
aI15
aI18
aa(lp105
I-1
aI-1
aI-1
aI-1
aI-1
aI-1
aa(lp106
I7
aI9
aI10
aI14
aI21
aa(lp107
I3
aI7
aI8
aI13
aI19
aI21
aa(lp108
I13
aI16
aI17
aI22
aI23
aI24
aa(lp109
I4
aI8
aI9
aI12
aI14
aI19
aI27
aa(lp110
I6
aI15
aI16
aI23
aa(lp111
I4
aI9
aI10
aI14
aI17
aa(lp112
I10
aI16
aI30
aI31
aI33
aI34
aI35
aa(lp113
I6
aI7
aI24
aI25
aI26
aa(lp114
I5
aI6
aI8
aI9
aI14
aa(lp115
I6
aI8
aI11
aa(lp116
I2
aI4
aI10
aI11
aI16
aI49
aa(lp117
I7
aI8
aI9
aI16
aI19
aI21
aI22
aa(lp118
I4
aI12
aI15
aI17
aa(lp119
I5
aI6
aI10
aI14
aI20
aa(lp120
I6
aa(lp121
I7
aI17
aI18
aI19
aI20
aI21
aa(lp122
I7
aI13
aI20
aI21
aI22
aI23
aa(lp123
I5
aI7
aI15
aI16
aa(lp124
I12
aI14
aI18
aI21
aa(lp125
I5
aI7
aI8
aI11
aI15
aI19
aa(lp126
I8
aI9
aI16
aI21
aI22
aa(lp127
I7
aI9
aI11
aI19
aI20
aI26
aI28
aI30
aa(lp128
I9
aI12
aI14
aI17
aI18
aa(lp129
I5
aI7
aI10
aa(lp130
I15
aI16
aI22
aI30
aa(lp131
I12
aI13
aI14
aI19
aa(lp132
I10
aI12
aI17
aI18
aI21
aa(lp133
I9
aI12
aI24
aI26
aa(lp134
I9
aI16
aI32
aI35
aI38
aI39
aa(lp135
I4
aI7
aI11
aI12
aa(lp136
I11
aI12
aI16
aa(lp137
I4
aI6
aI11
aI26
aa(lp138
I3
aI6
aI11
aI20
aa(lp139
I10
aI11
aI20
aI21
aI27
aa(lp140
I6
aI8
aI11
aI20
aI22
aI26
aa(lp141
I4
aI9
aI14
aI18
aI19
aa(lp142
I5
aI14
aI19
aI21
aI22
aa(lp143
I3
aI7
aI8
aa(lp144
I6
aI7
aI14
aI19
aI24
aa(lp145
I5
aI8
aI9
aI16
aI17
aI18
aa(lp146
I5
aI8
aI15
aI16
aI20
aI22
aI26
aa(lp147
I15
aI17
aI22
aI23
aa(lp148
I4
aI16
aI20
aI21
aI22
aa(lp149
I7
aI9
aI14
aI15
aI18
aa(lp150
I12
aI39
aI42
aa(lp151
I9
aI20
aI31
aI40
aa(lp152
I5
aI13
aI14
aI17
aI19
aa(lp153
I7
aI13
aI15
aI16
aa(lp154
I11
aI13
aI16
aI18
aI22
aa(lp155
I3
aI4
aI5
aI6
aa(lp156
I4
aI5
aI10
aI12
aI14
aa(lp157
I8
aI9
aI14
aI16
aI18
aa(lp158
I7
aI10
aI14
aI24
aa(lp159
I8
aI10
aI18
aI27
aI28
aa(lp160
I2
aI10
aI11
aI17
aa(lp161
I4
aI8
aI14
aI18
aa(lp162
I4
aI8
aI10
aI39
aI16
aI19
aa(lp163
I7
aI8
aI9
aI15
aI16
aI23
aa(lp164
I4
aI5
aI7
aI15
aI16
aa(lp165
I9
aI10
aI46
aI48
aI49
aa(lp166
I5
aI8
aI22
aI24
aa(lp167
I6
aI8
aI11
aI14
aI19
aa(lp168
I5
aI15
aI16
aI22
aI23
aa(lp169
I5
aI6
aI10
aI11
aI14
aa(lp170
I4
aI5
aI12
aI8
aI16
aa(lp171
I5
aI8
aI11
aI20
aI24
aa(lp172
I4
aI11
aI12
aI20
aa.