(dp0
S'p14-2052.xhtml'
p1
(lp2
I5
aI6
aI10
aI14
aI20
asS'p14-1131.xhtml'
p3
(lp4
I9
aI10
aI14
aI15
aI16
asS'p14-2106.xhtml'
p5
(lp6
I11
aI13
aI16
aI18
aI22
asS'p14-2036.xhtml'
p7
(lp8
I13
aI16
aI17
aI22
aI23
aI24
asS'p14-1118.xhtml'
p9
(lp10
I5
aI6
aI11
aI20
aI23
aI28
aI31
asS'p14-2004.xhtml'
p11
(lp12
I5
aI7
aI12
aI14
aI15
aI17
aI19
asS'p14-2110.xhtml'
p13
(lp14
I8
aI9
aI14
aI16
aI18
asS'p14-1064.xhtml'
p15
(lp16
I6
aI8
aI11
aI14
aI16
aI19
asS'p14-1029.xhtml'
p17
(lp18
I11
aI15
aI16
aI26
aI27
aI28
asS'p14-2070.xhtml'
p19
(lp20
I9
aI12
aI24
aI26
asS'p14-2087.xhtml'
p21
(lp22
I3
aI7
aI8
asS'p14-1104.xhtml'
p23
(lp24
I12
aI18
aI19
aI24
aI29
asS'p14-2119.xhtml'
p25
(lp26
I4
aI8
aI14
aI18
asS'p14-2071.xhtml'
p27
(lp28
I9
aI16
aI32
aI35
aI38
aI39
asS'p14-1108.xhtml'
p29
(lp30
I7
aI13
aI15
aI17
aI21
aI23
aI27
asS'p14-1008.xhtml'
p31
(lp32
I5
aI6
aI8
aI9
aI11
aI15
aI16
aI17
aI18
asS'p14-2137.xhtml'
p33
(lp34
I5
aI8
aI11
aI20
aI24
asS'p14-1048.xhtml'
p35
(lp36
I10
aI17
aI19
aI25
aI26
aI27
aI29
aI31
asS'p14-2032.xhtml'
p37
(lp38
I6
aI12
aI13
aI15
aI18
asS'p14-2129.xhtml'
p39
(lp40
I6
aI8
aI11
aI14
aI19
asS'p14-2045.xhtml'
p41
(lp42
I10
aI16
aI30
aI31
aI33
aI34
aI35
asS'p14-1124.xhtml'
p43
(lp44
I8
aI9
aI10
aI14
aI21
aI22
aI25
aI27
aI30
asS'p14-1142.xhtml'
p45
(lp46
I6
aI8
aI9
aI13
aI20
aI23
aI26
aI27
asS'p14-1020.xhtml'
p47
(lp48
I7
aI8
aI12
aI14
aI18
aI21
aI29
aI30
asS'p14-1117.xhtml'
p49
(lp50
I5
aI13
aI14
aI17
aI18
aI20
aI23
asS'p14-2029.xhtml'
p51
(lp52
I7
aI9
aI12
aI13
asS'p14-2063.xhtml'
p53
(lp54
I9
aI12
aI14
aI17
aI18
asS'p14-2044.xhtml'
p55
(lp56
I4
aI9
aI10
aI14
aI17
asS'p14-1023.xhtml'
p57
(lp58
I4
aI6
aI10
aI14
aI15
aI23
aI27
aI40
asS'p14-1062.xhtml'
p59
(lp60
I7
aI11
aI13
aI16
aI17
aI18
aI23
aI31
aI38
aI43
aI44
aI46
aI48
asS'p14-1085.xhtml'
p61
(lp62
I5
aI8
aI9
aI10
aI18
aI20
asS'p14-1090.xhtml'
p63
(lp64
I6
aI7
aI10
aI12
aI14
asS'p14-1013.xhtml'
p65
(lp66
I7
aI11
aI15
aI16
aI17
aI22
aI27
aI28
aI29
aI38
aI39
aI40
asS'p14-2061.xhtml'
p67
(lp68
I8
aI9
aI16
aI21
aI22
asS'p14-2062.xhtml'
p69
(lp70
I7
aI9
aI11
aI19
aI20
aI26
aI28
aI30
asS'p14-2138.xhtml'
p71
(lp72
I4
aI11
aI12
aI20
asS'p14-2069.xhtml'
p73
(lp74
I10
aI12
aI17
aI18
aI21
asS'p14-1128.xhtml'
p75
(lp76
I9
aI11
aI12
aI16
aI17
aI18
asS'p14-2127.xhtml'
p77
(lp78
I9
aI10
aI46
aI48
aI49
asS'p14-1132.xhtml'
p79
(lp80
I4
aI6
aI17
aI22
aI23
aI24
aI27
aI33
asS'p14-2073.xhtml'
p81
(lp82
I4
aI7
aI11
aI12
asS'p14-2135.xhtml'
p83
(lp84
I4
aI5
aI12
aI8
aI16
asS'p14-1063.xhtml'
p85
(lp86
I5
aI10
aI14
aI16
aI17
aI18
asS'p14-1065.xhtml'
p87
(lp88
I7
aI12
aI13
aI16
aI18
aI21
aI23
asS'p14-1126.xhtml'
p89
(lp90
I5
aI11
aI14
aI20
aI28
aI29
aI30
aI33
asS'p14-2012.xhtml'
p91
(lp92
I5
aI9
aI12
aI14
aI17
aI19
aI25
asS'p14-1100.xhtml'
p93
(lp94
I5
aI9
aI10
aI13
aI15
aI16
aI17
aI20
aI23
aI26
aI28
aI33
aI34
aI35
asS'p14-2083.xhtml'
p95
(lp96
I6
aI8
aI11
aI20
aI22
aI26
asS'p14-1105.xhtml'
p97
(lp98
I10
aI12
aI14
aI17
aI18
aI19
aI20
aI21
asS'p14-2099.xhtml'
p99
(lp100
I7
aI9
aI14
aI15
aI18
asS'p14-2113.xhtml'
p101
(lp102
I7
aI10
aI14
aI24
asS'p14-1109.xhtml'
p103
(lp104
I8
aI9
aI13
aI15
aI18
aI19
asS'p14-1144.xhtml'
p105
(lp106
I6
aI8
aI10
aI11
aI16
aI18
aI20
aI21
asS'p14-1007.xhtml'
p107
(lp108
I7
aI8
aI9
aI19
aI20
aI25
aI26
asS'p14-2005.xhtml'
p109
(lp110
I3
aI5
aI12
aI13
aI15
aI16
aI17
aI18
asS'p14-2121.xhtml'
p111
(lp112
I7
aI8
aI9
aI15
aI16
aI23
asS'p14-1096.xhtml'
p113
(lp114
I10
aI12
aI13
aI19
aI20
aI21
aI22
asS'p14-1115.xhtml'
p115
(lp116
I10
aI11
aI15
aI18
aI24
aI27
aI28
aI35
aI36
asS'p14-2058.xhtml'
p117
(lp118
I5
aI7
aI15
aI16
asS'p14-1022.xhtml'
p119
(lp120
I9
aI11
aI14
aI16
aI20
aI30
aI35
aI36
asS'p14-2066.xhtml'
p121
(lp122
I15
aI16
aI22
aI30
asS'p14-1027.xhtml'
p123
(lp124
I10
aI12
aI17
aI18
aI21
asS'p14-1018.xhtml'
p125
(lp126
I6
aI9
aI10
aI12
aI13
asS'p14-1121.xhtml'
p127
(lp128
I9
aI10
aI12
aI14
aI16
aI17
asS'p14-2060.xhtml'
p129
(lp130
I5
aI7
aI8
aI11
aI15
aI19
asS'p14-2108.xhtml'
p131
(lp132
I3
aI4
aI5
aI6
asS'p14-1067.xhtml'
p133
(lp134
I10
aI12
aI13
aI21
aI22
aI23
aI28
aI34
aI36
asS'p14-1129.xhtml'
p135
(lp136
I12
aI15
aI16
aI18
asS'p14-1050.xhtml'
p137
(lp138
I11
aI12
aI17
aI22
aI23
aI30
asS'p14-2049.xhtml'
p139
(lp140
I2
aI4
aI10
aI11
aI16
aI49
asS'p14-1012.xhtml'
p141
(lp142
I4
aI6
aI9
aI13
aI16
aI19
aI22
aI24
aI25
asS'p14-2109.xhtml'
p143
(lp144
I4
aI5
aI10
aI12
aI14
asS'p14-2055.xhtml'
p145
(lp146
I7
aI13
aI20
aI21
aI22
aI23
asS'p14-1088.xhtml'
p147
(lp148
I6
aI7
aI11
asS'p14-1045.xhtml'
p149
(lp150
I7
aI8
aI11
aI15
aI16
aI19
aI21
aI24
asS'p14-1014.xhtml'
p151
(lp152
I8
aI10
aI11
aI14
aI15
aI18
aI20
aI21
aI23
asS'p14-2030.xhtml'
p153
(lp154
I4
aI8
aI10
aI12
aI13
asS'p14-2035.xhtml'
p155
(lp156
I3
aI7
aI8
aI13
aI19
aI21
asS'p14-2088.xhtml'
p157
(lp158
I6
aI7
aI14
aI19
aI24
asS'p14-1101.xhtml'
p159
(lp160
I8
aI12
aI13
aI17
aI18
aI19
aI25
asS'p14-2114.xhtml'
p161
(lp162
I8
aI10
aI18
aI27
aI28
asS'p14-1145.xhtml'
p163
(lp164
I4
aI6
aI8
aI10
aI16
aI25
aI28
aI30
aI31
aI34
asS'p14-2013.xhtml'
p165
(lp166
I8
aI10
aI11
aI13
aI16
aI19
aI20
asS'p14-2047.xhtml'
p167
(lp168
I5
aI6
aI8
aI9
aI14
asS'p14-1106.xhtml'
p169
(lp170
I7
aI10
aI13
aI16
aI20
aI21
asS'p14-1031.xhtml'
p171
(lp172
I7
aI8
aI21
aI24
aI28
aI31
aI34
aI35
aI37
aI38
asS'p14-1140.xhtml'
p173
(lp174
I7
aI13
aI14
aI15
aI1
aI29
aI33
aI34
aI36
asS'p14-1091.xhtml'
p175
(lp176
I6
aI9
aI10
aI16
aI17
aI20
asS'p14-2082.xhtml'
p177
(lp178
I10
aI11
aI20
aI21
aI27
asS'p14-1060.xhtml'
p179
(lp180
I9
aI10
aI13
aI20
aI22
aI29
aI30
asS'p14-2059.xhtml'
p181
(lp182
I12
aI14
aI18
aI21
asS'p14-2065.xhtml'
p183
(lp184
I5
aI7
aI10
asS'p14-1070.xhtml'
p185
(lp186
I4
aI13
aI18
asS'p14-1068.xhtml'
p187
(lp188
I8
aI14
aI15
aI16
aI19
aI20
aI25
aI26
asS'p14-1025.xhtml'
p189
(lp190
I4
aI5
aI7
aI8
aI11
aI16
aI19
asS'p14-1019.xhtml'
p191
(lp192
I9
aI11
aI13
aI22
aI30
aI34
aI35
aI40
aI41
asS'p14-2074.xhtml'
p193
(lp194
I11
aI12
aI16
asS'p14-1092.xhtml'
p195
(lp196
I6
aI7
aI8
aI9
aI11
aI16
aI17
aI18
aI19
asS'p14-1097.xhtml'
p197
(lp198
I6
aI10
aI14
aI1
asS'p14-2053.xhtml'
p199
(lp200
I6
asS'p14-1056.xhtml'
p201
(lp202
I10
aI11
aI12
aI13
aI17
aI18
aI19
aI25
aI26
aI29
asS'p14-2096.xhtml'
p203
(lp204
I15
aI17
aI22
aI23
asS'p14-1011.xhtml'
p205
(lp206
I6
aI7
aI9
aI10
aI11
aI24
aI26
aI28
aI29
aI42
asS'p14-1079.xhtml'
p207
(lp208
I7
aI10
aI11
aI28
aI29
aI35
aI38
asS'p14-2068.xhtml'
p209
(lp210
I12
aI13
aI14
aI19
asS'p14-1123.xhtml'
p211
(lp212
I6
aI7
aI8
aI14
aI15
aI20
asS'p14-2026.xhtml'
p213
(lp214
I7
aI8
aI15
aI16
aI17
aI28
aI29
asS'p14-2054.xhtml'
p215
(lp216
I7
aI17
aI18
aI19
aI20
aI21
asS'p14-1083.xhtml'
p217
(lp218
I4
aI7
aI10
aI11
aI24
aI27
aI28
asS'p14-1044.xhtml'
p219
(lp220
I7
aI8
aI11
aI13
aI15
aI16
aI17
aI18
asS'p14-2048.xhtml'
p221
(lp222
I6
aI8
aI11
asS'p14-1146.xhtml'
p223
(lp224
I8
aI10
aI15
aI16
aI19
aI22
aI25
aI27
asS'p14-1077.xhtml'
p225
(lp226
I6
aI8
aI10
aI14
aI16
aI17
aI21
aI22
asS'p14-2095.xhtml'
p227
(lp228
I5
aI8
aI15
aI16
aI20
aI22
aI26
asS'p14-2122.xhtml'
p229
(lp230
I4
aI5
aI7
aI15
aI16
asS'p14-1122.xhtml'
p231
(lp232
I9
aI10
aI17
aI20
aI21
aI22
aI23
aI25
aI26
asS'p14-2010.xhtml'
p233
(lp234
I6
aI7
aI8
aI12
aI16
aI17
aI21
aI27
asS'p14-1107.xhtml'
p235
(lp236
I8
aI11
aI13
aI16
aI19
aI23
asS'p14-2104.xhtml'
p237
(lp238
I5
aI13
aI14
aI17
aI19
asS'p14-2031.xhtml'
p239
(lp240
I8
aI9
aI10
aI11
aI20
aI22
aI28
aI29
asS'p14-1133.xhtml'
p241
(lp242
I9
aI12
aI13
aI16
aI21
aI23
aI26
aI29
aI31
aI32
asS'p14-2034.xhtml'
p243
(lp244
I7
aI9
aI10
aI14
aI21
asS'p14-1073.xhtml'
p245
(lp246
I13
aI14
aI15
aI18
aI20
aI28
asS'p14-1024.xhtml'
p247
(lp248
I6
aI8
aI10
aI11
aI15
aI17
aI18
asS'p14-2118.xhtml'
p249
(lp250
I2
aI10
aI11
aI17
asS'p14-1028.xhtml'
p251
(lp252
I8
aI9
aI11
aI12
aI18
aI22
aI23
aI30
asS'p14-2051.xhtml'
p253
(lp254
I4
aI12
aI15
aI17
asS'p14-2085.xhtml'
p255
(lp256
I5
aI14
aI19
aI21
aI22
asS'p14-2092.xhtml'
p257
(lp258
I5
aI8
aI9
aI16
aI17
aI18
asS'p14-2101.xhtml'
p259
(lp260
I12
aI39
aI42
asS'p14-1057.xhtml'
p261
(lp262
I9
aI12
aI13
aI17
aI19
aI20
asS'p14-1052.xhtml'
p263
(lp264
I8
aI9
aI10
aI11
aI13
aI15
aI18
aI22
aI23
asS'p14-1047.xhtml'
p265
(lp266
I7
aI8
aI10
aI11
aI14
aI18
aI25
aI30
aI36
asS'p14-2040.xhtml'
p267
(lp268
I6
aI15
aI16
aI23
asS'p14-2078.xhtml'
p269
(lp270
I4
aI6
aI11
aI26
asS'p14-1043.xhtml'
p271
(lp272
I8
aI9
aI11
aI15
aI16
aI22
aI26
aI38
aI40
aI41
aI42
asS'p14-1015.xhtml'
p273
(lp274
I14
aI17
aI19
aI20
aI21
aI27
aI34
aI36
aI38
asS'p14-2080.xhtml'
p275
(lp276
I3
aI6
aI11
aI20
asS'p14-1136.xhtml'
p277
(lp278
I6
aI7
aI8
aI10
aI12
aI13
aI14
asS'p14-2016.xhtml'
p279
(lp280
I5
aI6
asS'p14-2134.xhtml'
p281
(lp282
I5
aI6
aI10
aI11
aI14
asS'p14-2008.xhtml'
p283
(lp284
I6
aI10
aI12
aI15
asS'p14-1093.xhtml'
p285
(lp286
I16
aI17
aI19
aI20
aI26
aI32
aI36
aI44
aI46
asS'p14-2046.xhtml'
p287
(lp288
I6
aI7
aI24
aI25
aI26
asS'p14-2133.xhtml'
p289
(lp290
I5
aI15
aI16
aI22
aI23
asS'p14-2017.xhtml'
p291
(lp292
I5
aI6
aI11
aI12
asS'p14-2105.xhtml'
p293
(lp294
I7
aI13
aI15
aI16
asS'p14-2050.xhtml'
p295
(lp296
I7
aI8
aI9
aI16
aI19
aI21
aI22
asS'p14-1082.xhtml'
p297
(lp298
I7
aI8
aI11
aI15
aI16
aI22
asS'p14-1054.xhtml'
p299
(lp300
I11
aI14
aI15
aI16
aI25
aI26
aI27
asS'p14-2103.xhtml'
p301
(lp302
I9
aI20
aI31
aI40
asS'p14-2039.xhtml'
p303
(lp304
I4
aI8
aI9
aI12
aI14
aI19
aI27
asS'p14-1119.xhtml'
p305
(lp306
I2
aI4
aI6
aI7
asS'p14-1138.xhtml'
p307
(lp308
I5
aI6
aI11
aI12
aI14
aI17
aI21
aI22
aI30
aI31
asS'p14-1010.xhtml'
p309
(lp310
I5
aI6
aI7
aI12
aI16
aI17
asS'p14-2084.xhtml'
p311
(lp312
I4
aI9
aI14
aI18
aI19
asS'p14-2019.xhtml'
p313
(lp314
I9
aI11
aI18
aI19
aI20
asS'p14-1058.xhtml'
p315
(lp316
I7
aI8
aI12
aI16
aI17
aI18
aI21
aI22
asS'p14-1039.xhtml'
p317
(lp318
I4
aI8
aI13
aI15
aI17
aI19
aI21
asS'p14-2098.xhtml'
p319
(lp320
I4
aI16
aI20
aI21
aI22
asS'p14-1116.xhtml'
p321
(lp322
I18
aI24
aI28
aI30
aI31
aI33
aI35
asS'p14-1130.xhtml'
p323
(lp324
I10
aI13
aI14
aI22
aI32
aI33
aI35
aI38
asS'p14-1113.xhtml'
p325
(lp326
I7
aI12
aI13
aI14
aI29
aI34
aI35
aI36
aI37
aI40
asS'p14-1102.xhtml'
p327
(lp328
I5
aI11
aI15
asS'p14-2128.xhtml'
p329
(lp330
I5
aI8
aI22
aI24
asS'p14-2120.xhtml'
p331
(lp332
I4
aI8
aI10
aI39
aI16
aI19
asS'p14-2007.xhtml'
p333
(lp334
I12
aI13
aI15
aI24
aI28
as.