(lp0
(lp1
I0
aI0
aI1
aI2
aI12
aI13
aI18
aI19
aI19
aI19
aa(lp2
I1
aI0
aI1
aI3
aI4
aI6
aI10
aI11
aI12
aI13
aI13
aa(lp3
I2
aI0
aI1
aI2
aI7
aI11
aI12
aa(lp4
I3
aI1
aI2
aI4
aI5
aI6
aI19
aI21
aI23
aI24
aI37
aa(lp5
I4
aI0
aI2
aI5
aI9
aI12
aI15
aI18
aI20
aI21
aa(lp6
I5
aI0
aI4
aI8
aI9
aI10
aI9
aI10
aI15
aI20
aI21
aI22
aI31
aI32
aI33
aa(lp7
I6
aI3
aI5
aI6
aI9
aI10
aI13
aI15
aI16
aI18
aa(lp8
I7
aI6
aI9
aI11
aI12
aI13
aI19
aI26
aI28
aI30
aa(lp9
I8
aI2
aI2
aI5
aI6
aI8
aI9
aa(lp10
I9
aI0
aI2
aI4
aI13
aI21
aI25
aI26
aI31
aI32
aa(lp11
I10
aI0
aI1
aI5
aI7
aI11
aI14
aI22
aI23
aa(lp12
I11
aI0
aI2
aI5
aI7
aI11
aI21
aI26
aI27
aa(lp13
I12
aI0
aI2
aI6
aI10
aI11
aI19
aI23
aI36
aa(lp14
I13
aI1
aI3
aI5
aI6
aI10
aI12
aI13
aI13
aI13
aa(lp15
I14
aI0
aI1
aI3
aI4
aI7
aI12
aI15
aa(lp16
I15
aI0
aI2
aI7
aI8
aI11
aa(lp17
I16
aI1
aI2
aI4
aI5
aI11
aI15
aI16
aI23
aa(lp18
I17
aI2
aI6
aI7
aI17
aI18
aI19
aa(lp19
I18
aI1
aI2
aI15
aI18
aI22
aI25
aI28
aI29
aI31
aI32
aa(lp20
I-1
aI-1
aI-1
aI-1
aI-1
aI-1
aI-1
aa(lp21
I20
aI0
aI4
aI9
aI11
aI13
aI15
aI17
aa(lp22
I-1
aI-1
aa(lp23
I22
aI0
aI1
aI3
aI7
aI8
aI14
aI18
aI30
aI32
aI33
aI34
aa(lp24
I23
aI2
aI3
aI6
aI8
aI10
aI11
aI12
aI13
aa(lp25
I24
aI0
aI1
aI4
aI8
aI9
aI12
aI14
aI17
aa(lp26
I25
aI1
aI2
aI4
aI5
aI8
aI12
aI19
aI24
aI30
aa(lp27
I26
aI0
aI7
aI9
aI15
aI16
aI17
aI19
aI21
aa(lp28
I27
aI3
aI4
aI9
aI14
aI15
aI22
aa(lp29
I28
aI3
aI4
aI5
aI6
aI8
aI10
aI13
aI17
aI18
aa(lp30
I29
aI2
aI5
aI6
aI7
aI16
aI17
aI18
aa(lp31
I30
aI2
aI3
aI4
aI5
aI9
aI10
aI11
aI17
aI18
aI21
aa(lp32
I31
aI3
aI6
aI7
aI11
aI13
aI14
aa(lp33
I32
aI2
aI3
aI3
aI7
aI7
aI11
aI12
aI13
aI16
aI17
aa(lp34
I33
aI4
aI5
aI8
aI15
aI17
aI24
aI25
aa(lp35
I34
aI0
aI4
aI0
aI6
aI9
aI10
aI11
aI16
aI24
aI31
aI36
aI37
aI39
aI41
aa(lp36
I35
aI1
aI6
aI10
aI12
aI13
aI14
aa(lp37
I36
aI0
aI2
aI5
aI8
aI10
aI13
aa(lp38
I37
aI3
aI8
aI9
aI12
aI14
aI17
aI19
aa(lp39
I38
aI4
aI6
aI7
aI15
aI16
aI17
aI22
aI28
aI30
aa(lp40
I39
aI3
aI9
aI10
aI11
aI14
aI15
aI20
aI21
aa(lp41
I40
aI0
aI0
aI9
aI14
aa(lp42
I41
aI7
aI8
aI9
aI12
aI14
aI22
aa(lp43
I42
aI1
aI3
aI5
aI9
aI11
aI12
aI16
aI17
aa(lp44
I43
aI0
aI3
aI4
aI21
aI22
aI28
aI31
aa(lp45
I44
aI0
aI1
aI4
aI8
aI9
aI15
aa(lp46
I45
aI0
aI3
aI6
aI7
aI20
aI23
aI24
aa(lp47
I46
aI0
aI3
aI4
aI5
aI13
aI15
aI15
aa(lp48
I-1
aI-1
aI-1
aI-1
aI-1
aI-1
aI-1
aI-1
aa(lp49
I48
aI0
aI1
aI5
aa(lp50
I49
aI2
aI3
aI6
aI8
aI10
aa(lp51
I50
aI0
aI3
aI4
aI10
aI11
aI14
aa(lp52
I51
aI1
aI2
aI3
aI4
aI6
aI11
aI12
aI13
aI14
aa(lp53
I52
aI7
aI8
aI10
aI11
aI17
aI23
aI27
aI35
aI37
aa(lp54
I53
aI3
aI5
aI6
aI12
aI13
aI14
aI15
aa(lp55
I54
aI1
aI5
aI9
aI10
aa(lp56
I55
aI0
aI4
aI5
aI8
aI10
aI11
aI12
aI15
aI18
aI21
aI23
aI28
aI29
aI30
aa(lp57
I56
aI3
aI7
aI8
aI12
aI13
aI14
aI20
aa(lp58
I57
aI0
aI6
aI10
aa(lp59
I58
aI6
aI12
aI13
aI18
aI23
aa(lp60
I59
aI4
aI6
aI8
aI11
aI12
aI13
aI14
aI15
aa(lp61
I60
aI2
aI5
aI8
aI11
aI15
aI16
aa(lp62
I61
aI2
aI5
aI7
aI10
aI13
aI17
aa(lp63
I62
aI0
aI6
aI8
aI10
aI14
aI16
aI20
aa(lp64
I63
aI2
aI3
aI7
aI9
aI12
aI13
aa(lp65
I64
aI0
aI5
aI6
aI7
aI22
aI27
aI28
aI29
aI30
aI33
aa(lp66
I65
aI4
aI5
aI9
aI12
aI18
aI21
aI22
aI29
aI30
aa(lp67
I66
aI0
aI6
aI10
aI12
aI13
aI15
aI17
aa(lp68
I67
aI0
aI8
aI9
aI12
aI13
aI15
aI18
aa(lp69
I68
aI2
aI3
aI8
aI17
aI20
aI25
aI28
aa(lp70
I69
aI0
aI2
aI4
aI5
aa(lp71
I70
aI4
aI5
aI7
aI9
aI11
aI12
aa(lp72
I71
aI3
aI4
aI11
aI14
aI15
aI16
aI17
aI19
aI20
aa(lp73
I72
aI1
aI2
aI3
aI9
aI10
aI15
aa(lp74
I73
aI2
aI3
aI4
aI8
aI15
aI16
aI19
aI21
aI24
aa(lp75
I-1
aI-1
aI-1
aI-1
aI-1
aI-1
aI-1
aI-1
aa(lp76
I75
aI0
aI6
aI9
aI15
aI23
aI24
aI25
aI28
aa(lp77
I76
aI3
aI5
aI6
aI10
aI11
aI12
aa(lp78
I77
aI3
aI6
aI7
aI9
aa(lp79
I78
aI2
aI5
aI6
aI14
aI24
aI25
aI27
aI30
aa(lp80
I79
aI5
aI6
aI10
aI11
aI12
aa(lp81
I80
aI0
aI2
aI13
aI18
aI19
aI20
aI23
aI29
aa(lp82
I81
aI0
aI3
aI4
aI7
aI12
aI14
aI17
aI20
aI22
aI23
aa(lp83
I82
aI2
aI3
aI4
aI4
aI6
aI8
aI9
aI10
aa(lp84
I83
aI0
aI1
aI6
aI7
aI9
aI12
aI16
aI17
aI25
aI26
aa(lp85
I84
aI2
aI8
aI9
aI10
aI23
aI24
aI28
aI29
aI31
aa(lp86
I85
aI2
aI4
aI5
aI9
aI16
aI19
aI22
aI23
aa(lp87
I86
aI2
aI4
aI6
aI7
aI12
aI14
aI16
aI17
aa(lp88
I87
aI0
aI2
aI4
aI6
aI12
aI21
aI24
aI26
aI27
aI30
aa(lp89
I88
aI1
aI3
aI8
aI9
aI12
aI15
aI18
aI20
aa(lp90
I89
aI1
aI3
aI8
aI10
aI11
aI13
aI15
aa(lp91
I90
aI0
aI2
aI9
aI10
aI12
aI13
aI14
aI15
aa(lp92
I91
aI4
aI5
aI7
aI16
aI20
aa(lp93
I92
aI0
aI4
aI6
aI9
aa(lp94
I93
aI2
aI3
aI4
aI8
aI12
aI13
aI17
aI23
aa(lp95
I94
aI0
aI4
aI7
aI9
aI12
aI14
aI20
aa(lp96
I95
aI1
aI3
aI4
aI6
aI9
aI12
aI13
aa(lp97
I96
aI3
aI4
aa(lp98
I97
aI0
aI1
aI6
aI7
aa(lp99
I98
aI4
aI6
aI13
aI14
aI15
aa(lp100
I99
aI2
aI3
aI10
aI11
aI12
aI23
aI24
aa(lp101
I100
aI3
aI5
aI8
aI9
aa(lp102
I101
aI0
aI4
aI6
aI8
aI9
aa(lp103
I102
aI2
aI3
aI4
aI5
aI14
aI16
aI22
aI23
aa(lp104
I103
aI0
aI6
aI7
aI9
aI12
aa(lp105
I-1
aI-1
aI-1
aI-1
aI-1
aI-1
aa(lp106
I105
aI7
aI9
aI10
aI14
aI21
aa(lp107
I106
aI0
aI4
aI5
aI10
aI16
aI18
aa(lp108
I107
aI8
aI11
aI12
aI17
aI18
aI19
aa(lp109
I108
aI0
aI4
aI5
aI8
aI10
aI15
aI23
aa(lp110
I109
aI0
aI9
aI10
aI17
aa(lp111
I110
aI0
aI5
aI6
aI10
aI13
aa(lp112
I111
aI4
aI10
aI24
aI25
aI27
aI28
aI29
aa(lp113
I112
aI3
aI4
aI21
aI22
aI23
aa(lp114
I113
aI0
aI1
aI3
aI4
aI9
aa(lp115
I114
aI3
aI5
aI8
aa(lp116
I115
aI0
aI2
aI8
aI9
aI14
aI47
aa(lp117
I116
aI3
aI4
aI5
aI12
aI15
aI17
aI18
aa(lp118
I117
aI2
aI10
aI13
aI15
aa(lp119
I118
aI0
aI1
aI5
aI9
aI15
aa(lp120
I119
aI1
aa(lp121
I120
aI0
aI10
aI11
aI12
aI13
aI14
aa(lp122
I121
aI2
aI8
aI15
aI16
aI17
aI18
aa(lp123
I122
aI0
aI2
aI10
aI11
aa(lp124
I123
aI6
aI8
aI12
aI15
aa(lp125
I124
aI1
aI3
aI4
aI7
aI11
aI15
aa(lp126
I125
aI2
aI3
aI10
aI15
aI16
aa(lp127
I126
aI1
aI3
aI5
aI13
aI14
aI20
aI22
aI24
aa(lp128
I127
aI1
aI4
aI6
aI9
aI10
aa(lp129
I128
aI0
aI2
aI5
aa(lp130
I129
aI7
aI8
aI14
aI22
aa(lp131
I130
aI6
aI7
aI8
aI13
aa(lp132
I131
aI3
aI5
aI10
aI11
aI14
aa(lp133
I132
aI5
aI8
aI20
aI22
aa(lp134
I133
aI4
aI11
aI27
aI30
aI33
aI34
aa(lp135
I134
aI0
aI3
aI7
aI8
aa(lp136
I135
aI1
aI2
aI6
aa(lp137
I136
aI0
aI2
aI7
aI22
aa(lp138
I137
aI0
aI3
aI8
aI17
aa(lp139
I138
aI0
aI1
aI10
aI11
aI17
aa(lp140
I139
aI0
aI2
aI5
aI14
aI16
aI20
aa(lp141
I140
aI0
aI5
aI10
aI14
aI15
aa(lp142
I141
aI0
aI9
aI14
aI16
aI17
aa(lp143
I142
aI0
aI4
aI5
aa(lp144
I143
aI2
aI3
aI10
aI15
aI20
aa(lp145
I144
aI0
aI3
aI4
aI11
aI12
aI13
aa(lp146
I145
aI0
aI3
aI10
aI11
aI15
aI17
aI21
aa(lp147
I146
aI9
aI11
aI16
aI17
aa(lp148
I147
aI1
aI13
aI17
aI18
aI19
aa(lp149
I148
aI4
aI6
aI11
aI12
aI15
aa(lp150
I149
aI4
aI31
aI34
aI34
aa(lp151
I150
aI4
aI15
aI26
aI35
aa(lp152
I151
aI0
aI8
aI9
aI12
aI14
aa(lp153
I152
aI2
aI8
aI10
aI11
aa(lp154
I153
aI7
aI9
aI12
aI14
aI18
aa(lp155
I154
aI0
aI1
aI2
aI3
aa(lp156
I155
aI0
aI1
aI6
aI8
aI10
aa(lp157
I156
aI4
aI5
aI10
aI12
aI14
aa(lp158
I157
aI4
aI7
aI11
aI21
aa(lp159
I158
aI0
aI2
aI10
aI19
aI20
aa(lp160
I159
aI0
aI8
aI9
aI15
aa(lp161
I160
aI0
aI4
aI10
aI14
aa(lp162
I161
aI0
aI4
aI6
aI35
aI12
aI15
aa(lp163
I162
aI2
aI3
aI4
aI10
aI11
aI18
aa(lp164
I163
aI0
aI1
aI3
aI11
aI12
aa(lp165
I164
aI2
aI3
aI39
aI41
aI42
aa(lp166
I165
aI0
aI3
aI17
aI19
aa(lp167
I166
aI0
aI2
aI5
aI8
aI13
aa(lp168
I167
aI0
aI10
aI11
aI17
aI18
aa(lp169
I168
aI1
aI2
aI6
aI7
aI10
aa(lp170
I169
aI0
aI1
aI8
aI4
aI12
aa(lp171
I170
aI1
aI4
aI7
aI16
aI20
aa(lp172
I171
aI0
aI7
aI8
aI16
aa.