(dp0
S'02'
p1
(dp2
VROUGE-L
p3
(lp4
(lp5
VAverage_R
p6
aV0.37856
p7
aV0.36607
p8
aV0.39105
p9
aa(lp10
VAverage_P
p11
aV0.39326
p12
aV0.38214
p13
aV0.40436
p14
aa(lp15
VAverage_F
p16
aV0.37728
p17
aV0.36589
p18
aV0.38780
p19
aasVROUGE-4
p20
(lp21
(lp22
VAverage_R
p23
aV0.07712
p24
aV0.06976
p25
aV0.08498
p26
aa(lp27
VAverage_P
p28
aV0.08027
p29
aV0.07279
p30
aV0.08848
p31
aa(lp32
VAverage_F
p33
aV0.07652
p34
aV0.06923
p35
aV0.08442
p36
aasVROUGE-2
p37
(lp38
(lp39
VAverage_R
p40
aV0.16974
p41
aV0.15897
p42
aV0.18156
p43
aa(lp44
VAverage_P
p45
aV0.17617
p46
aV0.16536
p47
aV0.18774
p48
aa(lp49
VAverage_F
p50
aV0.16861
p51
aV0.15837
p52
aV0.17912
p53
aasVROUGE-3
p54
(lp55
(lp56
VAverage_R
p57
aV0.10595
p58
aV0.09707
p59
aV0.11563
p60
aa(lp61
VAverage_P
p62
aV0.10985
p63
aV0.10072
p64
aV0.11968
p65
aa(lp66
VAverage_F
p67
aV0.10516
p68
aV0.09675
p69
aV0.11424
p70
aasVROUGE-1
p71
(lp72
(lp73
VAverage_R
p74
aV0.41321
p75
aV0.40019
p76
aV0.42591
p77
aa(lp78
VAverage_P
p79
aV0.42936
p80
aV0.41789
p81
aV0.44037
p82
aa(lp83
VAverage_F
p84
aV0.41193
p85
aV0.40055
p86
aV0.42274
p87
aassS'03'
p88
(dp89
VROUGE-L
p90
(lp91
(lp92
VAverage_R
p93
aV0.41171
p94
aV0.40128
p95
aV0.42281
p96
aa(lp97
VAverage_P
p98
aV0.41434
p99
aV0.40504
p100
aV0.42286
p101
aa(lp102
VAverage_F
p103
aV0.40716
p104
aV0.39906
p105
aV0.41599
p106
aasVROUGE-4
p107
(lp108
(lp109
VAverage_R
p110
aV0.08257
p111
aV0.07548
p112
aV0.09055
p113
aa(lp114
VAverage_P
p115
aV0.08167
p116
aV0.07461
p117
aV0.08910
p118
aa(lp119
VAverage_F
p120
aV0.08083
p121
aV0.07403
p122
aV0.08836
p123
aasVROUGE-2
p124
(lp125
(lp126
VAverage_R
p127
aV0.18545
p128
aV0.17548
p129
aV0.19604
p130
aa(lp131
VAverage_P
p132
aV0.18475
p133
aV0.17545
p134
aV0.19395
p135
aa(lp136
VAverage_F
p137
aV0.18235
p138
aV0.17333
p139
aV0.19191
p140
aasVROUGE-3
p141
(lp142
(lp143
VAverage_R
p144
aV0.11452
p145
aV0.10596
p146
aV0.12373
p147
aa(lp148
VAverage_P
p149
aV0.11329
p150
aV0.10525
p151
aV0.12153
p152
aa(lp153
VAverage_F
p154
aV0.11219
p155
aV0.10408
p156
aV0.12066
p157
aasVROUGE-1
p158
(lp159
(lp160
VAverage_R
p161
aV0.44515
p162
aV0.43436
p163
aV0.45667
p164
aa(lp165
VAverage_P
p166
aV0.44803
p167
aV0.43872
p168
aV0.45664
p169
aa(lp170
VAverage_F
p171
aV0.44026
p172
aV0.43193
p173
aV0.44908
p174
aassS'01'
p175
(dp176
VROUGE-L
p177
(lp178
(lp179
VAverage_R
p180
aV0.42736
p181
aV0.41540
p182
aV0.43895
p183
aa(lp184
VAverage_P
p185
aV0.42745
p186
aV0.41870
p187
aV0.43724
p188
aa(lp189
VAverage_F
p190
aV0.42257
p191
aV0.41323
p192
aV0.43218
p193
aasVROUGE-4
p194
(lp195
(lp196
VAverage_R
p197
aV0.09464
p198
aV0.08686
p199
aV0.10327
p200
aa(lp201
VAverage_P
p202
aV0.09340
p203
aV0.08650
p204
aV0.10115
p205
aa(lp206
VAverage_F
p207
aV0.09282
p208
aV0.08560
p209
aV0.10057
p210
aasVROUGE-2
p211
(lp212
(lp213
VAverage_R
p214
aV0.20678
p215
aV0.19570
p216
aV0.21841
p217
aa(lp218
VAverage_P
p219
aV0.20528
p220
aV0.19543
p221
aV0.21575
p222
aa(lp223
VAverage_F
p224
aV0.20359
p225
aV0.19372
p226
aV0.21404
p227
aasVROUGE-3
p228
(lp229
(lp230
VAverage_R
p231
aV0.13070
p232
aV0.12144
p233
aV0.14066
p234
aa(lp235
VAverage_P
p236
aV0.12931
p237
aV0.12129
p238
aV0.13836
p239
aa(lp240
VAverage_F
p241
aV0.12841
p242
aV0.12005
p243
aV0.13744
p244
aasVROUGE-1
p245
(lp246
(lp247
VAverage_R
p248
aV0.45984
p249
aV0.44748
p250
aV0.47198
p251
aa(lp252
VAverage_P
p253
aV0.46027
p254
aV0.45088
p255
aV0.47061
p256
aa(lp257
VAverage_F
p258
aV0.45484
p259
aV0.44509
p260
aV0.46498
p261
aassS'04'
p262
(dp263
VROUGE-L
p264
(lp265
(lp266
VAverage_R
p267
aV0.38917
p268
aV0.37708
p269
aV0.40195
p270
aa(lp271
VAverage_P
p272
aV0.40755
p273
aV0.39761
p274
aV0.41816
p275
aa(lp276
VAverage_F
p277
aV0.39054
p278
aV0.37984
p279
aV0.40148
p280
aasVROUGE-4
p281
(lp282
(lp283
VAverage_R
p284
aV0.08121
p285
aV0.07405
p286
aV0.08931
p287
aa(lp288
VAverage_P
p289
aV0.08445
p290
aV0.07697
p291
aV0.09241
p292
aa(lp293
VAverage_F
p294
aV0.08119
p295
aV0.07417
p296
aV0.08908
p297
aasVROUGE-2
p298
(lp299
(lp300
VAverage_R
p301
aV0.17802
p302
aV0.16688
p303
aV0.18951
p304
aa(lp305
VAverage_P
p306
aV0.18543
p307
aV0.17504
p308
aV0.19594
p309
aa(lp310
VAverage_F
p311
aV0.17813
p312
aV0.16778
p313
aV0.18871
p314
aasVROUGE-3
p315
(lp316
(lp317
VAverage_R
p318
aV0.11140
p319
aV0.10297
p320
aV0.12102
p321
aa(lp322
VAverage_P
p323
aV0.11550
p324
aV0.10680
p325
aV0.12495
p326
aa(lp327
VAverage_F
p328
aV0.11134
p329
aV0.10299
p330
aV0.12040
p331
aasVROUGE-1
p332
(lp333
(lp334
VAverage_R
p335
aV0.42447
p336
aV0.41200
p337
aV0.43752
p338
aa(lp339
VAverage_P
p340
aV0.44479
p341
aV0.43460
p342
aV0.45575
p343
aa(lp344
VAverage_F
p345
aV0.42610
p346
aV0.41490
p347
aV0.43695
p348
aassS'05'
p349
(dp350
VROUGE-L
p351
(lp352
(lp353
VAverage_R
p354
aV0.40739
p355
aV0.39547
p356
aV0.41968
p357
aa(lp358
VAverage_P
p359
aV0.41410
p360
aV0.40425
p361
aV0.42460
p362
aa(lp363
VAverage_F
p364
aV0.40563
p365
aV0.39576
p366
aV0.41523
p367
aasVROUGE-4
p368
(lp369
(lp370
VAverage_R
p371
aV0.08779
p372
aV0.07956
p373
aV0.09657
p374
aa(lp375
VAverage_P
p376
aV0.08713
p377
aV0.08001
p378
aV0.09524
p379
aa(lp380
VAverage_F
p381
aV0.08624
p382
aV0.07883
p383
aV0.09447
p384
aasVROUGE-2
p385
(lp386
(lp387
VAverage_R
p388
aV0.19060
p389
aV0.17983
p390
aV0.20264
p391
aa(lp392
VAverage_P
p393
aV0.19153
p394
aV0.18158
p395
aV0.20278
p396
aa(lp397
VAverage_F
p398
aV0.18863
p399
aV0.17813
p400
aV0.19966
p401
aasVROUGE-3
p402
(lp403
(lp404
VAverage_R
p405
aV0.12060
p406
aV0.11116
p407
aV0.13091
p408
aa(lp409
VAverage_P
p410
aV0.12015
p411
aV0.11181
p412
aV0.12973
p413
aa(lp414
VAverage_F
p415
aV0.11880
p416
aV0.11016
p417
aV0.12859
p418
aasVROUGE-1
p419
(lp420
(lp421
VAverage_R
p422
aV0.43875
p423
aV0.42669
p424
aV0.45122
p425
aa(lp426
VAverage_P
p427
aV0.44632
p428
aV0.43612
p429
aV0.45705
p430
aa(lp431
VAverage_F
p432
aV0.43700
p433
aV0.42713
p434
aV0.44714
p435
aassS'08'
p436
(dp437
VROUGE-L
p438
(lp439
(lp440
VAverage_R
p441
aV0.41514
p442
aV0.40317
p443
aV0.42651
p444
aa(lp445
VAverage_P
p446
aV0.42363
p447
aV0.41377
p448
aV0.43366
p449
aa(lp450
VAverage_F
p451
aV0.41449
p452
aV0.40419
p453
aV0.42471
p454
aasVROUGE-4
p455
(lp456
(lp457
VAverage_R
p458
aV0.09032
p459
aV0.08254
p460
aV0.09868
p461
aa(lp462
VAverage_P
p463
aV0.09052
p464
aV0.08309
p465
aV0.09840
p466
aa(lp467
VAverage_F
p468
aV0.08926
p469
aV0.08160
p470
aV0.09734
p471
aasVROUGE-2
p472
(lp473
(lp474
VAverage_R
p475
aV0.19673
p476
aV0.18554
p477
aV0.20832
p478
aa(lp479
VAverage_P
p480
aV0.19930
p481
aV0.18953
p482
aV0.21007
p483
aa(lp484
VAverage_F
p485
aV0.19563
p486
aV0.18542
p487
aV0.20661
p488
aasVROUGE-3
p489
(lp490
(lp491
VAverage_R
p492
aV0.12429
p493
aV0.11494
p494
aV0.13402
p495
aa(lp496
VAverage_P
p497
aV0.12514
p498
aV0.11655
p499
aV0.13463
p500
aa(lp501
VAverage_F
p502
aV0.12318
p503
aV0.11413
p504
aV0.13249
p505
aasVROUGE-1
p506
(lp507
(lp508
VAverage_R
p509
aV0.44802
p510
aV0.43571
p511
aV0.46016
p512
aa(lp513
VAverage_P
p514
aV0.45736
p515
aV0.44718
p516
aV0.46780
p517
aa(lp518
VAverage_F
p519
aV0.44740
p520
aV0.43715
p521
aV0.45791
p522
aassS'10'
p523
(dp524
VROUGE-L
p525
(lp526
(lp527
VAverage_R
p528
aV0.38917
p529
aV0.37708
p530
aV0.40195
p531
aa(lp532
VAverage_P
p533
aV0.40755
p534
aV0.39761
p535
aV0.41816
p536
aa(lp537
VAverage_F
p538
aV0.39054
p539
aV0.37984
p540
aV0.40148
p541
aasVROUGE-4
p542
(lp543
(lp544
VAverage_R
p545
aV0.08121
p546
aV0.07405
p547
aV0.08931
p548
aa(lp549
VAverage_P
p550
aV0.08445
p551
aV0.07697
p552
aV0.09241
p553
aa(lp554
VAverage_F
p555
aV0.08119
p556
aV0.07417
p557
aV0.08908
p558
aasVROUGE-2
p559
(lp560
(lp561
VAverage_R
p562
aV0.17802
p563
aV0.16688
p564
aV0.18951
p565
aa(lp566
VAverage_P
p567
aV0.18543
p568
aV0.17504
p569
aV0.19594
p570
aa(lp571
VAverage_F
p572
aV0.17813
p573
aV0.16778
p574
aV0.18871
p575
aasVROUGE-3
p576
(lp577
(lp578
VAverage_R
p579
aV0.11140
p580
aV0.10297
p581
aV0.12102
p582
aa(lp583
VAverage_P
p584
aV0.11550
p585
aV0.10680
p586
aV0.12495
p587
aa(lp588
VAverage_F
p589
aV0.11134
p590
aV0.10299
p591
aV0.12040
p592
aasVROUGE-1
p593
(lp594
(lp595
VAverage_R
p596
aV0.42447
p597
aV0.41200
p598
aV0.43752
p599
aa(lp600
VAverage_P
p601
aV0.44479
p602
aV0.43460
p603
aV0.45575
p604
aa(lp605
VAverage_F
p606
aV0.42610
p607
aV0.41490
p608
aV0.43695
p609
aass.