(lp0
V---------------------------------------------\u000a01 ROUGE-1 Average_R: 0.45984 (95%-conf.int. 0.44748 - 0.47198)\u000a01 ROUGE-1 Average_P: 0.46027 (95%-conf.int. 0.45088 - 0.47061)\u000a01 ROUGE-1 Average_F: 0.45484 (95%-conf.int. 0.44509 - 0.46498)\u000a---------------------------------------------\u000a01 ROUGE-2 Average_R: 0.20678 (95%-conf.int. 0.19570 - 0.21841)\u000a01 ROUGE-2 Average_P: 0.20528 (95%-conf.int. 0.19543 - 0.21575)\u000a01 ROUGE-2 Average_F: 0.20359 (95%-conf.int. 0.19372 - 0.21404)\u000a---------------------------------------------\u000a01 ROUGE-3 Average_R: 0.13070 (95%-conf.int. 0.12144 - 0.14066)\u000a01 ROUGE-3 Average_P: 0.12931 (95%-conf.int. 0.12129 - 0.13836)\u000a01 ROUGE-3 Average_F: 0.12841 (95%-conf.int. 0.12005 - 0.13744)\u000a---------------------------------------------\u000a01 ROUGE-4 Average_R: 0.09464 (95%-conf.int. 0.08686 - 0.10327)\u000a01 ROUGE-4 Average_P: 0.09340 (95%-conf.int. 0.08650 - 0.10115)\u000a01 ROUGE-4 Average_F: 0.09282 (95%-conf.int. 0.08560 - 0.10057)\u000a---------------------------------------------\u000a01 ROUGE-L Average_R: 0.42736 (95%-conf.int. 0.41540 - 0.43895)\u000a01 ROUGE-L Average_P: 0.42745 (95%-conf.int. 0.41870 - 0.43724)\u000a01 ROUGE-L Average_F: 0.42257 (95%-conf.int. 0.41323 - 0.43218)\u000a---------------------------------------------\u000a02 ROUGE-1 Average_R: 0.41321 (95%-conf.int. 0.40019 - 0.42591)\u000a02 ROUGE-1 Average_P: 0.42936 (95%-conf.int. 0.41789 - 0.44037)\u000a02 ROUGE-1 Average_F: 0.41193 (95%-conf.int. 0.40055 - 0.42274)\u000a---------------------------------------------\u000a02 ROUGE-2 Average_R: 0.16974 (95%-conf.int. 0.15897 - 0.18156)\u000a02 ROUGE-2 Average_P: 0.17617 (95%-conf.int. 0.16536 - 0.18774)\u000a02 ROUGE-2 Average_F: 0.16861 (95%-conf.int. 0.15837 - 0.17912)\u000a---------------------------------------------\u000a02 ROUGE-3 Average_R: 0.10595 (95%-conf.int. 0.09707 - 0.11563)\u000a02 ROUGE-3 Average_P: 0.10985 (95%-conf.int. 0.10072 - 0.11968)\u000a02 ROUGE-3 Average_F: 0.10516 (95%-conf.int. 0.09675 - 0.11424)\u000a---------------------------------------------\u000a02 ROUGE-4 Average_R: 0.07712 (95%-conf.int. 0.06976 - 0.08498)\u000a02 ROUGE-4 Average_P: 0.08027 (95%-conf.int. 0.07279 - 0.08848)\u000a02 ROUGE-4 Average_F: 0.07652 (95%-conf.int. 0.06923 - 0.08442)\u000a---------------------------------------------\u000a02 ROUGE-L Average_R: 0.37856 (95%-conf.int. 0.36607 - 0.39105)\u000a02 ROUGE-L Average_P: 0.39326 (95%-conf.int. 0.38214 - 0.40436)\u000a02 ROUGE-L Average_F: 0.37728 (95%-conf.int. 0.36589 - 0.38780)\u000a---------------------------------------------\u000a03 ROUGE-1 Average_R: 0.44438 (95%-conf.int. 0.43307 - 0.45659)\u000a03 ROUGE-1 Average_P: 0.45589 (95%-conf.int. 0.44607 - 0.46604)\u000a03 ROUGE-1 Average_F: 0.44366 (95%-conf.int. 0.43432 - 0.45303)\u000a---------------------------------------------\u000a03 ROUGE-2 Average_R: 0.18917 (95%-conf.int. 0.17976 - 0.19956)\u000a03 ROUGE-2 Average_P: 0.19345 (95%-conf.int. 0.18382 - 0.20378)\u000a03 ROUGE-2 Average_F: 0.18837 (95%-conf.int. 0.17945 - 0.19836)\u000a---------------------------------------------\u000a03 ROUGE-3 Average_R: 0.11595 (95%-conf.int. 0.10801 - 0.12510)\u000a03 ROUGE-3 Average_P: 0.11920 (95%-conf.int. 0.11084 - 0.12834)\u000a03 ROUGE-3 Average_F: 0.11551 (95%-conf.int. 0.10766 - 0.12468)\u000a---------------------------------------------\u000a03 ROUGE-4 Average_R: 0.08285 (95%-conf.int. 0.07603 - 0.09060)\u000a03 ROUGE-4 Average_P: 0.08570 (95%-conf.int. 0.07852 - 0.09366)\u000a03 ROUGE-4 Average_F: 0.08260 (95%-conf.int. 0.07615 - 0.09022)\u000a---------------------------------------------\u000a03 ROUGE-L Average_R: 0.41093 (95%-conf.int. 0.40031 - 0.42273)\u000a03 ROUGE-L Average_P: 0.42095 (95%-conf.int. 0.41188 - 0.43078)\u000a03 ROUGE-L Average_F: 0.40999 (95%-conf.int. 0.40093 - 0.41906)\u000a---------------------------------------------\u000a04 ROUGE-1 Average_R: 0.42447 (95%-conf.int. 0.41200 - 0.43752)\u000a04 ROUGE-1 Average_P: 0.44479 (95%-conf.int. 0.43460 - 0.45575)\u000a04 ROUGE-1 Average_F: 0.42610 (95%-conf.int. 0.41490 - 0.43695)\u000a---------------------------------------------\u000a04 ROUGE-2 Average_R: 0.17802 (95%-conf.int. 0.16688 - 0.18951)\u000a04 ROUGE-2 Average_P: 0.18543 (95%-conf.int. 0.17504 - 0.19594)\u000a04 ROUGE-2 Average_F: 0.17813 (95%-conf.int. 0.16778 - 0.18871)\u000a---------------------------------------------\u000a04 ROUGE-3 Average_R: 0.11140 (95%-conf.int. 0.10297 - 0.12102)\u000a04 ROUGE-3 Average_P: 0.11550 (95%-conf.int. 0.10680 - 0.12495)\u000a04 ROUGE-3 Average_F: 0.11134 (95%-conf.int. 0.10299 - 0.12040)\u000a---------------------------------------------\u000a04 ROUGE-4 Average_R: 0.08121 (95%-conf.int. 0.07405 - 0.08931)\u000a04 ROUGE-4 Average_P: 0.08445 (95%-conf.int. 0.07697 - 0.09241)\u000a04 ROUGE-4 Average_F: 0.08119 (95%-conf.int. 0.07417 - 0.08908)\u000a---------------------------------------------\u000a04 ROUGE-L Average_R: 0.38917 (95%-conf.int. 0.37708 - 0.40195)\u000a04 ROUGE-L Average_P: 0.40755 (95%-conf.int. 0.39761 - 0.41816)\u000a04 ROUGE-L Average_F: 0.39054 (95%-conf.int. 0.37984 - 0.40148)\u000a---------------------------------------------\u000a05 ROUGE-1 Average_R: 0.43877 (95%-conf.int. 0.42678 - 0.45131)\u000a05 ROUGE-1 Average_P: 0.44593 (95%-conf.int. 0.43591 - 0.45679)\u000a05 ROUGE-1 Average_F: 0.43687 (95%-conf.int. 0.42682 - 0.44707)\u000a---------------------------------------------\u000a05 ROUGE-2 Average_R: 0.19058 (95%-conf.int. 0.17937 - 0.20261)\u000a05 ROUGE-2 Average_P: 0.19126 (95%-conf.int. 0.18133 - 0.20240)\u000a05 ROUGE-2 Average_F: 0.18848 (95%-conf.int. 0.17813 - 0.19942)\u000a---------------------------------------------\u000a05 ROUGE-3 Average_R: 0.12061 (95%-conf.int. 0.11116 - 0.13105)\u000a05 ROUGE-3 Average_P: 0.12008 (95%-conf.int. 0.11176 - 0.12965)\u000a05 ROUGE-3 Average_F: 0.11874 (95%-conf.int. 0.11015 - 0.12867)\u000a---------------------------------------------\u000a05 ROUGE-4 Average_R: 0.08781 (95%-conf.int. 0.07961 - 0.09660)\u000a05 ROUGE-4 Average_P: 0.08714 (95%-conf.int. 0.07998 - 0.09524)\u000a05 ROUGE-4 Average_F: 0.08623 (95%-conf.int. 0.07893 - 0.09451)\u000a---------------------------------------------\u000a05 ROUGE-L Average_R: 0.40744 (95%-conf.int. 0.39564 - 0.41949)\u000a05 ROUGE-L Average_P: 0.41375 (95%-conf.int. 0.40395 - 0.42410)\u000a05 ROUGE-L Average_F: 0.40553 (95%-conf.int. 0.39577 - 0.41524)\u000a---------------------------------------------\u000a08 ROUGE-1 Average_R: 0.44817 (95%-conf.int. 0.43586 - 0.46031)\u000a08 ROUGE-1 Average_P: 0.45733 (95%-conf.int. 0.44712 - 0.46775)\u000a08 ROUGE-1 Average_F: 0.44744 (95%-conf.int. 0.43715 - 0.45799)\u000a---------------------------------------------\u000a08 ROUGE-2 Average_R: 0.19685 (95%-conf.int. 0.18567 - 0.20832)\u000a08 ROUGE-2 Average_P: 0.19934 (95%-conf.int. 0.18957 - 0.21011)\u000a08 ROUGE-2 Average_F: 0.19571 (95%-conf.int. 0.18542 - 0.20665)\u000a---------------------------------------------\u000a08 ROUGE-3 Average_R: 0.12440 (95%-conf.int. 0.11505 - 0.13420)\u000a08 ROUGE-3 Average_P: 0.12520 (95%-conf.int. 0.11661 - 0.13466)\u000a08 ROUGE-3 Average_F: 0.12326 (95%-conf.int. 0.11421 - 0.13261)\u000a---------------------------------------------\u000a08 ROUGE-4 Average_R: 0.09041 (95%-conf.int. 0.08263 - 0.09876)\u000a08 ROUGE-4 Average_P: 0.09057 (95%-conf.int. 0.08309 - 0.09844)\u000a08 ROUGE-4 Average_F: 0.08932 (95%-conf.int. 0.08174 - 0.09740)\u000a---------------------------------------------\u000a08 ROUGE-L Average_R: 0.41526 (95%-conf.int. 0.40323 - 0.42659)\u000a08 ROUGE-L Average_P: 0.42358 (95%-conf.int. 0.41377 - 0.43366)\u000a08 ROUGE-L Average_F: 0.41452 (95%-conf.int. 0.40419 - 0.42471)\u000a---------------------------------------------\u000a10 ROUGE-1 Average_R: 0.42447 (95%-conf.int. 0.41200 - 0.43752)\u000a10 ROUGE-1 Average_P: 0.44479 (95%-conf.int. 0.43460 - 0.45575)\u000a10 ROUGE-1 Average_F: 0.42610 (95%-conf.int. 0.41490 - 0.43695)\u000a---------------------------------------------\u000a10 ROUGE-2 Average_R: 0.17802 (95%-conf.int. 0.16688 - 0.18951)\u000a10 ROUGE-2 Average_P: 0.18543 (95%-conf.int. 0.17504 - 0.19594)\u000a10 ROUGE-2 Average_F: 0.17813 (95%-conf.int. 0.16778 - 0.18871)\u000a---------------------------------------------\u000a10 ROUGE-3 Average_R: 0.11140 (95%-conf.int. 0.10297 - 0.12102)\u000a10 ROUGE-3 Average_P: 0.11550 (95%-conf.int. 0.10680 - 0.12495)\u000a10 ROUGE-3 Average_F: 0.11134 (95%-conf.int. 0.10299 - 0.12040)\u000a---------------------------------------------\u000a10 ROUGE-4 Average_R: 0.08121 (95%-conf.int. 0.07405 - 0.08931)\u000a10 ROUGE-4 Average_P: 0.08445 (95%-conf.int. 0.07697 - 0.09241)\u000a10 ROUGE-4 Average_F: 0.08119 (95%-conf.int. 0.07417 - 0.08908)\u000a---------------------------------------------\u000a10 ROUGE-L Average_R: 0.38917 (95%-conf.int. 0.37708 - 0.40195)\u000a10 ROUGE-L Average_P: 0.40755 (95%-conf.int. 0.39761 - 0.41816)\u000a10 ROUGE-L Average_F: 0.39054 (95%-conf.int. 0.37984 - 0.40148)\u000a
p1
a.