(dp0
S'02'
p1
(dp2
VROUGE-L
p3
(lp4
(lp5
VAverage_R
p6
aV0.22606
p7
aV0.21357
p8
aV0.24029
p9
aa(lp10
VAverage_P
p11
aV0.30531
p12
aV0.29034
p13
aV0.31978
p14
aa(lp15
VAverage_F
p16
aV0.24506
p17
aV0.23385
p18
aV0.25609
p19
aasVROUGE-4
p20
(lp21
(lp22
VAverage_R
p23
aV0.00933
p24
aV0.00658
p25
aV0.01287
p26
aa(lp27
VAverage_P
p28
aV0.01114
p29
aV0.00808
p30
aV0.01489
p31
aa(lp32
VAverage_F
p33
aV0.00966
p34
aV0.00697
p35
aV0.01308
p36
aasVROUGE-2
p37
(lp38
(lp39
VAverage_R
p40
aV0.05416
p41
aV0.04770
p42
aV0.06081
p43
aa(lp44
VAverage_P
p45
aV0.07031
p46
aV0.06275
p47
aV0.07759
p48
aa(lp49
VAverage_F
p50
aV0.05775
p51
aV0.05119
p52
aV0.06417
p53
aasVROUGE-3
p54
(lp55
(lp56
VAverage_R
p57
aV0.01921
p58
aV0.01525
p59
aV0.02358
p60
aa(lp61
VAverage_P
p62
aV0.02416
p63
aV0.01963
p64
aV0.02897
p65
aa(lp66
VAverage_F
p67
aV0.02024
p68
aV0.01629
p69
aV0.02454
p70
aasVROUGE-1
p71
(lp72
(lp73
VAverage_R
p74
aV0.26576
p75
aV0.25111
p76
aV0.28238
p77
aa(lp78
VAverage_P
p79
aV0.35763
p80
aV0.34051
p81
aV0.37392
p82
aa(lp83
VAverage_F
p84
aV0.28768
p85
aV0.27517
p86
aV0.30049
p87
aassS'03'
p88
(dp89
VROUGE-L
p90
(lp91
(lp92
VAverage_R
p93
aV0.26459
p94
aV0.25229
p95
aV0.27650
p96
aa(lp97
VAverage_P
p98
aV0.35857
p99
aV0.34234
p100
aV0.37620
p101
aa(lp102
VAverage_F
p103
aV0.28925
p104
aV0.27907
p105
aV0.29931
p106
aasVROUGE-4
p107
(lp108
(lp109
VAverage_R
p110
aV0.00836
p111
aV0.00619
p112
aV0.01054
p113
aa(lp114
VAverage_P
p115
aV0.01133
p116
aV0.00864
p117
aV0.01431
p118
aa(lp119
VAverage_F
p120
aV0.00909
p121
aV0.00696
p122
aV0.01147
p123
aasVROUGE-2
p124
(lp125
(lp126
VAverage_R
p127
aV0.06243
p128
aV0.05618
p129
aV0.06897
p130
aa(lp131
VAverage_P
p132
aV0.08483
p133
aV0.07645
p134
aV0.09326
p135
aa(lp136
VAverage_F
p137
aV0.06808
p138
aV0.06201
p139
aV0.07436
p140
aasVROUGE-3
p141
(lp142
(lp143
VAverage_R
p144
aV0.01939
p145
aV0.01576
p146
aV0.02292
p147
aa(lp148
VAverage_P
p149
aV0.02625
p150
aV0.02166
p151
aV0.03120
p152
aa(lp153
VAverage_F
p154
aV0.02111
p155
aV0.01742
p156
aV0.02490
p157
aasVROUGE-1
p158
(lp159
(lp160
VAverage_R
p161
aV0.30109
p162
aV0.28734
p163
aV0.31456
p164
aa(lp165
VAverage_P
p166
aV0.40565
p167
aV0.38797
p168
aV0.42458
p169
aa(lp170
VAverage_F
p171
aV0.32818
p172
aV0.31672
p173
aV0.33900
p174
aassS'01'
p175
(dp176
VROUGE-L
p177
(lp178
(lp179
VAverage_R
p180
aV0.27619
p181
aV0.26376
p182
aV0.28867
p183
aa(lp184
VAverage_P
p185
aV0.35975
p186
aV0.34168
p187
aV0.37818
p188
aa(lp189
VAverage_F
p190
aV0.29714
p191
aV0.28557
p192
aV0.30901
p193
aasVROUGE-4
p194
(lp195
(lp196
VAverage_R
p197
aV0.01271
p198
aV0.00984
p199
aV0.01598
p200
aa(lp201
VAverage_P
p202
aV0.01786
p203
aV0.01376
p204
aV0.02249
p205
aa(lp206
VAverage_F
p207
aV0.01428
p208
aV0.01112
p209
aV0.01807
p210
aasVROUGE-2
p211
(lp212
(lp213
VAverage_R
p214
aV0.07522
p215
aV0.06873
p216
aV0.08247
p217
aa(lp218
VAverage_P
p219
aV0.10131
p220
aV0.09139
p221
aV0.11165
p222
aa(lp223
VAverage_F
p224
aV0.08225
p225
aV0.07461
p226
aV0.08968
p227
aasVROUGE-3
p228
(lp229
(lp230
VAverage_R
p231
aV0.02709
p232
aV0.02303
p233
aV0.03203
p234
aa(lp235
VAverage_P
p236
aV0.03719
p237
aV0.03102
p238
aV0.04372
p239
aa(lp240
VAverage_F
p241
aV0.03003
p242
aV0.02542
p243
aV0.03525
p244
aasVROUGE-1
p245
(lp246
(lp247
VAverage_R
p248
aV0.31130
p249
aV0.29726
p250
aV0.32542
p251
aa(lp252
VAverage_P
p253
aV0.40417
p254
aV0.38504
p255
aV0.42470
p256
aa(lp257
VAverage_F
p258
aV0.33424
p259
aV0.32136
p260
aV0.34717
p261
aassS'06'
p262
(dp263
VROUGE-L
p264
(lp265
(lp266
VAverage_R
p267
aV0.27238
p268
aV0.26164
p269
aV0.28384
p270
aa(lp271
VAverage_P
p272
aV0.34721
p273
aV0.33089
p274
aV0.36398
p275
aa(lp276
VAverage_F
p277
aV0.29238
p278
aV0.28180
p279
aV0.30353
p280
aasVROUGE-4
p281
(lp282
(lp283
VAverage_R
p284
aV0.01169
p285
aV0.00895
p286
aV0.01453
p287
aa(lp288
VAverage_P
p289
aV0.01519
p290
aV0.01159
p291
aV0.01882
p292
aa(lp293
VAverage_F
p294
aV0.01286
p295
aV0.00982
p296
aV0.01594
p297
aasVROUGE-2
p298
(lp299
(lp300
VAverage_R
p301
aV0.07075
p302
aV0.06438
p303
aV0.07708
p304
aa(lp305
VAverage_P
p306
aV0.09161
p307
aV0.08281
p308
aV0.10058
p309
aa(lp310
VAverage_F
p311
aV0.07679
p312
aV0.06979
p313
aV0.08399
p314
aasVROUGE-3
p315
(lp316
(lp317
VAverage_R
p318
aV0.02409
p319
aV0.02028
p320
aV0.02820
p321
aa(lp322
VAverage_P
p323
aV0.03141
p324
aV0.02640
p325
aV0.03671
p326
aa(lp327
VAverage_F
p328
aV0.02641
p329
aV0.02221
p330
aV0.03084
p331
aasVROUGE-1
p332
(lp333
(lp334
VAverage_R
p335
aV0.30848
p336
aV0.29616
p337
aV0.32109
p338
aa(lp339
VAverage_P
p340
aV0.39080
p341
aV0.37313
p342
aV0.40847
p343
aa(lp344
VAverage_F
p345
aV0.33028
p346
aV0.31868
p347
aV0.34203
p348
aassS'07'
p349
(dp350
VROUGE-L
p351
(lp352
(lp353
VAverage_R
p354
aV0.27386
p355
aV0.26134
p356
aV0.28669
p357
aa(lp358
VAverage_P
p359
aV0.35422
p360
aV0.33742
p361
aV0.37125
p362
aa(lp363
VAverage_F
p364
aV0.29425
p365
aV0.28305
p366
aV0.30600
p367
aasVROUGE-4
p368
(lp369
(lp370
VAverage_R
p371
aV0.01179
p372
aV0.00911
p373
aV0.01458
p374
aa(lp375
VAverage_P
p376
aV0.01647
p377
aV0.01229
p378
aV0.02124
p379
aa(lp380
VAverage_F
p381
aV0.01319
p382
aV0.01003
p383
aV0.01637
p384
aasVROUGE-2
p385
(lp386
(lp387
VAverage_R
p388
aV0.07196
p389
aV0.06569
p390
aV0.07854
p391
aa(lp392
VAverage_P
p393
aV0.09546
p394
aV0.08627
p395
aV0.10525
p396
aa(lp397
VAverage_F
p398
aV0.07837
p399
aV0.07108
p400
aV0.08573
p401
aasVROUGE-3
p402
(lp403
(lp404
VAverage_R
p405
aV0.02469
p406
aV0.02070
p407
aV0.02871
p408
aa(lp409
VAverage_P
p410
aV0.03376
p411
aV0.02797
p412
aV0.04017
p413
aa(lp414
VAverage_F
p415
aV0.02734
p416
aV0.02278
p417
aV0.03182
p418
aasVROUGE-1
p419
(lp420
(lp421
VAverage_R
p422
aV0.30848
p423
aV0.29452
p424
aV0.32308
p425
aa(lp426
VAverage_P
p427
aV0.39668
p428
aV0.37824
p429
aV0.41518
p430
aa(lp431
VAverage_F
p432
aV0.33042
p433
aV0.31843
p434
aV0.34342
p435
aassS'04'
p436
(dp437
VROUGE-L
p438
(lp439
(lp440
VAverage_R
p441
aV0.23013
p442
aV0.21386
p443
aV0.24623
p444
aa(lp445
VAverage_P
p446
aV0.32443
p447
aV0.30827
p448
aV0.34344
p449
aa(lp450
VAverage_F
p451
aV0.24771
p452
aV0.23388
p453
aV0.26175
p454
aasVROUGE-4
p455
(lp456
(lp457
VAverage_R
p458
aV0.00797
p459
aV0.00548
p460
aV0.01087
p461
aa(lp462
VAverage_P
p463
aV0.00999
p464
aV0.00698
p465
aV0.01372
p466
aa(lp467
VAverage_F
p468
aV0.00836
p469
aV0.00576
p470
aV0.01141
p471
aasVROUGE-2
p472
(lp473
(lp474
VAverage_R
p475
aV0.05665
p476
aV0.05036
p477
aV0.06341
p478
aa(lp479
VAverage_P
p480
aV0.07534
p481
aV0.06727
p482
aV0.08395
p483
aa(lp484
VAverage_F
p485
aV0.06043
p486
aV0.05421
p487
aV0.06715
p488
aasVROUGE-3
p489
(lp490
(lp491
VAverage_R
p492
aV0.01825
p493
aV0.01458
p494
aV0.02241
p495
aa(lp496
VAverage_P
p497
aV0.02367
p498
aV0.01891
p499
aV0.02901
p500
aa(lp501
VAverage_F
p502
aV0.01930
p503
aV0.01543
p504
aV0.02363
p505
aasVROUGE-1
p506
(lp507
(lp508
VAverage_R
p509
aV0.26873
p510
aV0.25048
p511
aV0.28656
p512
aa(lp513
VAverage_P
p514
aV0.37707
p515
aV0.35910
p516
aV0.39750
p517
aa(lp518
VAverage_F
p519
aV0.28917
p520
aV0.27294
p521
aV0.30584
p522
aassS'05'
p523
(dp524
VROUGE-L
p525
(lp526
(lp527
VAverage_R
p528
aV0.26775
p529
aV0.25409
p530
aV0.28002
p531
aa(lp532
VAverage_P
p533
aV0.35238
p534
aV0.33576
p535
aV0.37011
p536
aa(lp537
VAverage_F
p538
aV0.28920
p539
aV0.27755
p540
aV0.30067
p541
aasVROUGE-4
p542
(lp543
(lp544
VAverage_R
p545
aV0.01041
p546
aV0.00785
p547
aV0.01331
p548
aa(lp549
VAverage_P
p550
aV0.01415
p551
aV0.01041
p552
aV0.01848
p553
aa(lp554
VAverage_F
p555
aV0.01156
p556
aV0.00868
p557
aV0.01489
p558
aasVROUGE-2
p559
(lp560
(lp561
VAverage_R
p562
aV0.06960
p563
aV0.06294
p564
aV0.07637
p565
aa(lp566
VAverage_P
p567
aV0.09379
p568
aV0.08452
p569
aV0.10369
p570
aa(lp571
VAverage_F
p572
aV0.07611
p573
aV0.06873
p574
aV0.08379
p575
aasVROUGE-3
p576
(lp577
(lp578
VAverage_R
p579
aV0.02309
p580
aV0.01925
p581
aV0.02735
p582
aa(lp583
VAverage_P
p584
aV0.03146
p585
aV0.02609
p586
aV0.03762
p587
aa(lp588
VAverage_F
p589
aV0.02555
p590
aV0.02129
p591
aV0.03017
p592
aasVROUGE-1
p593
(lp594
(lp595
VAverage_R
p596
aV0.30137
p597
aV0.28640
p598
aV0.31507
p599
aa(lp600
VAverage_P
p601
aV0.39510
p602
aV0.37690
p603
aV0.41439
p604
aa(lp605
VAverage_F
p606
aV0.32487
p607
aV0.31204
p608
aV0.33762
p609
aassS'08'
p610
(dp611
VROUGE-L
p612
(lp613
(lp614
VAverage_R
p615
aV0.27986
p616
aV0.26863
p617
aV0.29148
p618
aa(lp619
VAverage_P
p620
aV0.36743
p621
aV0.35031
p622
aV0.38517
p623
aa(lp624
VAverage_F
p625
aV0.30307
p626
aV0.29244
p627
aV0.31387
p628
aasVROUGE-4
p629
(lp630
(lp631
VAverage_R
p632
aV0.01249
p633
aV0.00990
p634
aV0.01533
p635
aa(lp636
VAverage_P
p637
aV0.01674
p638
aV0.01292
p639
aV0.02104
p640
aa(lp641
VAverage_F
p642
aV0.01378
p643
aV0.01077
p644
aV0.01705
p645
aasVROUGE-2
p646
(lp647
(lp648
VAverage_R
p649
aV0.07649
p650
aV0.06989
p651
aV0.08298
p652
aa(lp653
VAverage_P
p654
aV0.10187
p655
aV0.09267
p656
aV0.11157
p657
aa(lp658
VAverage_F
p659
aV0.08345
p660
aV0.07624
p661
aV0.09056
p662
aasVROUGE-3
p663
(lp664
(lp665
VAverage_R
p666
aV0.02669
p667
aV0.02270
p668
aV0.03082
p669
aa(lp670
VAverage_P
p671
aV0.03561
p672
aV0.02978
p673
aV0.04190
p674
aa(lp675
VAverage_F
p676
aV0.02927
p677
aV0.02473
p678
aV0.03404
p679
aasVROUGE-1
p680
(lp681
(lp682
VAverage_R
p683
aV0.31721
p684
aV0.30400
p685
aV0.33015
p686
aa(lp687
VAverage_P
p688
aV0.41583
p689
aV0.39702
p690
aV0.43538
p691
aa(lp692
VAverage_F
p693
aV0.34317
p694
aV0.33113
p695
aV0.35499
p696
aassS'09'
p697
(dp698
VROUGE-L
p699
(lp700
(lp701
VAverage_R
p702
aV0.28678
p703
aV0.27500
p704
aV0.29795
p705
aa(lp706
VAverage_P
p707
aV0.36888
p708
aV0.35102
p709
aV0.38695
p710
aa(lp711
VAverage_F
p712
aV0.30649
p713
aV0.29552
p714
aV0.31738
p715
aasVROUGE-4
p716
(lp717
(lp718
VAverage_R
p719
aV0.01411
p720
aV0.01133
p721
aV0.01729
p722
aa(lp723
VAverage_P
p724
aV0.01979
p725
aV0.01542
p726
aV0.02466
p727
aa(lp728
VAverage_F
p729
aV0.01579
p730
aV0.01257
p731
aV0.01935
p732
aasVROUGE-2
p733
(lp734
(lp735
VAverage_R
p736
aV0.08247
p737
aV0.07593
p738
aV0.08883
p739
aa(lp740
VAverage_P
p741
aV0.10905
p742
aV0.09875
p743
aV0.11983
p744
aa(lp745
VAverage_F
p746
aV0.08941
p747
aV0.08229
p748
aV0.09695
p749
aasVROUGE-3
p750
(lp751
(lp752
VAverage_R
p753
aV0.02990
p754
aV0.02585
p755
aV0.03425
p756
aa(lp757
VAverage_P
p758
aV0.04077
p759
aV0.03432
p760
aV0.04731
p761
aa(lp762
VAverage_F
p763
aV0.03300
p764
aV0.02842
p765
aV0.03783
p766
aasVROUGE-1
p767
(lp768
(lp769
VAverage_R
p770
aV0.32530
p771
aV0.31218
p772
aV0.33807
p773
aa(lp774
VAverage_P
p775
aV0.41626
p776
aV0.39629
p777
aV0.43535
p778
aa(lp779
VAverage_F
p780
aV0.34665
p781
aV0.33549
p782
aV0.35799
p783
aassS'10'
p784
(dp785
VROUGE-L
p786
(lp787
(lp788
VAverage_R
p789
aV0.23013
p790
aV0.21386
p791
aV0.24623
p792
aa(lp793
VAverage_P
p794
aV0.32443
p795
aV0.30827
p796
aV0.34344
p797
aa(lp798
VAverage_F
p799
aV0.24771
p800
aV0.23388
p801
aV0.26175
p802
aasVROUGE-4
p803
(lp804
(lp805
VAverage_R
p806
aV0.00797
p807
aV0.00548
p808
aV0.01087
p809
aa(lp810
VAverage_P
p811
aV0.00999
p812
aV0.00698
p813
aV0.01372
p814
aa(lp815
VAverage_F
p816
aV0.00836
p817
aV0.00576
p818
aV0.01141
p819
aasVROUGE-2
p820
(lp821
(lp822
VAverage_R
p823
aV0.05665
p824
aV0.05036
p825
aV0.06341
p826
aa(lp827
VAverage_P
p828
aV0.07534
p829
aV0.06727
p830
aV0.08395
p831
aa(lp832
VAverage_F
p833
aV0.06043
p834
aV0.05421
p835
aV0.06715
p836
aasVROUGE-3
p837
(lp838
(lp839
VAverage_R
p840
aV0.01825
p841
aV0.01458
p842
aV0.02241
p843
aa(lp844
VAverage_P
p845
aV0.02367
p846
aV0.01891
p847
aV0.02901
p848
aa(lp849
VAverage_F
p850
aV0.01930
p851
aV0.01543
p852
aV0.02363
p853
aasVROUGE-1
p854
(lp855
(lp856
VAverage_R
p857
aV0.26873
p858
aV0.25048
p859
aV0.28656
p860
aa(lp861
VAverage_P
p862
aV0.37707
p863
aV0.35910
p864
aV0.39750
p865
aa(lp866
VAverage_F
p867
aV0.28917
p868
aV0.27294
p869
aV0.30584
p870
aass.