(dp0
S'02'
p1
(dp2
VROUGE-L
p3
(lp4
(lp5
VAverage_R
p6
aV0.29779
p7
aV0.27934
p8
aV0.31544
p9
aa(lp10
VAverage_P
p11
aV0.35634
p12
aV0.33714
p13
aV0.37477
p14
aa(lp15
VAverage_F
p16
aV0.30990
p17
aV0.29357
p18
aV0.32677
p19
aasVROUGE-4
p20
(lp21
(lp22
VAverage_R
p23
aV0.06927
p24
aV0.05596
p25
aV0.08295
p26
aa(lp27
VAverage_P
p28
aV0.08334
p29
aV0.06757
p30
aV0.10022
p31
aa(lp32
VAverage_F
p33
aV0.07323
p34
aV0.05936
p35
aV0.08752
p36
aasVROUGE-2
p37
(lp38
(lp39
VAverage_R
p40
aV0.11866
p41
aV0.10287
p42
aV0.13389
p43
aa(lp44
VAverage_P
p45
aV0.14034
p46
aV0.12363
p47
aV0.15780
p48
aa(lp49
VAverage_F
p50
aV0.12412
p51
aV0.10856
p52
aV0.13910
p53
aasVROUGE-3
p54
(lp55
(lp56
VAverage_R
p57
aV0.08083
p58
aV0.06658
p59
aV0.09525
p60
aa(lp61
VAverage_P
p62
aV0.09646
p63
aV0.08025
p64
aV0.11343
p65
aa(lp66
VAverage_F
p67
aV0.08509
p68
aV0.07027
p69
aV0.09978
p70
aasVROUGE-1
p71
(lp72
(lp73
VAverage_R
p74
aV0.33646
p75
aV0.31722
p76
aV0.35483
p77
aa(lp78
VAverage_P
p79
aV0.40158
p80
aV0.38174
p81
aV0.42024
p82
aa(lp83
VAverage_F
p84
aV0.34984
p85
aV0.33277
p86
aV0.36635
p87
aassS'10'
p88
(dp89
VROUGE-L
p90
(lp91
(lp92
VAverage_R
p93
aV0.29889
p94
aV0.27849
p95
aV0.31878
p96
aa(lp97
VAverage_P
p98
aV0.36258
p99
aV0.34434
p100
aV0.38307
p101
aa(lp102
VAverage_F
p103
aV0.30644
p104
aV0.28948
p105
aV0.32379
p106
aasVROUGE-4
p107
(lp108
(lp109
VAverage_R
p110
aV0.06283
p111
aV0.04971
p112
aV0.07556
p113
aa(lp114
VAverage_P
p115
aV0.06927
p116
aV0.05483
p117
aV0.08292
p118
aa(lp119
VAverage_F
p120
aV0.06245
p121
aV0.05020
p122
aV0.07426
p123
aasVROUGE-2
p124
(lp125
(lp126
VAverage_R
p127
aV0.11749
p128
aV0.10219
p129
aV0.13197
p130
aa(lp131
VAverage_P
p132
aV0.13327
p133
aV0.11661
p134
aV0.14928
p135
aa(lp136
VAverage_F
p137
aV0.11853
p138
aV0.10483
p139
aV0.13212
p140
aasVROUGE-3
p141
(lp142
(lp143
VAverage_R
p144
aV0.07508
p145
aV0.06135
p146
aV0.08824
p147
aa(lp148
VAverage_P
p149
aV0.08333
p150
aV0.06785
p151
aV0.09757
p152
aa(lp153
VAverage_F
p154
aV0.07489
p155
aV0.06195
p156
aV0.08744
p157
aasVROUGE-1
p158
(lp159
(lp160
VAverage_R
p161
aV0.33795
p162
aV0.31657
p163
aV0.35919
p164
aa(lp165
VAverage_P
p166
aV0.41006
p167
aV0.39186
p168
aV0.43056
p169
aa(lp170
VAverage_F
p171
aV0.34705
p172
aV0.32941
p173
aV0.36531
p174
aassS'01'
p175
(dp176
VROUGE-L
p177
(lp178
(lp179
VAverage_R
p180
aV0.26011
p181
aV0.24269
p182
aV0.27726
p183
aa(lp184
VAverage_P
p185
aV0.34666
p186
aV0.32619
p187
aV0.36831
p188
aa(lp189
VAverage_F
p190
aV0.28140
p191
aV0.26515
p192
aV0.29729
p193
aasVROUGE-4
p194
(lp195
(lp196
VAverage_R
p197
aV0.02804
p198
aV0.01993
p199
aV0.03677
p200
aa(lp201
VAverage_P
p202
aV0.03862
p203
aV0.02648
p204
aV0.05183
p205
aa(lp206
VAverage_F
p207
aV0.03119
p208
aV0.02189
p209
aV0.04107
p210
aasVROUGE-2
p211
(lp212
(lp213
VAverage_R
p214
aV0.07741
p215
aV0.06644
p216
aV0.08877
p217
aa(lp218
VAverage_P
p219
aV0.10254
p220
aV0.08745
p221
aV0.11834
p222
aa(lp223
VAverage_F
p224
aV0.08406
p225
aV0.07254
p226
aV0.09615
p227
aasVROUGE-3
p228
(lp229
(lp230
VAverage_R
p231
aV0.03813
p232
aV0.02940
p233
aV0.04742
p234
aa(lp235
VAverage_P
p236
aV0.05120
p237
aV0.03828
p238
aV0.06553
p239
aa(lp240
VAverage_F
p241
aV0.04193
p242
aV0.03222
p243
aV0.05259
p244
aasVROUGE-1
p245
(lp246
(lp247
VAverage_R
p248
aV0.29399
p249
aV0.27565
p250
aV0.31283
p251
aa(lp252
VAverage_P
p253
aV0.38914
p254
aV0.36746
p255
aV0.41132
p256
aa(lp257
VAverage_F
p258
aV0.31765
p259
aV0.30002
p260
aV0.33441
p261
aassS'06'
p262
(dp263
VROUGE-L
p264
(lp265
(lp266
VAverage_R
p267
aV0.27562
p268
aV0.25716
p269
aV0.29287
p270
aa(lp271
VAverage_P
p272
aV0.35588
p273
aV0.33497
p274
aV0.37779
p275
aa(lp276
VAverage_F
p277
aV0.29500
p278
aV0.27821
p279
aV0.31145
p280
aasVROUGE-4
p281
(lp282
(lp283
VAverage_R
p284
aV0.03228
p285
aV0.02312
p286
aV0.04155
p287
aa(lp288
VAverage_P
p289
aV0.04127
p290
aV0.02938
p291
aV0.05358
p292
aa(lp293
VAverage_F
p294
aV0.03498
p295
aV0.02489
p296
aV0.04523
p297
aasVROUGE-2
p298
(lp299
(lp300
VAverage_R
p301
aV0.08631
p302
aV0.07396
p303
aV0.09854
p304
aa(lp305
VAverage_P
p306
aV0.11136
p307
aV0.09573
p308
aV0.12732
p309
aa(lp310
VAverage_F
p311
aV0.09261
p312
aV0.07905
p313
aV0.10601
p314
aasVROUGE-3
p315
(lp316
(lp317
VAverage_R
p318
aV0.04371
p319
aV0.03341
p320
aV0.05429
p321
aa(lp322
VAverage_P
p323
aV0.05572
p324
aV0.04259
p325
aV0.06943
p326
aa(lp327
VAverage_F
p328
aV0.04717
p329
aV0.03589
p330
aV0.05894
p331
aasVROUGE-1
p332
(lp333
(lp334
VAverage_R
p335
aV0.31002
p336
aV0.29053
p337
aV0.32843
p338
aa(lp339
VAverage_P
p340
aV0.39925
p341
aV0.37713
p342
aV0.42246
p343
aa(lp344
VAverage_F
p345
aV0.33163
p346
aV0.31277
p347
aV0.34874
p348
aassS'07'
p349
(dp350
VROUGE-L
p351
(lp352
(lp353
VAverage_R
p354
aV0.27890
p355
aV0.26127
p356
aV0.29670
p357
aa(lp358
VAverage_P
p359
aV0.36670
p360
aV0.34445
p361
aV0.38822
p362
aa(lp363
VAverage_F
p364
aV0.29967
p365
aV0.28220
p366
aV0.31617
p367
aasVROUGE-4
p368
(lp369
(lp370
VAverage_R
p371
aV0.04033
p372
aV0.02954
p373
aV0.05186
p374
aa(lp375
VAverage_P
p376
aV0.05229
p377
aV0.03844
p378
aV0.06673
p379
aa(lp380
VAverage_F
p381
aV0.04380
p382
aV0.03213
p383
aV0.05598
p384
aasVROUGE-2
p385
(lp386
(lp387
VAverage_R
p388
aV0.09397
p389
aV0.08116
p390
aV0.10816
p391
aa(lp392
VAverage_P
p393
aV0.12265
p394
aV0.10517
p395
aV0.13865
p396
aa(lp397
VAverage_F
p398
aV0.10099
p399
aV0.08671
p400
aV0.11533
p401
aasVROUGE-3
p402
(lp403
(lp404
VAverage_R
p405
aV0.05172
p406
aV0.04038
p407
aV0.06419
p408
aa(lp409
VAverage_P
p410
aV0.06683
p411
aV0.05161
p412
aV0.08210
p413
aa(lp414
VAverage_F
p415
aV0.05592
p416
aV0.04336
p417
aV0.06871
p418
aasVROUGE-1
p419
(lp420
(lp421
VAverage_R
p422
aV0.31369
p423
aV0.29522
p424
aV0.33270
p425
aa(lp426
VAverage_P
p427
aV0.41145
p428
aV0.38804
p429
aV0.43422
p430
aa(lp431
VAverage_F
p432
aV0.33670
p433
aV0.31830
p434
aV0.35377
p435
aassS'04'
p436
(dp437
VROUGE-L
p438
(lp439
(lp440
VAverage_R
p441
aV0.29889
p442
aV0.27849
p443
aV0.31878
p444
aa(lp445
VAverage_P
p446
aV0.36258
p447
aV0.34434
p448
aV0.38307
p449
aa(lp450
VAverage_F
p451
aV0.30644
p452
aV0.28948
p453
aV0.32379
p454
aasVROUGE-4
p455
(lp456
(lp457
VAverage_R
p458
aV0.06283
p459
aV0.04971
p460
aV0.07556
p461
aa(lp462
VAverage_P
p463
aV0.06927
p464
aV0.05483
p465
aV0.08292
p466
aa(lp467
VAverage_F
p468
aV0.06245
p469
aV0.05020
p470
aV0.07426
p471
aasVROUGE-2
p472
(lp473
(lp474
VAverage_R
p475
aV0.11749
p476
aV0.10219
p477
aV0.13197
p478
aa(lp479
VAverage_P
p480
aV0.13327
p481
aV0.11661
p482
aV0.14928
p483
aa(lp484
VAverage_F
p485
aV0.11853
p486
aV0.10483
p487
aV0.13212
p488
aasVROUGE-3
p489
(lp490
(lp491
VAverage_R
p492
aV0.07508
p493
aV0.06135
p494
aV0.08824
p495
aa(lp496
VAverage_P
p497
aV0.08333
p498
aV0.06785
p499
aV0.09757
p500
aa(lp501
VAverage_F
p502
aV0.07489
p503
aV0.06195
p504
aV0.08744
p505
aasVROUGE-1
p506
(lp507
(lp508
VAverage_R
p509
aV0.33795
p510
aV0.31657
p511
aV0.35919
p512
aa(lp513
VAverage_P
p514
aV0.41006
p515
aV0.39186
p516
aV0.43056
p517
aa(lp518
VAverage_F
p519
aV0.34705
p520
aV0.32941
p521
aV0.36531
p522
aassS'05'
p523
(dp524
VROUGE-L
p525
(lp526
(lp527
VAverage_R
p528
aV0.29158
p529
aV0.27426
p530
aV0.31129
p531
aa(lp532
VAverage_P
p533
aV0.38302
p534
aV0.36028
p535
aV0.40673
p536
aa(lp537
VAverage_F
p538
aV0.31230
p539
aV0.29457
p540
aV0.33049
p541
aasVROUGE-4
p542
(lp543
(lp544
VAverage_R
p545
aV0.05071
p546
aV0.03870
p547
aV0.06393
p548
aa(lp549
VAverage_P
p550
aV0.06232
p551
aV0.04823
p552
aV0.07736
p553
aa(lp554
VAverage_F
p555
aV0.05420
p556
aV0.04150
p557
aV0.06783
p558
aasVROUGE-2
p559
(lp560
(lp561
VAverage_R
p562
aV0.10602
p563
aV0.09198
p564
aV0.12112
p565
aa(lp566
VAverage_P
p567
aV0.13502
p568
aV0.11774
p569
aV0.15311
p570
aa(lp571
VAverage_F
p572
aV0.11326
p573
aV0.09835
p574
aV0.12890
p575
aasVROUGE-3
p576
(lp577
(lp578
VAverage_R
p579
aV0.06282
p580
aV0.05007
p581
aV0.07670
p582
aa(lp583
VAverage_P
p584
aV0.07786
p585
aV0.06278
p586
aV0.09372
p587
aa(lp588
VAverage_F
p589
aV0.06711
p590
aV0.05355
p591
aV0.08169
p592
aasVROUGE-1
p593
(lp594
(lp595
VAverage_R
p596
aV0.32544
p597
aV0.30711
p598
aV0.34501
p599
aa(lp600
VAverage_P
p601
aV0.42541
p602
aV0.40165
p603
aV0.44974
p604
aa(lp605
VAverage_F
p606
aV0.34809
p607
aV0.33008
p608
aV0.36571
p609
aassS'03'
p610
(dp611
VROUGE-L
p612
(lp613
(lp614
VAverage_R
p615
aV0.30520
p616
aV0.28686
p617
aV0.32313
p618
aa(lp619
VAverage_P
p620
aV0.39034
p621
aV0.37123
p622
aV0.40880
p623
aa(lp624
VAverage_F
p625
aV0.32870
p626
aV0.31241
p627
aV0.34437
p628
aasVROUGE-4
p629
(lp630
(lp631
VAverage_R
p632
aV0.06246
p633
aV0.05071
p634
aV0.07399
p635
aa(lp636
VAverage_P
p637
aV0.07583
p638
aV0.06197
p639
aV0.09091
p640
aa(lp641
VAverage_F
p642
aV0.06546
p643
aV0.05420
p644
aV0.07755
p645
aasVROUGE-2
p646
(lp647
(lp648
VAverage_R
p649
aV0.12178
p650
aV0.10778
p651
aV0.13589
p652
aa(lp653
VAverage_P
p654
aV0.15185
p655
aV0.13490
p656
aV0.16871
p657
aa(lp658
VAverage_F
p659
aV0.12963
p660
aV0.11566
p661
aV0.14325
p662
aasVROUGE-3
p663
(lp664
(lp665
VAverage_R
p666
aV0.07749
p667
aV0.06492
p668
aV0.09029
p669
aa(lp670
VAverage_P
p671
aV0.09516
p672
aV0.07998
p673
aV0.11124
p674
aa(lp675
VAverage_F
p676
aV0.08175
p677
aV0.06919
p678
aV0.09474
p679
aasVROUGE-1
p680
(lp681
(lp682
VAverage_R
p683
aV0.33419
p684
aV0.31442
p685
aV0.35334
p686
aa(lp687
VAverage_P
p688
aV0.42760
p689
aV0.40759
p690
aV0.44720
p691
aa(lp692
VAverage_F
p693
aV0.36010
p694
aV0.34361
p695
aV0.37580
p696
aassS'08'
p697
(dp698
VROUGE-L
p699
(lp700
(lp701
VAverage_R
p702
aV0.30258
p703
aV0.28576
p704
aV0.31938
p705
aa(lp706
VAverage_P
p707
aV0.38089
p708
aV0.36124
p709
aV0.40143
p710
aa(lp711
VAverage_F
p712
aV0.32384
p713
aV0.30677
p714
aV0.34003
p715
aasVROUGE-4
p716
(lp717
(lp718
VAverage_R
p719
aV0.04894
p720
aV0.03754
p721
aV0.06111
p722
aa(lp723
VAverage_P
p724
aV0.06372
p725
aV0.04836
p726
aV0.07957
p727
aa(lp728
VAverage_F
p729
aV0.05402
p730
aV0.04133
p731
aV0.06694
p732
aasVROUGE-2
p733
(lp734
(lp735
VAverage_R
p736
aV0.10916
p737
aV0.09540
p738
aV0.12314
p739
aa(lp740
VAverage_P
p741
aV0.13786
p742
aV0.12008
p743
aV0.15538
p744
aa(lp745
VAverage_F
p746
aV0.11774
p747
aV0.10328
p748
aV0.13314
p749
aasVROUGE-3
p750
(lp751
(lp752
VAverage_R
p753
aV0.06226
p754
aV0.04991
p755
aV0.07502
p756
aa(lp757
VAverage_P
p758
aV0.07977
p759
aV0.06370
p760
aV0.09568
p761
aa(lp762
VAverage_F
p763
aV0.06802
p764
aV0.05463
p765
aV0.08165
p766
aasVROUGE-1
p767
(lp768
(lp769
VAverage_R
p770
aV0.33738
p771
aV0.31944
p772
aV0.35512
p773
aa(lp774
VAverage_P
p775
aV0.42433
p776
aV0.40279
p777
aV0.44595
p778
aa(lp779
VAverage_F
p780
aV0.36086
p781
aV0.34298
p782
aV0.37764
p783
aassS'09'
p784
(dp785
VROUGE-L
p786
(lp787
(lp788
VAverage_R
p789
aV0.28772
p790
aV0.27122
p791
aV0.30440
p792
aa(lp793
VAverage_P
p794
aV0.36901
p795
aV0.34825
p796
aV0.38885
p797
aa(lp798
VAverage_F
p799
aV0.30643
p800
aV0.29010
p801
aV0.32162
p802
aasVROUGE-4
p803
(lp804
(lp805
VAverage_R
p806
aV0.03944
p807
aV0.02995
p808
aV0.04987
p809
aa(lp810
VAverage_P
p811
aV0.05036
p812
aV0.03783
p813
aV0.06340
p814
aa(lp815
VAverage_F
p816
aV0.04257
p817
aV0.03234
p818
aV0.05334
p819
aasVROUGE-2
p820
(lp821
(lp822
VAverage_R
p823
aV0.09615
p824
aV0.08385
p825
aV0.10907
p826
aa(lp827
VAverage_P
p828
aV0.12264
p829
aV0.10679
p830
aV0.13705
p831
aa(lp832
VAverage_F
p833
aV0.10249
p834
aV0.08941
p835
aV0.11555
p836
aasVROUGE-3
p837
(lp838
(lp839
VAverage_R
p840
aV0.05157
p841
aV0.04106
p842
aV0.06251
p843
aa(lp844
VAverage_P
p845
aV0.06535
p846
aV0.05210
p847
aV0.07930
p848
aa(lp849
VAverage_F
p850
aV0.05537
p851
aV0.04395
p852
aV0.06678
p853
aasVROUGE-1
p854
(lp855
(lp856
VAverage_R
p857
aV0.32457
p858
aV0.30693
p859
aV0.34244
p860
aa(lp861
VAverage_P
p862
aV0.41534
p863
aV0.39363
p864
aV0.43611
p865
aa(lp866
VAverage_F
p867
aV0.34549
p868
aV0.32910
p869
aV0.36172
p870
aass.