(i__main__
sxpText
p0
(dp1
S'sentenceset'
p2
(lp3
(i__main__
sxpSent
p4
(dp5
S'sentence_text'
p6
S'a freighter carrying a cargo of beer sank in the north sea today off the dutch coast and all nine crew members were rescued from life rafts, a coast guard spokesman said'
p7
sS'id_sec'
p8
I0
sS'id'
p9
I0
sS'id_para'
p10
I0
sba(i__main__
sxpSent
p11
(dp12
g6
S'the ship sank at about 12:45 p.m in high winds, some 28 nautical miles north of the island of ameland'
p13
sg8
I0
sg9
I1
sg10
I1
sba(i__main__
sxpSent
p14
(dp15
g6
S'it was not immediately clear what had caused the sinking 29 miles off the dutch island of ameland, according to the coast guard spokesman, who was not identified there were no casualties, he said'
p16
sg8
I0
sg9
I2
sg10
I2
sba(i__main__
sxpSent
p17
(dp18
g6
S"the coast guard official, who spoke in a dutch radio interview, identified the ship involved as the finnish-registered freighter ra and said it had been carrying a cargo of beer he did not give the ship's origin or destination"
p19
sg8
I0
sg9
I3
sg10
I3
sba(i__main__
sxpSent
p20
(dp21
g6
S'the nine crew members boarded two life rafts after the sinking in high winds they were taken ashore by a west german helicopter from the island of borkum, about 30 miles from the site of the sinking, the official said'
p22
sg8
I0
sg9
I4
sg10
I4
sba(i__main__
sxpSent
p23
(dp24
g6
S'a dutch navy aircraft and two life boats also rushed to the scene'
p25
sg8
I0
sg9
I5
sg10
I5
sba(i__main__
sxpSent
p26
(dp27
g6
S'earlier reports had said that the ship was a passenger ferry, possibly one of the dutch ships plying the frequent ferry lanes between the coastal islands and the dutch mainland'
p28
sg8
I0
sg9
I6
sg10
I6
sba(i__main__
sxpSent
p29
(dp30
g6
S'freight shipping in the area is also heavy because of its vicinity to the ports of delfzijl in the netherlands and emden in west germany'
p31
sg8
I0
sg9
I7
sg10
I7
sbasS'reference'
p32
S''
p33
sS'para_tfidf'
p34
(isxpFenciMakeTFIDF
sxpTFIDF
p35
(dp36
S'tfidf'
p37
ccopy_reg
_reconstructor
p38
(cscipy.sparse.csr
csr_matrix
p39
c__builtin__
object
p40
Ntp41
Rp42
(dp43
S'format'
p44
S'csr'
p45
sS'_shape'
p46
(I8
I121
tp47
sS'indptr'
p48
cnumpy.core.multiarray
_reconstruct
p49
(cnumpy
ndarray
p50
(I0
tp51
S'b'
p52
tp53
Rp54
(I1
(I9
tp55
cnumpy
dtype
p56
(S'i4'
p57
I0
I1
tp58
Rp59
(I3
S'<'
p60
NNNI-1
I-1
I0
tp61
bI00
S'\x00\x00\x00\x00\x1c\x00\x00\x00.\x00\x00\x00L\x00\x00\x00o\x00\x00\x00\x8f\x00\x00\x00\x9c\x00\x00\x00\xb4\x00\x00\x00\xc8\x00\x00\x00'
p62
tp63
bsS'indices'
p64
g49
(g50
(I0
tp65
g52
tp66
Rp67
(I1
(I200
tp68
g59
I00
S']\x00\x00\x00i\x00\x00\x000\x00\x00\x00Y\x00\x00\x00A\x00\x00\x00,\x00\x00\x00[\x00\x00\x00t\x00\x00\x00C\x00\x00\x00 \x00\x00\x00H\x00\x00\x00\t\x00\x00\x00\x0c\x00\x00\x00\x1e\x00\x00\x00$\x00\x00\x00M\x00\x00\x00p\x00\x00\x00`\x00\x00\x00J\x00\x00\x00l\x00\x00\x008\x00\x00\x00^\x00\x00\x00\x13\x00\x00\x00L\x00\x00\x00\x19\x00\x00\x00\x1a\x00\x00\x00*\x00\x00\x00\x04\x00\x00\x00\x0b\x00\x00\x00<\x00\x00\x00D\x00\x00\x00E\x00\x00\x00\x01\x00\x00\x00g\x00\x00\x00x\x00\x00\x005\x00\x00\x00R\x00\x00\x00\x00\x00\x00\x00\x05\x00\x00\x00\x10\x00\x00\x00a\x00\x00\x00J\x00\x00\x00l\x00\x00\x008\x00\x00\x00^\x00\x00\x00L\x00\x00\x002\x00\x00\x00\x1b\x00\x00\x00I\x00\x00\x00m\x00\x00\x006\x00\x00\x00w\x00\x00\x00o\x00\x00\x00\x06\x00\x00\x00\x02\x00\x00\x00e\x00\x00\x00\x1c\x00\x00\x001\x00\x00\x00v\x00\x00\x00\x1d\x00\x00\x007\x00\x00\x00K\x00\x00\x00s\x00\x00\x00>\x00\x00\x00\x0b\x00\x00\x00<\x00\x00\x00D\x00\x00\x00]\x00\x00\x00i\x00\x00\x000\x00\x00\x00t\x00\x00\x00\x1e\x00\x00\x00$\x00\x00\x00M\x00\x00\x00l\x00\x00\x00L\x00\x00\x00"\x00\x00\x00P\x00\x00\x00Q\x00\x00\x00b\x00\x00\x00/\x00\x00\x00#\x00\x00\x00\x12\x00\x00\x00W\x00\x00\x00(\x00\x00\x00\x0e\x00\x00\x00:\x00\x00\x009\x00\x00\x00X\x00\x00\x00h\x00\x00\x00N\x00\x00\x002\x00\x00\x006\x00\x00\x00w\x00\x00\x001\x00\x00\x00K\x00\x00\x00>\x00\x00\x00a\x00\x00\x00]\x00\x00\x000\x00\x00\x00\x0c\x00\x00\x00\x1e\x00\x00\x00$\x00\x00\x00l\x00\x00\x008\x00\x00\x00\x13\x00\x00\x00L\x00\x00\x00\x19\x00\x00\x00\x1a\x00\x00\x00*\x00\x00\x00\x04\x00\x00\x00f\x00\x00\x00\x03\x00\x00\x00\x17\x00\x00\x004\x00\x00\x00-\x00\x00\x00u\x00\x00\x00\x18\x00\x00\x00\x0f\x00\x00\x00j\x00\x00\x00n\x00\x00\x00\x07\x00\x00\x00q\x00\x00\x00\x15\x00\x00\x00N\x00\x00\x00e\x00\x00\x00<\x00\x00\x00D\x00\x00\x00x\x00\x00\x005\x00\x00\x00\x05\x00\x00\x00]\x00\x00\x00Y\x00\x00\x00A\x00\x00\x00,\x00\x00\x00t\x00\x00\x00C\x00\x00\x00 \x00\x00\x00H\x00\x00\x00l\x00\x00\x008\x00\x00\x00L\x00\x00\x00\x04\x00\x00\x00_\x00\x00\x00\\\x00\x00\x00\n\x00\x00\x00\x16\x00\x00\x00\x08\x00\x00\x00F\x00\x00\x00q\x00\x00\x00o\x00\x00\x00A\x00\x00\x00\x0c\x00\x00\x00$\x00\x00\x00l\x00\x00\x00\x04\x00\x00\x00B\x00\x00\x00=\x00\x00\x00\x1f\x00\x00\x00\x14\x00\x00\x00@\x00\x00\x00+\x00\x00\x00T\x00\x00\x00d\x00\x00\x00O\x00\x00\x00V\x00\x00\x00\'\x00\x00\x00S\x00\x00\x00k\x00\x00\x00Z\x00\x00\x00%\x00\x00\x001\x00\x00\x00s\x00\x00\x00a\x00\x00\x00]\x00\x00\x00\x0c\x00\x00\x00$\x00\x00\x00l\x00\x00\x00L\x00\x00\x00\x04\x00\x00\x00.\x00\x00\x00&\x00\x00\x00G\x00\x00\x00!\x00\x00\x00U\x00\x00\x00r\x00\x00\x00?\x00\x00\x00\x11\x00\x00\x003\x00\x00\x00;\x00\x00\x00\r\x00\x00\x00c\x00\x00\x00)\x00\x00\x00\n\x00\x00\x00u\x00\x00\x00o\x00\x00\x00\x0c\x00\x00\x00l\x00\x00\x008\x00\x00\x00L\x00\x00\x00'
p69
tp70
bsS'maxprint'
p71
I50
sS'data'
p72
g49
(g50
(I0
tp73
g52
tp74
Rp75
(I1
(I200
tp76
g56
(S'f8'
p77
I0
I1
tp78
Rp79
(I3
S'<'
p80
NNNI-1
I-1
I0
tp81
bI00
S'*\xb9\x00S\xd6\xd3\xbe?3\xdd{i\xf7\x03\xc7?\xb3\xc0K\x9bH\xdc\xc3?3\xdd{i\xf7\x03\xc7?\xb3\xc0K\x9bH\xdc\xc3?3\xdd{i\xf7\x03\xc7?PAG\xdbTv\xcb?\xb3\xc0K\x9bH\xdc\xc3?3\xdd{i\xf7\x03\xc7?3\xdd{i\xf7\x03\xc7?3\xdd{i\xf7\x03\xc7?PAG\xdbTv\xcb?*\xb9\x00S\xd6\xd3\xbe?\xb3\xc0K\x9bH\xdc\xd3?*\xb9\x00S\xd6\xd3\xbe?3\xdd{i\xf7\x03\xc7?PAG\xdbTv\xcb?PAG\xdbTv\xcb?3\xdd{i\xf7\x03\xc7?\xee\xf0io\x1b\xef\xc5?*\xb9\x00S\xd6\xd3\xbe?3\xdd{i\xf7\x03\xc7?3\xdd{i\xf7\x03\xc7?-\x80\xa0\xb6x\x84\xb8?3\xdd{i\xf7\x03\xc7?3\xdd{i\xf7\x03\xc7?3\xdd{i\xf7\x03\xc7?\xdf\x8a@\xbe\xe0\x1e\xd7?J\xe8\x93_\x0f)\xcd?}`\xb5\xfc\xbb)\xc9?}`\xb5\xfc\xbb)\xc9?V\xb6\xf8\xa6\xade\xd1?V\xb6\xf8\xa6\xade\xd1?V\xb6\xf8\xa6\xade\xd1?J\xe8\x93_\x0f)\xcd?J\xe8\x93_\x0f)\xcd?V\xb6\xf8\xa6\xade\xd1?V\xb6\xf8\xa6\xade\xd1?J\xe8\x93_\x0f)\xcd?V\xb6\xf8\xa6\xade\xd1?}`\xb5\xfc\xbb)\xc9?J\xe8\x93_\x0f)\xcd?l\xaf\xf4?H\xca\xcb?\x19\xdcW\x0ep\x87\xc3?J\xe8\x93_\x0f)\xcd?\x9a\xa8\xf2V9\x10\xcf?\x9d\xbe\xea\x88\xe5\xf8\xc4?;)N\x853\x06\xc9?;)N\x853\x06\xc9?;)N\x853\x06\xc9?\x9d\xbe\xea\x88\xe5\xf8\xc4?\x9d\xbe\xea\x88\xe5\xf8\xc4?\xd5\xccH\xd2\xea\x18\xc2?;)N\x853\x06\xc9?;)N\x853\x06\xc9?\x9d\xbe\xea\x88\xe5\xf8\xc4?;)N\x853\x06\xc9?\xd5\xccH\xd2\xea\x18\xc2?;)N\x853\x06\xc9?;)N\x853\x06\xc9?;)N\x853\x06\xc9?\x9d\xbe\xea\x88\xe5\xf8\xd4?\x9d\xbe\xea\x88\xe5\xf8\xd4?\x9d\xbe\xea\x88\xe5\xf8\xc4?\x9d\xbe\xea\x88\xe5\xf8\xc4?\xd5\xccH\xd2\xea\x18\xc2?\xd5\xccH\xd2\xea\x18\xc2?l\xc4\xca\xab9\x17\xbc?\x9d\xbe\xea\x88\xe5\xf8\xc4?\xd5\xccH\xd2\xea\x18\xc2?\xd5\xccH\xd2\xea\x18\xc2?\xd5\xccH\xd2\xea\x18\xc2?l\xc4\xca\xab9\x17\xbc?\x9d\xbe\xea\x88\xe5\xf8\xc4?\xc4\xe6\x85\x8c\xec\xfa\xcd?\xdf\xe0\x86>DW\xb6?\'3\x91@9\x06\xc8?\'3\x91@9\x06\xc8?\'3\x91@9\x06\xc8?\'3\x91@9\x06\xc8?\'3\x91@9\x06\xc8?\'3\x91@9\x06\xc8?\'3\x91@9\x06\xc8?\'3\x91@9\x06\xc8?\'3\x91@9\x06\xc8?\'3\x91@9\x06\xc8?\'3\x91@9\x06\xc8?\'3\x91@9\x06\xc8?\'3\x91@9\x06\xc8?\'3\x91@9\x06\xc8?\x04\xfd6\x0e^"\xc4?\x04\xfd6\x0e^"\xc4?\x04\xfd6\x0e^"\xc4?\x04\xfd6\x0e^"\xc4?\xa1<\x1e\xd1\xcb_\xc1?\x04\xfd6\x0e^"\xc4?\x04\xfd6\x0e^"\xc4?\xa1<\x1e\xd1\xcb_\xc1?\xfb\x0c\x88=\xe1\xf7\xba?\xa1<\x1e\xd1\xcb_\xc1?\xfb\x0c\x88=\xe1\xf7\xba?\xa1<\x1e\xd1\xcb_\xc1?\xfb\x0c\x88=\xe1\xf7\xba?\xb3\xa0\xd3\xd8*0\xd3?\xfb\x0c\x88=\xe1\xf7\xba?\x04\xfd6\x0e^"\xc4?7\x8cV\xc3\xbcr\xb5?\x04\xfd6\x0e^"\xc4?\x04\xfd6\x0e^"\xc4?\x04\xfd6\x0e^"\xc4?\xfb\x0c\x88=\xe1\xf7\xca?\xb8~ssj5\xc6?\xb8~ssj5\xc6?\xb8~ssj5\xc6?\xb8~ssj5\xc6?\xb8~ssj5\xc6?\x0b4<z\xd2\x9c\xc2?\xb8~ssj5\xc6?\xb8~ssj5\xc6?\xb8~ssj5\xc6?\xb8~ssj5\xc6?\xb8~ssj5\xc6?\x0b4<z\xd2\x9c\xc2?\xb8~ssj5\xc6?\x0b4<z\xd2\x9c\xc2?\x0b4<z\xd2\x9c\xd2?\x9eD\x1d\x8d\xa6\x0f\xc0?\x9eD\x1d\x8d\xa6\x0f\xc0?\x0b4<z\xd2\x9c\xc2?\x0b4<z\xd2\x9c\xc2?\x0b4<z\xd2\x9c\xc2?\xdf\xf3\xcb\'\x1d\xee\xb8?\x0b4<z\xd2\x9c\xc2?\x9eD\x1d\x8d\xa6\x0f\xc0?\x0b4<z\xd2\x9c\xd2?\x9eD\x1d\x8d\xa6\x0f\xc0?\x0b4<z\xd2\x9c\xc2?\x0b4<z\xd2\x9c\xc2?\x0b4<z\xd2\x9c\xc2?\xc5\r\x0c\xd0c\x9b\xda?\xdf\xf3\xcb\'\x1d\xee\xb8?\x06\x15\x8eM\xc5\xd3\xc3?\xdf\xf3\xcb\'\x1d\xee\xb8?\x89\x13\xde\xcbw\xe1\xd5?\x89\x13\xde\xcbw\xe1\xd5?TS\xb5\xa1wV\xd2?\x89\x13\xde\xcbw\xe1\xd5?\x89\x13\xde\xcbw\xe1\xd5?\x89\x13\xde\xcbw\xe1\xd5?TS\xb5\xa1wV\xd2?t\xd8\x8fV\xe1\xa5\xcf?t\xd8\x8fV\xe1\xa5\xcf?\x08X>\x02\xe1\x8f\xc8?\x08X>\x02\xe1\x8f\xc8?\x9d\xd7\xec\xad\xe0y\xc1?\x08X>\x02\xe1\x8f\xc8?\xd5\xd3\xe5\x05 \t\xc9?\xd5\xd3\xe5\x05 \t\xc9?\xd5\xd3\xe5\x05 \t\xc9?\xd5\xd3\xe5\x05 \t\xc9?\xd5\xd3\xe5\x05 \t\xc9?\xd5\xd3\xe5\x05 \t\xc9?\xd5\xd3\xe5\x05 \t\xc9?\xd5\xd3\xe5\x05 \t\xc9?\xd5\xd3\xe5\x05 \t\xc9?\xd5\xd3\xe5\x05 \t\xc9?\xd5\xd3\xe5\x05 \t\xd9?\xd5\xd3\xe5\x05 \t\xc9?\xd5\xd3\xe5\x05 \t\xc9?\xd5\xd3\xe5\x05 \t\xc9?\xd5\xd3\xe5\x05 \t\xc9?\xe7\xe7\xfb!\x08\x1b\xc2?\\|\x93\xd6X\xfb\xc4?\xe7\xe7\xfb!\x08\x1b\xc2?\xdc S\xe5\x81\x1a\xbc?\xdc S\xe5\x81\x1a\xbc?\xdc S\xe5\x81\x1a\xcc?b\x0eZh\xb0\xfe\xd8?\xf4\xf7#|\xe0Y\xb6?\xdc S\xe5\x81\x1a\xbc?\x18\xdf3*\xf3f\xcc?\x18\xdf3*\xf3f\xcc?\x18\xdf3*\xf3f\xcc?\x18\xdf3*\xf3f\xcc?\x18\xdf3*\xf3f\xcc?\x18\xdf3*\xf3f\xcc?\x18\xdf3*\xf3f\xcc?\x18\xdf3*\xf3f\xcc?\x18\xdf3*\xf3f\xcc?\x18\xdf3*\xf3f\xcc?\x18\xdf3*\xf3f\xcc?\x18\xdf3*\xf3f\xcc?\x18\xdf3*\xf3f\xcc?aK\x11\x9a\x9f\xcd\xc7?aK\x11\x9a\x9f\xcd\xc7?l5\xf4\x0bL\x8a\xc4?iC\xa3\xf7\xf0\xe1\xbf?\xfd\x94\x86aw\x03\xd1?\x8fr\xba\xb9t\xe9\xd7?\x7f\x17i\xdbI[\xc9?'
p82
tp83
bsbsS'word'
p84
(lp85
V12:45
p86
aV28
p87
aV29
p88
aV30
p89
aVa
p90
aVabout
p91
aVaccording
p92
aVafter
p93
aVaircraft
p94
aVall
p95
aValso
p96
aVameland
p97
aVand
p98
aVarea
p99
aVas
p100
aVashore
p101
aVat
p102
aVbecause
p103
aVbeen
p104
aVbeer
p105
aVbetween
p106
aVboarded
p107
aVboats
p108
aVborkum
p109
aVby
p110
aVcargo
p111
aVcarrying
p112
aVcasualties
p113
aVcaused
p114
aVclear
p115
aVcoast
p116
aVcoastal
p117
aVcrew
p118
aVdelfzijl
p119
aVdestination
p120
aVdid
p121
aVdutch
p122
aVearlier
p123
aVemden
p124
aVferry
p125
aVfinnish-registered
p126
aVfreight
p127
aVfreighter
p128
aVfrequent
p129
aVfrom
p130
aVgerman
p131
aVgermany
p132
aVgive
p133
aVguard
p134
aVhad
p135
aVhe
p136
aVheavy
p137
aVhelicopter
p138
aVhigh
p139
aVidentified
p140
aVimmediately
p141
aVin
p142
aVinterview
p143
aVinvolved
p144
aVis
p145
aVisland
p146
aVislands
p147
aVit
p148
aVits
p149
aVlanes
p150
aVlife
p151
aVmainland
p152
aVmembers
p153
aVmiles
p154
aVnautical
p155
aVnavy
p156
aVnetherlands
p157
aVnine
p158
aVno
p159
aVnorth
p160
aVnot
p161
aVof
p162
aVoff
p163
aVofficial
p164
aVone
p165
aVor
p166
aVorigin
p167
aVp.m
p168
aVpassenger
p169
aVplying
p170
aVports
p171
aVpossibly
p172
aVra
p173
aVradio
p174
aVrafts
p175
aVreports
p176
aVrescued
p177
aVrushed
p178
aVsaid
p179
aVsank
p180
aVscene
p181
aVsea
p182
aVship
p183
aVship's
p184
aVshipping
p185
aVships
p186
aVsinking
p187
aVsite
p188
aVsome
p189
aVspoke
p190
aVspokesman
p191
aVtaken
p192
aVthat
p193
aVthe
p194
aVthere
p195
aVthey
p196
aVto
p197
aVtoday
p198
aVtwo
p199
aVvicinity
p200
aVwas
p201
aVwere
p202
aVwest
p203
aVwhat
p204
aVwho
p205
aVwinds
p206
asS'ct'
p207
g38
(g39
g40
Ntp208
Rp209
(dp210
g44
S'csr'
p211
sg46
(I8
I121
tp212
sg48
g49
(g50
(I0
tp213
g52
tp214
Rp215
(I1
(I9
tp216
g59
I00
S'\x00\x00\x00\x00\x1c\x00\x00\x00.\x00\x00\x00L\x00\x00\x00o\x00\x00\x00\x8f\x00\x00\x00\x9c\x00\x00\x00\xb4\x00\x00\x00\xc8\x00\x00\x00'
p217
tp218
bsg64
g49
(g50
(I0
tp219
g52
tp220
Rp221
(I1
(I200
tp222
g59
I00
S'\x04\x00\x00\x00*\x00\x00\x00\x1a\x00\x00\x00\x19\x00\x00\x00L\x00\x00\x00\x13\x00\x00\x00^\x00\x00\x008\x00\x00\x00l\x00\x00\x00J\x00\x00\x00`\x00\x00\x00p\x00\x00\x00M\x00\x00\x00$\x00\x00\x00\x1e\x00\x00\x00\x0c\x00\x00\x00\t\x00\x00\x00H\x00\x00\x00 \x00\x00\x00C\x00\x00\x00t\x00\x00\x00[\x00\x00\x00,\x00\x00\x00A\x00\x00\x00Y\x00\x00\x000\x00\x00\x00i\x00\x00\x00]\x00\x00\x00L\x00\x00\x00^\x00\x00\x008\x00\x00\x00l\x00\x00\x00J\x00\x00\x00a\x00\x00\x00\x10\x00\x00\x00\x05\x00\x00\x00\x00\x00\x00\x00R\x00\x00\x005\x00\x00\x00x\x00\x00\x00g\x00\x00\x00\x01\x00\x00\x00E\x00\x00\x00D\x00\x00\x00<\x00\x00\x00\x0b\x00\x00\x00L\x00\x00\x00l\x00\x00\x00M\x00\x00\x00$\x00\x00\x00\x1e\x00\x00\x00t\x00\x00\x000\x00\x00\x00i\x00\x00\x00]\x00\x00\x00D\x00\x00\x00<\x00\x00\x00\x0b\x00\x00\x00>\x00\x00\x00s\x00\x00\x00K\x00\x00\x007\x00\x00\x00\x1d\x00\x00\x00v\x00\x00\x001\x00\x00\x00\x1c\x00\x00\x00e\x00\x00\x00\x02\x00\x00\x00\x06\x00\x00\x00o\x00\x00\x00w\x00\x00\x006\x00\x00\x00m\x00\x00\x00I\x00\x00\x00\x1b\x00\x00\x002\x00\x00\x00\x04\x00\x00\x00*\x00\x00\x00\x1a\x00\x00\x00\x19\x00\x00\x00L\x00\x00\x00\x13\x00\x00\x008\x00\x00\x00l\x00\x00\x00$\x00\x00\x00\x1e\x00\x00\x00\x0c\x00\x00\x000\x00\x00\x00]\x00\x00\x00a\x00\x00\x00>\x00\x00\x00K\x00\x00\x001\x00\x00\x00w\x00\x00\x006\x00\x00\x002\x00\x00\x00N\x00\x00\x00h\x00\x00\x00X\x00\x00\x009\x00\x00\x00:\x00\x00\x00\x0e\x00\x00\x00(\x00\x00\x00W\x00\x00\x00\x12\x00\x00\x00#\x00\x00\x00/\x00\x00\x00b\x00\x00\x00Q\x00\x00\x00P\x00\x00\x00"\x00\x00\x00\x04\x00\x00\x00L\x00\x00\x008\x00\x00\x00l\x00\x00\x00H\x00\x00\x00 \x00\x00\x00C\x00\x00\x00t\x00\x00\x00,\x00\x00\x00A\x00\x00\x00Y\x00\x00\x00]\x00\x00\x00\x05\x00\x00\x005\x00\x00\x00x\x00\x00\x00D\x00\x00\x00<\x00\x00\x00e\x00\x00\x00N\x00\x00\x00\x15\x00\x00\x00q\x00\x00\x00\x07\x00\x00\x00n\x00\x00\x00j\x00\x00\x00\x0f\x00\x00\x00\x18\x00\x00\x00u\x00\x00\x00-\x00\x00\x004\x00\x00\x00\x17\x00\x00\x00\x03\x00\x00\x00f\x00\x00\x00\x04\x00\x00\x00l\x00\x00\x00$\x00\x00\x00\x0c\x00\x00\x00A\x00\x00\x00o\x00\x00\x00q\x00\x00\x00F\x00\x00\x00\x08\x00\x00\x00\x16\x00\x00\x00\n\x00\x00\x00\\\x00\x00\x00_\x00\x00\x00\x04\x00\x00\x00L\x00\x00\x00l\x00\x00\x00$\x00\x00\x00\x0c\x00\x00\x00]\x00\x00\x00a\x00\x00\x00s\x00\x00\x001\x00\x00\x00%\x00\x00\x00Z\x00\x00\x00k\x00\x00\x00S\x00\x00\x00\'\x00\x00\x00V\x00\x00\x00O\x00\x00\x00d\x00\x00\x00T\x00\x00\x00+\x00\x00\x00@\x00\x00\x00\x14\x00\x00\x00\x1f\x00\x00\x00=\x00\x00\x00B\x00\x00\x00L\x00\x00\x008\x00\x00\x00l\x00\x00\x00\x0c\x00\x00\x00o\x00\x00\x00u\x00\x00\x00\n\x00\x00\x00)\x00\x00\x00c\x00\x00\x00\r\x00\x00\x00;\x00\x00\x003\x00\x00\x00\x11\x00\x00\x00?\x00\x00\x00r\x00\x00\x00U\x00\x00\x00!\x00\x00\x00G\x00\x00\x00&\x00\x00\x00.\x00\x00\x00'
p223
tp224
bsg71
I50
sg72
g49
(g50
(I0
tp225
g52
tp226
Rp227
(I1
(I200
tp228
g56
(S'i8'
p229
I0
I1
tp230
Rp231
(I3
S'<'
p232
NNNI-1
I-1
I0
tp233
bI00
S'\x03\x00\x00\x00\x00\x00\x00\x00\x01\x00\x00\x00\x00\x00\x00\x00\x01\x00\x00\x00\x00\x00\x00\x00\x01\x00\x00\x00\x00\x00\x00\x00\x01\x00\x00\x00\x00\x00\x00\x00\x01\x00\x00\x00\x00\x00\x00\x00\x01\x00\x00\x00\x00\x00\x00\x00\x01\x00\x00\x00\x00\x00\x00\x00\x02\x00\x00\x00\x00\x00\x00\x00\x01\x00\x00\x00\x00\x00\x00\x00\x01\x00\x00\x00\x00\x00\x00\x00\x01\x00\x00\x00\x00\x00\x00\x00\x01\x00\x00\x00\x00\x00\x00\x00\x01\x00\x00\x00\x00\x00\x00\x00\x02\x00\x00\x00\x00\x00\x00\x00\x01\x00\x00\x00\x00\x00\x00\x00\x01\x00\x00\x00\x00\x00\x00\x00\x01\x00\x00\x00\x00\x00\x00\x00\x01\x00\x00\x00\x00\x00\x00\x00\x01\x00\x00\x00\x00\x00\x00\x00\x01\x00\x00\x00\x00\x00\x00\x00\x01\x00\x00\x00\x00\x00\x00\x00\x01\x00\x00\x00\x00\x00\x00\x00\x01\x00\x00\x00\x00\x00\x00\x00\x01\x00\x00\x00\x00\x00\x00\x00\x01\x00\x00\x00\x00\x00\x00\x00\x01\x00\x00\x00\x00\x00\x00\x00\x01\x00\x00\x00\x00\x00\x00\x00\x02\x00\x00\x00\x00\x00\x00\x00\x01\x00\x00\x00\x00\x00\x00\x00\x01\x00\x00\x00\x00\x00\x00\x00\x02\x00\x00\x00\x00\x00\x00\x00\x01\x00\x00\x00\x00\x00\x00\x00\x01\x00\x00\x00\x00\x00\x00\x00\x01\x00\x00\x00\x00\x00\x00\x00\x01\x00\x00\x00\x00\x00\x00\x00\x01\x00\x00\x00\x00\x00\x00\x00\x01\x00\x00\x00\x00\x00\x00\x00\x01\x00\x00\x00\x00\x00\x00\x00\x01\x00\x00\x00\x00\x00\x00\x00\x01\x00\x00\x00\x00\x00\x00\x00\x01\x00\x00\x00\x00\x00\x00\x00\x01\x00\x00\x00\x00\x00\x00\x00\x01\x00\x00\x00\x00\x00\x00\x00\x01\x00\x00\x00\x00\x00\x00\x00\x01\x00\x00\x00\x00\x00\x00\x00\x01\x00\x00\x00\x00\x00\x00\x00\x03\x00\x00\x00\x00\x00\x00\x00\x01\x00\x00\x00\x00\x00\x00\x00\x01\x00\x00\x00\x00\x00\x00\x00\x01\x00\x00\x00\x00\x00\x00\x00\x01\x00\x00\x00\x00\x00\x00\x00\x01\x00\x00\x00\x00\x00\x00\x00\x01\x00\x00\x00\x00\x00\x00\x00\x01\x00\x00\x00\x00\x00\x00\x00\x01\x00\x00\x00\x00\x00\x00\x00\x01\x00\x00\x00\x00\x00\x00\x00\x01\x00\x00\x00\x00\x00\x00\x00\x01\x00\x00\x00\x00\x00\x00\x00\x02\x00\x00\x00\x00\x00\x00\x00\x02\x00\x00\x00\x00\x00\x00\x00\x01\x00\x00\x00\x00\x00\x00\x00\x01\x00\x00\x00\x00\x00\x00\x00\x01\x00\x00\x00\x00\x00\x00\x00\x01\x00\x00\x00\x00\x00\x00\x00\x01\x00\x00\x00\x00\x00\x00\x00\x01\x00\x00\x00\x00\x00\x00\x00\x01\x00\x00\x00\x00\x00\x00\x00\x01\x00\x00\x00\x00\x00\x00\x00\x01\x00\x00\x00\x00\x00\x00\x00\x01\x00\x00\x00\x00\x00\x00\x00\x01\x00\x00\x00\x00\x00\x00\x00\x01\x00\x00\x00\x00\x00\x00\x00\x01\x00\x00\x00\x00\x00\x00\x00\x01\x00\x00\x00\x00\x00\x00\x00\x01\x00\x00\x00\x00\x00\x00\x00\x02\x00\x00\x00\x00\x00\x00\x00\x01\x00\x00\x00\x00\x00\x00\x00\x01\x00\x00\x00\x00\x00\x00\x00\x01\x00\x00\x00\x00\x00\x00\x00\x01\x00\x00\x00\x00\x00\x00\x00\x01\x00\x00\x00\x00\x00\x00\x00\x01\x00\x00\x00\x00\x00\x00\x00\x04\x00\x00\x00\x00\x00\x00\x00\x01\x00\x00\x00\x00\x00\x00\x00\x01\x00\x00\x00\x00\x00\x00\x00\x01\x00\x00\x00\x00\x00\x00\x00\x01\x00\x00\x00\x00\x00\x00\x00\x01\x00\x00\x00\x00\x00\x00\x00\x01\x00\x00\x00\x00\x00\x00\x00\x01\x00\x00\x00\x00\x00\x00\x00\x01\x00\x00\x00\x00\x00\x00\x00\x01\x00\x00\x00\x00\x00\x00\x00\x01\x00\x00\x00\x00\x00\x00\x00\x01\x00\x00\x00\x00\x00\x00\x00\x01\x00\x00\x00\x00\x00\x00\x00\x01\x00\x00\x00\x00\x00\x00\x00\x01\x00\x00\x00\x00\x00\x00\x00\x01\x00\x00\x00\x00\x00\x00\x00\x01\x00\x00\x00\x00\x00\x00\x00\x01\x00\x00\x00\x00\x00\x00\x00\x01\x00\x00\x00\x00\x00\x00\x00\x01\x00\x00\x00\x00\x00\x00\x00\x01\x00\x00\x00\x00\x00\x00\x00\x01\x00\x00\x00\x00\x00\x00\x00\x01\x00\x00\x00\x00\x00\x00\x00\x01\x00\x00\x00\x00\x00\x00\x00\x01\x00\x00\x00\x00\x00\x00\x00\x01\x00\x00\x00\x00\x00\x00\x00\x01\x00\x00\x00\x00\x00\x00\x00\x01\x00\x00\x00\x00\x00\x00\x00\x01\x00\x00\x00\x00\x00\x00\x00\x02\x00\x00\x00\x00\x00\x00\x00\x01\x00\x00\x00\x00\x00\x00\x00\x06\x00\x00\x00\x00\x00\x00\x00\x01\x00\x00\x00\x00\x00\x00\x00\x01\x00\x00\x00\x00\x00\x00\x00\x01\x00\x00\x00\x00\x00\x00\x00\x01\x00\x00\x00\x00\x00\x00\x00\x02\x00\x00\x00\x00\x00\x00\x00\x01\x00\x00\x00\x00\x00\x00\x00\x01\x00\x00\x00\x00\x00\x00\x00\x01\x00\x00\x00\x00\x00\x00\x00\x01\x00\x00\x00\x00\x00\x00\x00\x01\x00\x00\x00\x00\x00\x00\x00\x01\x00\x00\x00\x00\x00\x00\x00\x01\x00\x00\x00\x00\x00\x00\x00\x01\x00\x00\x00\x00\x00\x00\x00\x02\x00\x00\x00\x00\x00\x00\x00\x01\x00\x00\x00\x00\x00\x00\x00\x01\x00\x00\x00\x00\x00\x00\x00\x01\x00\x00\x00\x00\x00\x00\x00\x01\x00\x00\x00\x00\x00\x00\x00\x01\x00\x00\x00\x00\x00\x00\x00\x01\x00\x00\x00\x00\x00\x00\x00\x01\x00\x00\x00\x00\x00\x00\x00\x01\x00\x00\x00\x00\x00\x00\x00\x01\x00\x00\x00\x00\x00\x00\x00\x01\x00\x00\x00\x00\x00\x00\x00\x01\x00\x00\x00\x00\x00\x00\x00\x01\x00\x00\x00\x00\x00\x00\x00\x01\x00\x00\x00\x00\x00\x00\x00\x01\x00\x00\x00\x00\x00\x00\x00\x01\x00\x00\x00\x00\x00\x00\x00\x01\x00\x00\x00\x00\x00\x00\x00\x01\x00\x00\x00\x00\x00\x00\x00\x01\x00\x00\x00\x00\x00\x00\x00\x01\x00\x00\x00\x00\x00\x00\x00\x01\x00\x00\x00\x00\x00\x00\x00\x01\x00\x00\x00\x00\x00\x00\x00\x01\x00\x00\x00\x00\x00\x00\x00\x01\x00\x00\x00\x00\x00\x00\x00\x01\x00\x00\x00\x00\x00\x00\x00\x01\x00\x00\x00\x00\x00\x00\x00\x01\x00\x00\x00\x00\x00\x00\x00\x01\x00\x00\x00\x00\x00\x00\x00\x01\x00\x00\x00\x00\x00\x00\x00\x01\x00\x00\x00\x00\x00\x00\x00\x05\x00\x00\x00\x00\x00\x00\x00\x02\x00\x00\x00\x00\x00\x00\x00\x01\x00\x00\x00\x00\x00\x00\x00\x01\x00\x00\x00\x00\x00\x00\x00\x01\x00\x00\x00\x00\x00\x00\x00\x01\x00\x00\x00\x00\x00\x00\x00\x01\x00\x00\x00\x00\x00\x00\x00\x01\x00\x00\x00\x00\x00\x00\x00\x01\x00\x00\x00\x00\x00\x00\x00\x01\x00\x00\x00\x00\x00\x00\x00\x01\x00\x00\x00\x00\x00\x00\x00\x02\x00\x00\x00\x00\x00\x00\x00\x01\x00\x00\x00\x00\x00\x00\x00\x01\x00\x00\x00\x00\x00\x00\x00\x01\x00\x00\x00\x00\x00\x00\x00\x01\x00\x00\x00\x00\x00\x00\x00\x01\x00\x00\x00\x00\x00\x00\x00\x01\x00\x00\x00\x00\x00\x00\x00\x01\x00\x00\x00\x00\x00\x00\x00\x01\x00\x00\x00\x00\x00\x00\x00\x01\x00\x00\x00\x00\x00\x00\x00\x01\x00\x00\x00\x00\x00\x00\x00\x02\x00\x00\x00\x00\x00\x00\x00\x03\x00\x00\x00\x00\x00\x00\x00\x03\x00\x00\x00\x00\x00\x00\x00\x01\x00\x00\x00\x00\x00\x00\x00\x01\x00\x00\x00\x00\x00\x00\x00\x01\x00\x00\x00\x00\x00\x00\x00\x01\x00\x00\x00\x00\x00\x00\x00\x01\x00\x00\x00\x00\x00\x00\x00\x01\x00\x00\x00\x00\x00\x00\x00\x01\x00\x00\x00\x00\x00\x00\x00\x01\x00\x00\x00\x00\x00\x00\x00\x01\x00\x00\x00\x00\x00\x00\x00\x01\x00\x00\x00\x00\x00\x00\x00\x01\x00\x00\x00\x00\x00\x00\x00\x01\x00\x00\x00\x00\x00\x00\x00\x01\x00\x00\x00\x00\x00\x00\x00\x01\x00\x00\x00\x00\x00\x00\x00\x01\x00\x00\x00\x00\x00\x00\x00\x01\x00\x00\x00\x00\x00\x00\x00\x01\x00\x00\x00\x00\x00\x00\x00'
p234
tp235
bsbsbsS'abstract'
p236
g33
sS'p_t'
p237
g38
(g39
g40
Ntp238
Rp239
(dp240
g44
S'csr'
p241
sg46
(I8
I8
tp242
sS'_has_sorted_indices'
p243
I01
sg48
g49
(g50
(I0
tp244
g52
tp245
Rp246
(I1
(I9
tp247
g56
(S'i4'
p248
I0
I1
tp249
Rp250
(I3
S'<'
p251
NNNI-1
I-1
I0
tp252
bI00
S'\x00\x00\x00\x00\x01\x00\x00\x00\x02\x00\x00\x00\x03\x00\x00\x00\x04\x00\x00\x00\x05\x00\x00\x00\x06\x00\x00\x00\x07\x00\x00\x00\x08\x00\x00\x00'
p253
tp254
bsg64
g49
(g50
(I0
tp255
g52
tp256
Rp257
(I1
(I8
tp258
g250
I00
S'\x00\x00\x00\x00\x01\x00\x00\x00\x02\x00\x00\x00\x03\x00\x00\x00\x04\x00\x00\x00\x05\x00\x00\x00\x06\x00\x00\x00\x07\x00\x00\x00'
p259
tp260
bsg71
I50
sg72
g49
(g50
(I0
tp261
g52
tp262
Rp263
(I1
(I8
tp264
g79
I00
S'\x00\x00\x00\x00\x00\x00\xf0?\x00\x00\x00\x00\x00\x00\xf0?\x00\x00\x00\x00\x00\x00\xf0?\x00\x00\x00\x00\x00\x00\xf0?\x00\x00\x00\x00\x00\x00\xf0?\x00\x00\x00\x00\x00\x00\xf0?\x00\x00\x00\x00\x00\x00\xf0?\x00\x00\x00\x00\x00\x00\xf0?'
p265
tp266
bsbsS'section_id_dict'
p267
(dp268
S'global'
p269
I0
ssS'keycount'
p270
(isxpProcessParaText
sxpTextCount
p271
(dp272
S'total_keywordsize'
p273
I4853
sg270
ccollections
Counter
p274
((dp275
S'writings'
p276
I1
sS'sonja'
p277
I1
sS'four'
p278
I1
sS'protest'
p279
I1
sS'clotted'
p280
I1
sS'trotman'
p281
I1
sS'aides'
p282
I1
sS'woody'
p283
I1
sS'whose'
p284
I1
sS'aug'
p285
I1
sS'marcos'
p286
I1
sS'swam'
p287
I1
sS'tremors'
p288
I1
sS'teaching'
p289
I1
sS'sorry'
p290
I1
sS'burnette'
p291
I1
sS'sinking'
p292
I1
sS'updated'
p293
I1
sS'rescue'
p294
I1
sS'downstream'
p295
I1
sS'communique'
p296
I1
sS'regional'
p297
I1
sS'toppling'
p298
I1
sS'plenary'
p299
I1
sS'reforms'
p300
I1
sS'affect'
p301
I1
sS'screaming'
p302
I1
sS'prize'
p303
I1
sS'facilities'
p304
I1
sS'wooden'
p305
I1
sS'companies'
p306
I1
sS'wednesday'
p307
I1
sS'000'
p308
I1
sS'fanciers'
p309
I1
sS'persisted'
p310
I1
sS'cholesterol'
p311
I1
sS'heading'
p312
I1
sS'guardsmen'
p313
I1
sS'winded'
p314
I1
sS'force'
p315
I1
sS'natarajah'
p316
I1
sS'japanese'
p317
I1
sS'elegant'
p318
I1
sS'second'
p319
I1
sS'attended'
p320
I1
sS'275'
p321
I1
sS'277'
p322
I1
sS'available'
p323
I1
sS'sailed'
p324
I1
sS'even'
p325
I1
sS'spouses'
p326
I1
sS'wreck'
p327
I1
sS'cooking'
p328
I1
sS'orchestra'
p329
I1
sS'asia'
p330
I1
sS'spokesman'
p331
I1
sS'milica'
p332
I1
sS'fossil'
p333
I1
sS'new'
p334
I1
sS'net'
p335
I1
sS'undisputed'
p336
I1
sS'ever'
p337
I1
sS'admiral'
p338
I1
sS'specialist'
p339
I1
sS'deemed'
p340
I1
sS'barometer'
p341
I1
sS'reporter'
p342
I1
sS'men'
p343
I1
sS'here'
p344
I1
sS'reported'
p345
I1
sS'china'
p346
I1
sS'brooks'
p347
I1
sS'102'
p348
I1
sS'100'
p349
I1
sS'101'
p350
I1
sS'tatum'
p351
I1
sS'105'
p352
I1
sS'dry'
p353
I1
sS'yugoslavians'
p354
I1
sS'k'
p355
I1
sS'recordings'
p356
I1
sS'reports'
p357
I1
sS'controversy'
p358
I1
sS'golds'
p359
I1
sS'bayh'
p360
I1
sS'sikkim'
p361
I1
sS'military'
p362
I1
sS'spotty'
p363
I1
sS'tackling'
p364
I1
sS'golden'
p365
I1
sS'besides'
p366
I1
sS'campaign'
p367
I1
sS'reagan'
p368
I1
sS'county'
p369
I1
sS'ninety'
p370
I1
sS'guests'
p371
I1
sS'soybean'
p372
I1
sS'unit'
p373
I1
sS'opponents'
p374
I1
sS'spoke'
p375
I1
sS'army'
p376
I1
sS'watering'
p377
I1
sS'cents'
p378
I1
sS'symphony'
p379
I1
sS'music'
p380
I1
sS'calm'
p381
I1
sS'strike'
p382
I1
sS'survive'
p383
I1
sS'until'
p384
I1
sS'supporters'
p385
I1
sS'schroeder'
p386
I1
sS'oscar'
p387
I1
sS'hurt'
p388
I1
sS'99'
p389
I1
sS'export'
p390
I1
sS'adult'
p391
I1
sS'tying'
p392
I1
sS'lord'
p393
I1
sS'90'
p394
I1
sS'ward'
p395
I1
sS'hold'
p396
I1
sS'kumar'
p397
I1
sS'locked'
p398
I1
sS'room'
p399
I1
sS'rights'
p400
I1
sS'famed'
p401
I1
sS'plunged'
p402
I1
sS'candlestick'
p403
I1
sS'waiter'
p404
I1
sS'temperatures'
p405
I1
sS'example'
p406
I1
sS'nitrates'
p407
I1
sS'give'
p408
I1
sS'climax'
p409
I1
sS'organized'
p410
I1
sS'foods'
p411
I1
sS'want'
p412
I1
sS'stanton'
p413
I1
sS'hog'
p414
I1
sS'autonomy'
p415
I1
sS'gusts'
p416
I1
sS'complaining'
p417
I1
sS'travel'
p418
I1
sS'drying'
p419
I1
sS'damage'
p420
I1
sS'how'
p421
I1
sS'hot'
p422
I1
sS'strom'
p423
I1
sS'symposium'
p424
I1
sS'faulty'
p425
I1
sS'minority'
p426
I1
sS'outlawed'
p427
I1
sS'president'
p428
I1
sS'types'
p429
I1
sS'inactivity'
p430
I1
sS'attempt'
p431
I1
sS'third'
p432
I1
sS'grant'
p433
I1
sS'revolt'
p434
I1
sS'headquarters'
p435
I1
sS'18th'
p436
I1
sS'waited'
p437
I1
sS'keeps'
p438
I1
sS'operate'
p439
I1
sS'athletes'
p440
I1
sS'exhorted'
p441
I1
sS'wind'
p442
I1
sS'operations'
p443
I1
sS'senators'
p444
I1
sS'foresaw'
p445
I1
sS'deck'
p446
I1
sS'owens'
p447
I1
sS'before'
p448
I1
sS'haylift'
p449
I1
sS'colliery'
p450
I1
sS'intelligentsia'
p451
I1
sS'crew'
p452
I1
sS'better'
p453
I1
sS'rescued'
p454
I1
sS'enlisted'
p455
I1
sS'weeks'
p456
I1
sS'surcharges'
p457
I1
sS'overcome'
p458
I1
sS'donors'
p459
I1
sS'combination'
p460
I1
sS'peoples'
p461
I1
sS'dequeen'
p462
I1
sS'effects'
p463
I1
sS'schools'
p464
I1
sS'township'
p465
I1
sS'silver'
p466
I1
sS'represents'
p467
I1
sS'lillian'
p468
I1
sS'arrested'
p469
I1
sS'crops'
p470
I1
sS'daughters'
p471
I1
sS'went'
p472
I1
sS'meal'
p473
I1
sS'bond'
p474
I1
sS'expectancy'
p475
I1
sS'financial'
p476
I1
sS'chios'
p477
I1
sS'series'
p478
I1
sS'thelma'
p479
I1
sS'currencies'
p480
I1
sS'trading'
p481
I1
sS'stealing'
p482
I1
sS'substantially'
p483
I1
sS'dawn'
p484
I1
sS'carolinas'
p485
I1
sS're'
p486
I1
sS'branch'
p487
I1
sS'ra'
p488
I1
sS'surprise'
p489
I1
sS'customarily'
p490
I1
sS'sellout'
p491
I1
sS'threatened'
p492
I1
sS'revenge'
p493
I1
sS'struggle'
p494
I1
sS'estimate'
p495
I1
sS'enormous'
p496
I1
sS'ate'
p497
I1
sS'logging'
p498
I1
sS'shelves'
p499
I1
sS'starts'
p500
I1
sS'shipped'
p501
I1
sS'musicians'
p502
I1
sS'isn'
p503
I1
sS'1970s'
p504
I1
sS'uses'
p505
I1
sS'clothes'
p506
I1
sS'economists'
p507
I1
sS'grade'
p508
I1
sS'wash'
p509
I1
sS'featured'
p510
I1
sS'floors'
p511
I1
sS'wasn'
p512
I1
sS'kuron'
p513
I1
sS'elms'
p514
I1
sS'pandy'
p515
I1
sS'bitten'
p516
I1
sS'renovated'
p517
I1
sS'service'
p518
I1
sS'influence'
p519
I1
sS'hawks'
p520
I1
sS'recruiting'
p521
I1
sS'needed'
p522
I1
sS'master'
p523
I1
sS'listed'
p524
I1
sS'hollywood'
p525
I1
sS'bitter'
p526
I1
sS'ranging'
p527
I1
sS'listen'
p528
I1
sS'stuffed'
p529
I1
sS'villages'
p530
I1
sS'washington'
p531
I1
sS'somewhat'
p532
I1
sS'boarding'
p533
I1
sS'upholstery'
p534
I1
sS'showed'
p535
I1
sS'princeton'
p536
I1
sS'coward'
p537
I1
sS'likely'
p538
I1
sS'nations'
p539
I1
sS'project'
p540
I1
sS'matter'
p541
I1
sS'sills'
p542
I1
sS'minn'
p543
I1
sS'boston'
p544
I1
sS'modern'
p545
I1
sS'mine'
p546
I1
sS'increaase'
p547
I1
sS'emphasizing'
p548
I1
sS'seen'
p549
I1
sS'seek'
p550
I1
sS'dozen'
p551
I1
sS'corazon'
p552
I1
sS'paramedics'
p553
I1
sS'responsible'
p554
I1
sS'bengal'
p555
I1
sS'chest'
p556
I1
sS'causing'
p557
I1
sS'doors'
p558
I1
sS'worsening'
p559
I1
sS'memo'
p560
I1
sS'irrigated'
p561
I1
sS'swiss'
p562
I1
sS'mouth'
p563
I1
sS'conceded'
p564
I1
sS'drought'
p565
I1
sS'don'
p566
I1
sS'medical'
p567
I1
sS'camp'
p568
I1
sS'm'
p569
I1
sS'dog'
p570
I1
sS'points'
p571
I1
sS'consumer'
p572
I1
sS'dow'
p573
I1
sS'came'
p574
I1
sS'saying'
p575
I1
sS'selected'
p576
I1
sS'bomb'
p577
I1
sS'hunger'
p578
I1
sS'bonnie'
p579
I1
sS'nominated'
p580
I1
sS'ending'
p581
I1
sS'padded'
p582
I1
sS'attempts'
p583
I1
sS'gauge'
p584
I1
sS'hungary'
p585
I1
sS'psara'
p586
I1
sS'nevada'
p587
I1
sS'judges'
p588
I1
sS'northeast'
p589
I1
sS'lights'
p590
I1
sS'weekends'
p591
I1
sS'rico'
p592
I1
sS'bush'
p593
I1
sS'touched'
p594
I1
sS'rich'
p595
I1
sS'rice'
p596
I1
sS'jailed'
p597
I1
sS'plate'
p598
I1
sS'colorful'
p599
I1
sS'conduct'
p600
I1
sS'stop'
p601
I1
sS'coast'
p602
I1
sS'12'
p603
I1
sS'dorris'
p604
I1
sS'earn'
p605
I1
sS'increasing'
p606
I1
sS'17'
p607
I1
sS'fields'
p608
I1
sS'bay'
p609
I1
sS'bad'
p610
I1
sS'seeks'
p611
I1
sS'18'
p612
I1
sS'ban'
p613
I1
sS'boarded'
p614
I1
sS'respond'
p615
I1
sS'mandatory'
p616
I1
sS'disaster'
p617
I1
sS'reference'
p618
I1
sS'fluffy'
p619
I1
sS'testing'
p620
I1
sS'unexpectedly'
p621
I1
sS'decided'
p622
I1
sS'result'
p623
I1
sS'fail'
p624
I1
sS'interruptions'
p625
I1
sS'best'
p626
I1
sS'02'
p627
I1
sS'oceanic'
p628
I1
sS'said'
p629
I1
sS'06'
p630
I1
sS'szczecin'
p631
I1
sS'peto'
p632
I1
sS'09'
p633
I1
sS'score'
p634
I1
sS'olympics'
p635
I1
sS'biratnagar'
p636
I1
sS'felons'
p637
I1
sS'parallels'
p638
I1
sS'debi'
p639
I1
sS'44th'
p640
I1
sS'physicist'
p641
I1
sS'drew'
p642
I1
sS'carbon'
p643
I1
sS'excavate'
p644
I1
sS'suggested'
p645
I1
sS'accident'
p646
I1
sS'veer'
p647
I1
sS'met'
p648
I1
sS'conch'
p649
I1
sS'country'
p650
I1
sS'himalayas'
p651
I1
sS'uncertainty'
p652
I1
sS'against'
p653
I1
sS'und'
p654
I1
sS'himalayan'
p655
I1
sS'ernst'
p656
I1
sS'asked'
p657
I1
sS'and'
p658
I1
sS'appeared'
p659
I1
sS'uttar'
p660
I1
sS'jamaicans'
p661
I1
sS'height'
p662
I1
sS'offerings'
p663
I1
sS'active'
p664
I1
sS'uttam'
p665
I1
sS'loaded'
p666
I1
sS'250'
p667
I1
sS'apprehended'
p668
I1
sS'sahel'
p669
I1
sS'billing'
p670
I1
sS'basis'
p671
I1
sS'union'
p672
I1
sS'three'
p673
I1
sS'tiny'
p674
I1
sS'commission'
p675
I1
sS'much'
p676
I1
sS'stadium'
p677
I1
sS'basic'
p678
I1
sS'yadaw'
p679
I1
sS'idol'
p680
I1
sS'life'
p681
I1
sS'eastern'
p682
I1
sS'hospitalized'
p683
I1
sS'sunshine'
p684
I1
sS'worker'
p685
I1
sS'irving'
p686
I1
sS'locations'
p687
I1
sS'dave'
p688
I1
sS'generals'
p689
I1
sS'worked'
p690
I1
sS'160'
p691
I1
sS'162'
p692
I1
sS'chill'
p693
I1
sS'prestigious'
p694
I1
sS'neal'
p695
I1
sS'calcium'
p696
I1
sS'near'
p697
I1
sS'suppose'
p698
I1
sS'balance'
p699
I1
sS'flooding'
p700
I1
sS'study'
p701
I1
sS'mesquite'
p702
I1
sS'seven'
p703
I1
sS'mexico'
p704
I1
sS'carlson'
p705
I1
sS'is'
p706
I1
sS'it'
p707
I1
sS'ii'
p708
I1
sS'player'
p709
I1
sS'roosevelt'
p710
I1
sS'granma'
p711
I1
sS'in'
p712
I1
sS'violin'
p713
I1
sS'shailendra'
p714
I1
sS'if'
p715
I1
sS'damaged'
p716
I1
sS'things'
p717
I1
sS'make'
p718
I1
sS'split'
p719
I1
sS'european'
p720
I1
sS'dennert'
p721
I1
sS'tops'
p722
I1
sS'marched'
p723
I1
sS'vibrated'
p724
I1
sS'thoughts'
p725
I1
sS'settled'
p726
I1
sS'practices'
p727
I1
sS'claims'
p728
I1
sS'800'
p729
I1
sS'left'
p730
I1
sS'rancorous'
p731
I1
sS'just'
p732
I1
sS'assigned'
p733
I1
sS'fighters'
p734
I1
sS'identify'
p735
I1
sS'human'
p736
I1
sS'yes'
p737
I1
sS'yet'
p738
I1
sS'impending'
p739
I1
sS'previous'
p740
I1
sS'buyers'
p741
I1
sS'hal'
p742
I1
sS'candidate'
p743
I1
sS'sciences'
p744
I1
sS'gennip'
p745
I1
sS'ease'
p746
I1
sS'munger'
p747
I1
sS'about'
p748
I1
sS'hay'
p749
I1
sS'n'
p750
I1
sS'critics'
p751
I1
sS'east'
p752
I1
sS'posed'
p753
I1
sS'possible'
p754
I1
sS'possibly'
p755
I1
sS'discreet'
p756
I1
sS'background'
p757
I1
sS'performance'
p758
I1
sS'unique'
p759
I1
sS'afire'
p760
I1
sS'brought'
p761
I1
sS'performing'
p762
I1
sS'steps'
p763
I1
sS'malnutrition'
p764
I1
sS'yerevan'
p765
I1
sS'ola'
p766
I1
sS'attorney'
p767
I1
sS'right'
p768
I1
sS'dean'
p769
I1
sS'jackets'
p770
I1
sS'crowd'
p771
I1
sS'people'
p772
I1
sS'crown'
p773
I1
sS'santiago'
p774
I1
sS'elderly'
p775
I1
sS'jupiter'
p776
I1
sS'insistence'
p777
I1
sS'amiable'
p778
I1
sS'manifest'
p779
I1
sS'chorus'
p780
I1
sS'for'
p781
I1
sS'bottom'
p782
I1
sS'aggravation'
p783
I1
sS'photographers'
p784
I1
sS'treadmill'
p785
I1
sS'completly'
p786
I1
sS'loudspeakers'
p787
I1
sS'shakes'
p788
I1
sS'bold'
p789
I1
sS'diltiazem'
p790
I1
sS'predicting'
p791
I1
sS'losing'
p792
I1
sS'yoko'
p793
I1
sS'dollars'
p794
I1
sS'citizens'
p795
I1
sS'o'
p796
I1
sS'magazine'
p797
I1
sS'afternoon'
p798
I1
sS'commit'
p799
I1
sS'lacked'
p800
I1
sS'slightly'
p801
I1
sS'raised'
p802
I1
sS'marshall'
p803
I1
sS'ghagara'
p804
I1
sS'son'
p805
I1
sS'down'
p806
I1
sS'lies'
p807
I1
sS'raises'
p808
I1
sS'reducing'
p809
I1
sS'frightened'
p810
I1
sS'murderers'
p811
I1
sS'communists'
p812
I1
sS'support'
p813
I1
sS'initial'
p814
I1
sS'chevalier'
p815
I1
sS'joseph'
p816
I1
sS'editor'
p817
I1
sS'call'
p818
I1
sS'thalberg'
p819
I1
sS'happy'
p820
I1
sS'form'
p821
I1
sS'offer'
p822
I1
sS'some'
p823
I1
sS'lawn'
p824
I1
sS'ford'
p825
I1
sS'failure'
p826
I1
sS'justify'
p827
I1
sS'225'
p828
I1
sS'safeguard'
p829
I1
sS'otter'
p830
I1
sS'understood'
p831
I1
sS'inside'
p832
I1
sS'milligrams'
p833
I1
sS'staged'
p834
I1
sS'tell'
p835
I1
sS'complications'
p836
I1
sS'daddy'
p837
I1
sS'150'
p838
I1
sS'proud'
p839
I1
sS'liberal'
p840
I1
sS'sticks'
p841
I1
sS'157'
p842
I1
sS'classic'
p843
I1
sS'steady'
p844
I1
sS'proven'
p845
I1
sS'sale'
p846
I1
sS'ship'
p847
I1
sS'dealer'
p848
I1
sS'negotiations'
p849
I1
sS'marking'
p850
I1
sS'protested'
p851
I1
sS'floor'
p852
I1
sS'skirted'
p853
I1
sS'generally'
p854
I1
sS'handed'
p855
I1
sS'flood'
p856
I1
sS'role'
p857
I1
sS'ameland'
p858
I1
sS'exporter'
p859
I1
sS'garland'
p860
I1
sS'faction'
p861
I1
sS'felt'
p862
I1
sS'diet'
p863
I1
sS'fell'
p864
I1
sS'authorities'
p865
I1
sS'weekend'
p866
I1
sS'died'
p867
I1
sS'billion'
p868
I1
sS'meteorologist'
p869
I1
sS'shootout'
p870
I1
sS'domingo'
p871
I1
sS'apology'
p872
I1
sS'sakya'
p873
I1
sS'teeth'
p874
I1
sS'banners'
p875
I1
sS'profits'
p876
I1
sS'managed'
p877
I1
sS'chain'
p878
I1
sS'skip'
p879
I1
sS'umbrage'
p880
I1
sS'manager'
p881
I1
sS'mill'
p882
I1
sS'milk'
p883
I1
sS'92'
p884
I1
sS'makaziwe'
p885
I1
sS'rousing'
p886
I1
sS'father'
p887
I1
sS'editors'
p888
I1
sS'praised'
p889
I1
sS'burlington'
p890
I1
sS'skirting'
p891
I1
sS'stabilizing'
p892
I1
sS'suffered'
p893
I1
sS'veterans'
p894
I1
sS'816'
p895
I1
sS'adviser'
p896
I1
sS'1990'
p897
I1
sS'tends'
p898
I1
sS'spate'
p899
I1
sS'choice'
p900
I1
sS'stays'
p901
I1
sS'word'
p902
I1
sS'minute'
p903
I1
sS'governments'
p904
I1
sS'dim'
p905
I1
sS'banished'
p906
I1
sS'did'
p907
I1
sS'apartheid'
p908
I1
sS'proposals'
p909
I1
sS'democrat'
p910
I1
sS'leave'
p911
I1
sS'depositors'
p912
I1
sS'team'
p913
I1
sS'speculation'
p914
I1
sS'prevent'
p915
I1
sS'olympic'
p916
I1
sS'findings'
p917
I1
sS'literature'
p918
I1
sS'bulldozed'
p919
I1
sS'eating'
p920
I1
sS'afghanistan'
p921
I1
sS'sunspots'
p922
I1
sS'landslides'
p923
I1
sS'current'
p924
I1
sS'lennon'
p925
I1
sS'international'
p926
I1
sS'filled'
p927
I1
sS'transportation'
p928
I1
sS'contiguous'
p929
I1
sS'funeral'
p930
I1
sS'french'
p931
I1
sS'corporation'
p932
I1
sS'zhavoronkov'
p933
I1
sS'yards'
p934
I1
sS'congestion'
p935
I1
sS'alone'
p936
I1
sS'along'
p937
I1
sS'refused'
p938
I1
sS'earthquake'
p939
I1
sS'benson'
p940
I1
sS'boy'
p941
I1
sS'canadian'
p942
I1
sS'brilliant'
p943
I1
sS'my'
p944
I1
sS'bruiser'
p945
I1
sS'commonly'
p946
I1
sS'bow'
p947
I1
sS'crumbled'
p948
I1
sS'suggestion'
p949
I1
sS'bob'
p950
I1
sS'shook'
p951
I1
sS'rediscover'
p952
I1
sS'carpets'
p953
I1
sS'treasure'
p954
I1
sS'useful'
p955
I1
sS'statewide'
p956
I1
sS'cheeseburger'
p957
I1
sS'prefer'
p958
I1
sS'ailing'
p959
I1
sS'everybody'
p960
I1
sS'crammed'
p961
I1
sS'wealth'
p962
I1
sS'working'
p963
I1
sS'tanglewood'
p964
I1
sS'visit'
p965
I1
sS'predictions'
p966
I1
sS'by'
p967
I1
sS'bazar'
p968
I1
sS'wondering'
p969
I1
sS'films'
p970
I1
sS'lessened'
p971
I1
sS'prosecutor'
p972
I1
sS'aspirin'
p973
I1
sS'cremate'
p974
I1
sS'freestyle'
p975
I1
sS'beholder'
p976
I1
sS'distribution'
p977
I1
sS'oregon'
p978
I1
sS'downtown'
p979
I1
sS'sierra'
p980
I1
sS'downing'
p981
I1
sS'scratches'
p982
I1
sS'archaeologists'
p983
I1
sS'effort'
p984
I1
sS'behalf'
p985
I1
sS'bushels'
p986
I1
sS'demolish'
p987
I1
sS'avoiding'
p988
I1
sS'quoting'
p989
I1
sS'believes'
p990
I1
sS'soup'
p991
I1
sS'believed'
p992
I1
sS'making'
p993
I1
sS'arrive'
p994
I1
sS'parishes'
p995
I1
sS'predict'
p996
I1
sS'agent'
p997
I1
sS'pointedly'
p998
I1
sS'groucho'
p999
I1
sS'battered'
p1000
I1
sS'unanticipated'
p1001
I1
sS'allowed'
p1002
I1
sS'237'
p1003
I1
sS'stole'
p1004
I1
sS'skated'
p1005
I1
sS'winter'
p1006
I1
sS'nonchalant'
p1007
I1
sS'write'
p1008
I1
sS'sunday'
p1009
I1
sS'hydrologist'
p1010
I1
sS'contrasts'
p1011
I1
sS'skater'
p1012
I1
sS'swore'
p1013
I1
sS'significant'
p1014
I1
sS'147'
p1015
I1
sS'custer'
p1016
I1
sS'aging'
p1017
I1
sS'strokes'
p1018
I1
sS'spot'
p1019
I1
sS'applications'
p1020
I1
sS'mac'
p1021
I1
sS'explored'
p1022
I1
sS'designed'
p1023
I1
sS'date'
p1024
I1
sS'such'
p1025
I1
sS'maj'
p1026
I1
sS'man'
p1027
I1
sS'stress'
p1028
I1
sS'natural'
p1029
I1
sS'neck'
p1030
I1
sS'maybe'
p1031
I1
sS'tchaikovsky'
p1032
I1
sS'st'
p1033
I1
sS'inhabitants'
p1034
I1
sS'so'
p1035
I1
sS'deposit'
p1036
I1
sS'african'
p1037
I1
sS'tall'
p1038
I1
sS'pulled'
p1039
I1
sS'nearly'
p1040
I1
sS'lsd'
p1041
I1
sS'shoes'
p1042
I1
sS'pointed'
p1043
I1
sS'years'
p1044
I1
sS'course'
p1045
I1
sS'shake'
p1046
I1
sS'caucasus'
p1047
I1
sS'constituted'
p1048
I1
sS'police'
p1049
I1
sS'thank'
p1050
I1
sS'paraded'
p1051
I1
sS'jim'
p1052
I1
sS'louisville'
p1053
I1
sS'policy'
p1054
I1
sS'decreased'
p1055
I1
sS'main'
p1056
I1
sS'parades'
p1057
I1
sS'texas'
p1058
I1
sS'modestly'
p1059
I1
sS'recipients'
p1060
I1
sS'views'
p1061
I1
sS'rattled'
p1062
I1
sS'killer'
p1063
I1
sS'sooner'
p1064
I1
sS'nation'
p1065
I1
sS'tucker'
p1066
I1
sS'boats'
p1067
I1
sS'touching'
p1068
I1
sS'arriving'
p1069
I1
sS'biographer'
p1070
I1
sS'killed'
p1071
I1
sS'developments'
p1072
I1
sS'fla'
p1073
I1
sS'shouted'
p1074
I1
sS'didn'
p1075
I1
sS'establishing'
p1076
I1
sS'rock'
p1077
I1
sS'820'
p1078
I1
sS'square'
p1079
I1
sS'manifesto'
p1080
I1
sS'entering'
p1081
I1
sS'girl'
p1082
I1
sS'summary'
p1083
I1
sS'canada'
p1084
I1
sS'living'
p1085
I1
sS'jackson'
p1086
I1
sS'greeks'
p1087
I1
sS'abide'
p1088
I1
sS'investigation'
p1089
I1
sS'emerged'
p1090
I1
sS'dutch'
p1091
I1
sS'squares'
p1092
I1
sS'assurance'
p1093
I1
sS'after'
p1094
I1
sS'mercantile'
p1095
I1
sS'million'
p1096
I1
sS'seventh'
p1097
I1
sS'pumping'
p1098
I1
sS'possibility'
p1099
I1
sS'quite'
p1100
I1
sS'rashtriya'
p1101
I1
sS'statistics'
p1102
I1
sS'california'
p1103
I1
sS'plea'
p1104
I1
sS'ore'
p1105
I1
sS'keith'
p1106
I1
sS'advance'
p1107
I1
sS'training'
p1108
I1
sS'ministry'
p1109
I1
sS'standby'
p1110
I1
sS'collapsing'
p1111
I1
sS'thing'
p1112
I1
sS'aboard'
p1113
I1
sS'thurmond'
p1114
I1
sS'plasminogen'
p1115
I1
sS'think'
p1116
I1
sS'frequent'
p1117
I1
sS'first'
p1118
I1
sS'saving'
p1119
I1
sS'ono'
p1120
I1
sS'fleeing'
p1121
I1
sS'spoken'
p1122
I1
sS'discharges'
p1123
I1
sS'one'
p1124
I1
sS'conscientiously'
p1125
I1
sS'opec'
p1126
I1
sS'shipyard'
p1127
I1
sS'americans'
p1128
I1
sS'long'
p1129
I1
sS'habitation'
p1130
I1
sS'carry'
p1131
I1
sS'sounds'
p1132
I1
sS'open'
p1133
I1
sS'discharged'
p1134
I1
sS'city'
p1135
I1
sS'little'
p1136
I1
sS'keoti'
p1137
I1
sS'anyone'
p1138
I1
sS'2'
p1139
I1
sS'moisture'
p1140
I1
sS'cite'
p1141
I1
sS'williams'
p1142
I1
sS'allegedly'
p1143
I1
sS'moscow'
p1144
I1
sS'continuous'
p1145
I1
sS'broadcast'
p1146
I1
sS'eyed'
p1147
I1
sS'royal'
p1148
I1
sS'11'
p1149
I1
sS'10'
p1150
I1
sS'13'
p1151
I1
sS'cracks'
p1152
I1
sS'15'
p1153
I1
sS'14'
p1154
I1
sS'sailing'
p1155
I1
sS'16'
p1156
I1
sS'19'
p1157
I1
sS'favors'
p1158
I1
sS'midtown'
p1159
I1
sS'delay'
p1160
I1
sS'venture'
p1161
I1
sS'were'
p1162
I1
sS'college'
p1163
I1
sS'prospect'
p1164
I1
sS'gathering'
p1165
I1
sS'capsize'
p1166
I1
sS'san'
p1167
I1
sS'nicer'
p1168
I1
sS'extemporaneous'
p1169
I1
sS'topics'
p1170
I1
sS'turned'
p1171
I1
sS'marijuana'
p1172
I1
sS'winding'
p1173
I1
sS'say'
p1174
I1
sS'comedian'
p1175
I1
sS'buried'
p1176
I1
sS'allen'
p1177
I1
sS'saw'
p1178
I1
sS'warsaw'
p1179
I1
sS'speakers'
p1180
I1
sS'thapa'
p1181
I1
sS'efficient'
p1182
I1
sS'editing'
p1183
I1
sS'shocked'
p1184
I1
sS'note'
p1185
I1
sS'potential'
p1186
I1
sS'take'
p1187
I1
sS'interior'
p1188
I1
sS'destroy'
p1189
I1
sS'mayer'
p1190
I1
sS'clots'
p1191
I1
sS'channel'
p1192
I1
sS'200'
p1193
I1
sS'handing'
p1194
I1
sS'pain'
p1195
I1
sS'trace'
p1196
I1
sS'normal'
p1197
I1
sS'track'
p1198
I1
sS'decreasing'
p1199
I1
sS'beta'
p1200
I1
sS'sheets'
p1201
I1
sS'tract'
p1202
I1
sS'remarks'
p1203
I1
sS'tracy'
p1204
I1
sS'coveted'
p1205
I1
sS'hardships'
p1206
I1
sS'cuban'
p1207
I1
sS'democratic'
p1208
I1
sS'especially'
p1209
I1
sS'saddledome'
p1210
I1
sS'average'
p1211
I1
sS'farmers'
p1212
I1
sS'drive'
p1213
I1
sS'order'
p1214
I1
sS'federal'
p1215
I1
sS'dhaubanjar'
p1216
I1
sS'salt'
p1217
I1
sS'review'
p1218
I1
sS'forecasters'
p1219
I1
sS'laws'
p1220
I1
sS'shop'
p1221
I1
sS'madison'
p1222
I1
sS'medalist'
p1223
I1
sS'shot'
p1224
I1
sS'surplus'
p1225
I1
sS'show'
p1226
I1
sS'lotus'
p1227
I1
sS'moderator'
p1228
I1
sS'legalization'
p1229
I1
sS'bright'
p1230
I1
sS'pump'
p1231
I1
sS'corner'
p1232
I1
sS'soviets'
p1233
I1
sS'feltsman'
p1234
I1
sS'dick'
p1235
I1
sS'storms'
p1236
I1
sS'enough'
p1237
I1
sS'junior'
p1238
I1
sS'liberation'
p1239
I1
sS'going'
p1240
I1
sS'black'
p1241
I1
sS'hockey'
p1242
I1
sS'enthusiasm'
p1243
I1
sS'caroline'
p1244
I1
sS'congressional'
p1245
I1
sS'dispute'
p1246
I1
sS'get'
p1247
I1
sS'assistant'
p1248
I1
sS'between'
p1249
I1
sS'balconies'
p1250
I1
sS'satisfied'
p1251
I1
sS'greta'
p1252
I1
sS'achievers'
p1253
I1
sS'outlet'
p1254
I1
sS'yvonne'
p1255
I1
sS'gen'
p1256
I1
sS'prime'
p1257
I1
sS'krishna'
p1258
I1
sS'yield'
p1259
I1
sS'morning'
p1260
I1
sS'soloist'
p1261
I1
sS'miles'
p1262
I1
sS'roger'
p1263
I1
sS'bombs'
p1264
I1
sS'where'
p1265
I1
sS'vision'
p1266
I1
sS'declared'
p1267
I1
sS'seas'
p1268
I1
sS'dived'
p1269
I1
sS'seat'
p1270
I1
sS'relative'
p1271
I1
sS'sean'
p1272
I1
sS'eliminating'
p1273
I1
sS'seal'
p1274
I1
sS'stigma'
p1275
I1
sS'surgery'
p1276
I1
sS'diver'
p1277
I1
sS'wonder'
p1278
I1
sS'mecca'
p1279
I1
sS'registering'
p1280
I1
sS'jumped'
p1281
I1
sS'ruptures'
p1282
I1
sS'representatives'
p1283
I1
sS'forecast'
p1284
I1
sS'limbed'
p1285
I1
sS'behind'
p1286
I1
sS'bureau'
p1287
I1
sS'reading'
p1288
I1
sS'snorted'
p1289
I1
sS'across'
p1290
I1
sS'jobs'
p1291
I1
sS'august'
p1292
I1
sS'killing'
p1293
I1
sS'spare'
p1294
I1
sS'shahi'
p1295
I1
sS'jastrzebie'
p1296
I1
sS'cedric'
p1297
I1
sS'koop'
p1298
I1
sS'undermine'
p1299
I1
sS'785'
p1300
I1
sS'780'
p1301
I1
sS'many'
p1302
I1
sS'according'
p1303
I1
sS's'
p1304
I1
sS'disappointment'
p1305
I1
sS'unflattering'
p1306
I1
sS'awards'
p1307
I1
sS'torrential'
p1308
I1
sS'yearly'
p1309
I1
sS'among'
p1310
I1
sS'effective'
p1311
I1
sS'mccain'
p1312
I1
sS'maintained'
p1313
I1
sS'anti'
p1314
I1
sS'blackened'
p1315
I1
sS'unassuming'
p1316
I1
sS'associated'
p1317
I1
sS'prasad'
p1318
I1
sS'considers'
p1319
I1
sS'seeding'
p1320
I1
sS'survivors'
p1321
I1
sS'unusual'
p1322
I1
sS'capable'
p1323
I1
sS'west'
p1324
I1
sS'mark'
p1325
I1
sS'combined'
p1326
I1
sS'acre'
p1327
I1
sS'marx'
p1328
I1
sS'mary'
p1329
I1
sS'wants'
p1330
I1
sS'lanes'
p1331
I1
sS'unsafe'
p1332
I1
sS'offered'
p1333
I1
sS'formed'
p1334
I1
sS'readings'
p1335
I1
sS'gish'
p1336
I1
sS'yugoslav'
p1337
I1
sS'former'
p1338
I1
sS'those'
p1339
I1
sS'sound'
p1340
I1
sS'mangan'
p1341
I1
sS'polls'
p1342
I1
sS'warning'
p1343
I1
sS'ongoing'
p1344
I1
sS'policies'
p1345
I1
sS'udayapur'
p1346
I1
sS'newspaper'
p1347
I1
sS'situation'
p1348
I1
sS'rajiv'
p1349
I1
sS'wroclaw'
p1350
I1
sS'nautical'
p1351
I1
sS'rammed'
p1352
I1
sS'speedway'
p1353
I1
sS'sleeping'
p1354
I1
sS'middle'
p1355
I1
sS'1895'
p1356
I1
sS'iowa'
p1357
I1
sS'demolition'
p1358
I1
sS'tourist'
p1359
I1
sS'pap'
p1360
I1
sS'bags'
p1361
I1
sS'different'
p1362
I1
sS'pat'
p1363
I1
sS'doctor'
p1364
I1
sS'pay'
p1365
I1
sS'preparatory'
p1366
I1
sS'tour'
p1367
I1
sS'same'
p1368
I1
sS'compiling'
p1369
I1
sS'speech'
p1370
I1
sS'locusts'
p1371
I1
sS'exhaust'
p1372
I1
sS'rodenhuis'
p1373
I1
sS'deluged'
p1374
I1
sS'faculty'
p1375
I1
sS'boosted'
p1376
I1
sS'assist'
p1377
I1
sS'munch'
p1378
I1
sS'cheers'
p1379
I1
sS'running'
p1380
I1
sS'intended'
p1381
I1
sS'pradesh'
p1382
I1
sS'supports'
p1383
I1
sS'largely'
p1384
I1
sS'rains'
p1385
I1
sS'costs'
p1386
I1
sS'uncomplicated'
p1387
I1
sS'overcrowding'
p1388
I1
sS'summer'
p1389
I1
sS'outdoor'
p1390
I1
sS'being'
p1391
I1
sS'money'
p1392
I1
sS'rest'
p1393
I1
sS'bergman'
p1394
I1
sS'omissions'
p1395
I1
sS'tenflod'
p1396
I1
sS'weekly'
p1397
I1
sS'temblor'
p1398
I1
sS'mcdonald'
p1399
I1
sS'geological'
p1400
I1
sS'eisenhower'
p1401
I1
sS'color'
p1402
I1
sS'4'
p1403
I1
sS'extensive'
p1404
I1
sS'heavier'
p1405
I1
sS'careers'
p1406
I1
sS'starving'
p1407
I1
sS'aspects'
p1408
I1
sS'around'
p1409
I1
sS'anglers'
p1410
I1
sS'docks'
p1411
I1
sS'fizzling'
p1412
I1
sS'traffic'
p1413
I1
sS'dispatch'
p1414
I1
sS'secrecy'
p1415
I1
sS'world'
p1416
I1
sS'railroad'
p1417
I1
sS'blankets'
p1418
I1
sS'forecaster'
p1419
I1
sS'sensational'
p1420
I1
sS'twin'
p1421
I1
sS'lightning'
p1422
I1
sS'audience'
p1423
I1
sS'either'
p1424
I1
sS'clay'
p1425
I1
sS'beverly'
p1426
I1
sS'served'
p1427
I1
sS'inter'
p1428
I1
sS'kennel'
p1429
I1
sS'auditorium'
p1430
I1
sS'ferried'
p1431
I1
sS'superintendent'
p1432
I1
sS'dole'
p1433
I1
sS'cosentino'
p1434
I1
sS'moreover'
p1435
I1
sS'diving'
p1436
I1
sS'racial'
p1437
I1
sS'bhootahi'
p1438
I1
sS'thinks'
p1439
I1
sS'scandals'
p1440
I1
sS'drenched'
p1441
I1
sS'noon'
p1442
I1
sS'pioneer'
p1443
I1
sS'critical'
p1444
I1
sS'boat'
p1445
I1
sS'restoring'
p1446
I1
sS'measuring'
p1447
I1
sS'scientific'
p1448
I1
sS'power'
p1449
I1
sS'seconds'
p1450
I1
sS'manufactured'
p1451
I1
sS'arts'
p1452
I1
sS'notably'
p1453
I1
sS'broken'
p1454
I1
sS'leadership'
p1455
I1
sS'seismologoical'
p1456
I1
sS'luxurious'
p1457
I1
sS'william'
p1458
I1
sS'conducting'
p1459
I1
sS'package'
p1460
I1
sS'island'
p1461
I1
sS'industry'
p1462
I1
sS'violence'
p1463
I1
sS'generated'
p1464
I1
sS'side'
p1465
I1
sS'oscarcast'
p1466
I1
sS'neighbor'
p1467
I1
sS'barry'
p1468
I1
sS'mean'
p1469
I1
sS'road'
p1470
I1
sS'burning'
p1471
I1
sS'mungar'
p1472
I1
sS'references'
p1473
I1
sS'homeless'
p1474
I1
sS'parties'
p1475
I1
sS'pastures'
p1476
I1
sS'her'
p1477
I1
sS'shells'
p1478
I1
sS'downed'
p1479
I1
sS'philadelphia'
p1480
I1
sS'lounging'
p1481
I1
sS'patna'
p1482
I1
sS'witt'
p1483
I1
sS'saris'
p1484
I1
sS'strikes'
p1485
I1
sS'hurricanes'
p1486
I1
sS'outweighed'
p1487
I1
sS'aide'
p1488
I1
sS'with'
p1489
I1
sS'pull'
p1490
I1
sS'rush'
p1491
I1
sS'october'
p1492
I1
sS'stokley'
p1493
I1
sS'hispaniola'
p1494
I1
sS'500'
p1495
I1
sS'trips'
p1496
I1
sS'aa'
p1497
I1
sS'gone'
p1498
I1
sS'pinpointed'
p1499
I1
sS'certain'
p1500
I1
sS'am'
p1501
I1
sS'deep'
p1502
I1
sS'general'
p1503
I1
sS'ap'
p1504
I1
sS'as'
p1505
I1
sS'at'
p1506
I1
sS'planets'
p1507
I1
sS'importing'
p1508
I1
sS'lifetime'
p1509
I1
sS'heath'
p1510
I1
sS'film'
p1511
I1
sS'again'
p1512
I1
sS'assessing'
p1513
I1
sS'minstry'
p1514
I1
sS'personnel'
p1515
I1
sS'drivers'
p1516
I1
sS'narcotics'
p1517
I1
sS'field'
p1518
I1
sS'thousand'
p1519
I1
sS'brando'
p1520
I1
sS'congress'
p1521
I1
sS'students'
p1522
I1
sS'accosted'
p1523
I1
sS'important'
p1524
I1
sS'tiwary'
p1525
I1
sS'havana'
p1526
I1
sS'remote'
p1527
I1
sS'assets'
p1528
I1
sS'snagged'
p1529
I1
sS'u'
p1530
I1
sS'nelson'
p1531
I1
sS'original'
p1532
I1
sS'founder'
p1533
I1
sS'caused'
p1534
I1
sS'forbidden'
p1535
I1
sS'dollar'
p1536
I1
sS'sunk'
p1537
I1
sS'debris'
p1538
I1
sS'katihar'
p1539
I1
sS'talks'
p1540
I1
sS'children'
p1541
I1
sS'causes'
p1542
I1
sS'to'
p1543
I1
sS'tail'
p1544
I1
sS'midwest'
p1545
I1
sS'mandela'
p1546
I1
sS'parcel'
p1547
I1
sS'returning'
p1548
I1
sS'teodoro'
p1549
I1
sS'borynia'
p1550
I1
sS'fall'
p1551
I1
sS'condition'
p1552
I1
sS'washing'
p1553
I1
sS'cable'
p1554
I1
sS'accompanying'
p1555
I1
sS'joined'
p1556
I1
sS'large'
p1557
I1
sS'sand'
p1558
I1
sS'small'
p1559
I1
sS'sank'
p1560
I1
sS'titled'
p1561
I1
sS'196'
p1562
I1
sS'healed'
p1563
I1
sS'past'
p1564
I1
sS'go'
p1565
I1
sS'pass'
p1566
I1
sS'further'
p1567
I1
sS'stood'
p1568
I1
sS'richard'
p1569
I1
sS'disruptions'
p1570
I1
sS'section'
p1571
I1
sS'resume'
p1572
I1
sS'scientists'
p1573
I1
sS'public'
p1574
I1
sS'contrast'
p1575
I1
sS'movement'
p1576
I1
sS'hotbed'
p1577
I1
sS'undeterminable'
p1578
I1
sS'hasn'
p1579
I1
sS'full'
p1580
I1
sS'leaping'
p1581
I1
sS'hours'
p1582
I1
sS'vacations'
p1583
I1
sS'operating'
p1584
I1
sS'investigating'
p1585
I1
sS'legend'
p1586
I1
sS'publisher'
p1587
I1
sS'search'
p1588
I1
sS'tillson'
p1589
I1
sS'stretching'
p1590
I1
sS'fergus'
p1591
I1
sS'experience'
p1592
I1
sS'prior'
p1593
I1
sS'airport'
p1594
I1
sS'social'
p1595
I1
sS'action'
p1596
I1
sS'skepticism'
p1597
I1
sS'240'
p1598
I1
sS'followed'
p1599
I1
sS'africa'
p1600
I1
sS'vim'
p1601
I1
sS'indoors'
p1602
I1
sS'legislator'
p1603
I1
sS'languages'
p1604
I1
sS'eye'
p1605
I1
sS'britannia'
p1606
I1
sS'wiped'
p1607
I1
sS'destination'
p1608
I1
sS'two'
p1609
I1
sS'comparing'
p1610
I1
sS'wavering'
p1611
I1
sS'6'
p1612
I1
sS'more'
p1613
I1
sS'fellow'
p1614
I1
sS'staggering'
p1615
I1
sS'company'
p1616
I1
sS'leonard'
p1617
I1
sS'tested'
p1618
I1
sS'dissident'
p1619
I1
sS'particular'
p1620
I1
sS'objections'
p1621
I1
sS'town'
p1622
I1
sS'none'
p1623
I1
sS'vladimir'
p1624
I1
sS'specializes'
p1625
I1
sS'installing'
p1626
I1
sS'shrestha'
p1627
I1
sS'friendly'
p1628
I1
sS'remain'
p1629
I1
sS'indicating'
p1630
I1
sS'pioneered'
p1631
I1
sS'male'
p1632
I1
sS'seismological'
p1633
I1
sS'stubborn'
p1634
I1
sS'hamburger'
p1635
I1
sS'share'
p1636
I1
sS'accept'
p1637
I1
sS'states'
p1638
I1
sS'numbers'
p1639
I1
sS'sense'
p1640
I1
sS'sharp'
p1641
I1
sS'robinson'
p1642
I1
sS'biography'
p1643
I1
sS'charged'
p1644
I1
sS'information'
p1645
I1
sS'needs'
p1646
I1
sS'imminent'
p1647
I1
sS'rye'
p1648
I1
sS'csx'
p1649
I1
sS'curfman'
p1650
I1
sS'stir'
p1651
I1
sS'plant'
p1652
I1
sS'bacall'
p1653
I1
sS'countryside'
p1654
I1
sS'blacken'
p1655
I1
sS'treatments'
p1656
I1
sS'france'
p1657
I1
sS'plane'
p1658
I1
sS'blood'
p1659
I1
sS'countering'
p1660
I1
sS'waves'
p1661
I1
sS'acreage'
p1662
I1
sS'gdansk'
p1663
I1
sS'response'
p1664
I1
sS'organization'
p1665
I1
sS'leroy'
p1666
I1
sS'hauling'
p1667
I1
sS'coal'
p1668
I1
sS'broadcasting'
p1669
I1
sS'replied'
p1670
I1
sS'serenade'
p1671
I1
sS'mexican'
p1672
I1
sS'azerbaijan'
p1673
I1
sS'hecht'
p1674
I1
sS'appeals'
p1675
I1
sS'through'
p1676
I1
sS'signs'
p1677
I1
sS'bulldozers'
p1678
I1
sS'rana'
p1679
I1
sS'497'
p1680
I1
sS'its'
p1681
I1
sS'woolf'
p1682
I1
sS'24'
p1683
I1
sS'25'
p1684
I1
sS'26'
p1685
I1
sS'arteries'
p1686
I1
sS'20'
p1687
I1
sS'21'
p1688
I1
sS'22'
p1689
I1
sS'gerald'
p1690
I1
sS'gerrish'
p1691
I1
sS'28'
p1692
I1
sS'29'
p1693
I1
sS'late'
p1694
I1
sS'laces'
p1695
I1
sS'coconuts'
p1696
I1
sS'household'
p1697
I1
sS'colleague'
p1698
I1
sS'good'
p1699
I1
sS'seeking'
p1700
I1
sS'motley'
p1701
I1
sS'oxford'
p1702
I1
sS'association'
p1703
I1
sS'always'
p1704
I1
sS'stiff'
p1705
I1
sS'habits'
p1706
I1
sS'monsoon'
p1707
I1
sS'found'
p1708
I1
sS'ports'
p1709
I1
sS'status'
p1710
I1
sS'harm'
p1711
I1
sS'everyone'
p1712
I1
sS'england'
p1713
I1
sS'house'
p1714
I1
sS'energy'
p1715
I1
sS'quayles'
p1716
I1
sS'reduce'
p1717
I1
sS'idea'
p1718
I1
sS'engaging'
p1719
I1
sS'oil'
p1720
I1
sS'countrymen'
p1721
I1
sS'endearment'
p1722
I1
sS'operation'
p1723
I1
sS'insurance'
p1724
I1
sS'really'
p1725
I1
sS'worshipers'
p1726
I1
sS'missed'
p1727
I1
sS'blacks'
p1728
I1
sS'projected'
p1729
I1
sS'research'
p1730
I1
sS'acting'
p1731
I1
sS'print'
p1732
I1
sS'bihar'
p1733
I1
sS'highway'
p1734
I1
sS'shaheen'
p1735
I1
sS'ceremonies'
p1736
I1
sS'sparked'
p1737
I1
sS'mikhail'
p1738
I1
sS'extraordinary'
p1739
I1
sS'abnormally'
p1740
I1
sS'members'
p1741
I1
sS'goldwyn'
p1742
I1
sS'beginning'
p1743
I1
sS'producers'
p1744
I1
sS'pairs'
p1745
I1
sS'benefits'
p1746
I1
sS'debby'
p1747
I1
sS'finland'
p1748
I1
sS'holguin'
p1749
I1
sS'trickle'
p1750
I1
sS'copper'
p1751
I1
sS'major'
p1752
I1
sS'painist'
p1753
I1
sS'precautionary'
p1754
I1
sS'wilder'
p1755
I1
sS'number'
p1756
I1
sS'feeder'
p1757
I1
sS'seimaz'
p1758
I1
sS'utilized'
p1759
I1
sS'done'
p1760
I1
sS'anonymity'
p1761
I1
sS'wages'
p1762
I1
sS'burigandak'
p1763
I1
sS'guess'
p1764
I1
sS'heads'
p1765
I1
sS'guest'
p1766
I1
sS'jet'
p1767
I1
sS'mankiewicz'
p1768
I1
sS'jetty'
p1769
I1
sS'least'
p1770
I1
sS'leash'
p1771
I1
sS'erupted'
p1772
I1
sS'seeker'
p1773
I1
sS'immediate'
p1774
I1
sS'procession'
p1775
I1
sS'draped'
p1776
I1
sS'part'
p1777
I1
sS'demonstrations'
p1778
I1
sS'doctors'
p1779
I1
sS'believe'
p1780
I1
sS'gilbert'
p1781
I1
sS'868'
p1782
I1
sS'observatory'
p1783
I1
sS'mortality'
p1784
I1
sS'damages'
p1785
I1
sS'vocal'
p1786
I1
sS'charges'
p1787
I1
sS'determined'
p1788
I1
sS'supposed'
p1789
I1
sS'fishermen'
p1790
I1
sS'treated'
p1791
I1
sS'declare'
p1792
I1
sS'nominee'
p1793
I1
sS'urban'
p1794
I1
sS'philippine'
p1795
I1
sS'wyler'
p1796
I1
sS'showers'
p1797
I1
sS'collapse'
p1798
I1
sS'sell'
p1799
I1
sS'mountain'
p1800
I1
sS'refute'
p1801
I1
sS'gorbachev'
p1802
I1
sS'reliance'
p1803
I1
sS'onset'
p1804
I1
sS'also'
p1805
I1
sS'internal'
p1806
I1
sS'province'
p1807
I1
sS'play'
p1808
I1
sS'singles'
p1809
I1
sS'serve'
p1810
I1
sS'depths'
p1811
I1
sS'most'
p1812
I1
sS'rejected'
p1813
I1
sS'moss'
p1814
I1
sS'services'
p1815
I1
sS'extremely'
p1816
I1
sS'comden'
p1817
I1
sS'galway'
p1818
I1
sS'tpa'
p1819
I1
sS'sometimes'
p1820
I1
sS'barred'
p1821
I1
sS'mammoth'
p1822
I1
sS'bodies'
p1823
I1
sS'barrel'
p1824
I1
sS'protege'
p1825
I1
sS'dragged'
p1826
I1
sS'joining'
p1827
I1
sS'thomas'
p1828
I1
sS'golf'
p1829
I1
sS'gold'
p1830
I1
sS'scattered'
p1831
I1
sS'midwestern'
p1832
I1
sS'defended'
p1833
I1
sS'freight'
p1834
I1
sS'carefully'
p1835
I1
sS'fine'
p1836
I1
sS'find'
p1837
I1
sS'occupation'
p1838
I1
sS'impact'
p1839
I1
sS'laurence'
p1840
I1
sS'writes'
p1841
I1
sS'writer'
p1842
I1
sS'distributed'
p1843
I1
sS'failed'
p1844
I1
sS'wayne'
p1845
I1
sS'factor'
p1846
I1
sS'8'
p1847
I1
sS'bernstein'
p1848
I1
sS'giants'
p1849
I1
sS'therefore'
p1850
I1
sS'banned'
p1851
I1
sS'express'
p1852
I1
sS'courage'
p1853
I1
sS'sweltered'
p1854
I1
sS'actress'
p1855
I1
sS'closely'
p1856
I1
sS'annexation'
p1857
I1
sS'mauceri'
p1858
I1
sS'banner'
p1859
I1
sS'emden'
p1860
I1
sS'resolve'
p1861
I1
sS'doubled'
p1862
I1
sS'beller'
p1863
I1
sS'banking'
p1864
I1
sS'common'
p1865
I1
sS'kill'
p1866
I1
sS'river'
p1867
I1
sS'approaching'
p1868
I1
sS'set'
p1869
I1
sS'excavation'
p1870
I1
sS'carrying'
p1871
I1
sS'310'
p1872
I1
sS'lion'
p1873
I1
sS'individual'
p1874
I1
sS'sea'
p1875
I1
sS'sen'
p1876
I1
sS'aberdeen'
p1877
I1
sS'feared'
p1878
I1
sS'preparation'
p1879
I1
sS'expert'
p1880
I1
sS'seconded'
p1881
I1
sS'movie'
p1882
I1
sS'exchange'
p1883
I1
sS'please'
p1884
I1
sS'pickup'
p1885
I1
sS'smallest'
p1886
I1
sS'europe'
p1887
I1
sS'tristan'
p1888
I1
sS'sparsely'
p1889
I1
sS'commercial'
p1890
I1
sS'pathak'
p1891
I1
sS'incident'
p1892
I1
sS'hooted'
p1893
I1
sS'guantanamo'
p1894
I1
sS'marilyn'
p1895
I1
sS'legislature'
p1896
I1
sS'prospects'
p1897
I1
sS'improved'
p1898
I1
sS'restaurant'
p1899
I1
sS'carelessness'
p1900
I1
sS'annual'
p1901
I1
sS'dharan'
p1902
I1
sS'minus'
p1903
I1
sS'lash'
p1904
I1
sS'whole'
p1905
I1
sS'supply'
p1906
I1
sS'simple'
p1907
I1
sS'loan'
p1908
I1
sS'northeastern'
p1909
I1
sS'allegiance'
p1910
I1
sS'tennessee'
p1911
I1
sS'agents'
p1912
I1
sS'church'
p1913
I1
sS'openness'
p1914
I1
sS'ravaged'
p1915
I1
sS'suppressing'
p1916
I1
sS'expensive'
p1917
I1
sS'headaches'
p1918
I1
sS'raise'
p1919
I1
sS'acceptance'
p1920
I1
sS'hitting'
p1921
I1
sS'rivals'
p1922
I1
sS'secret'
p1923
I1
sS'dropping'
p1924
I1
sS'whitcomb'
p1925
I1
sS'meeting'
p1926
I1
sS'rosy'
p1927
I1
sS'resting'
p1928
I1
sS'raced'
p1929
I1
sS'champion'
p1930
I1
sS'monsoons'
p1931
I1
sS'fire'
p1932
I1
sS'honorary'
p1933
I1
sS'great'
p1934
I1
sS'fund'
p1935
I1
sS'understand'
p1936
I1
sS'prices'
p1937
I1
sS'towns'
p1938
I1
sS'hitchcock'
p1939
I1
sS'metro'
p1940
I1
sS'grains'
p1941
I1
sS'palovich'
p1942
I1
sS'belly'
p1943
I1
sS'straight'
p1944
I1
sS'bill'
p1945
I1
sS'budget'
p1946
I1
sS'receive'
p1947
I1
sS'replaced'
p1948
I1
sS'skies'
p1949
I1
sS'32'
p1950
I1
sS'scheduled'
p1951
I1
sS'pound'
p1952
I1
sS'century'
p1953
I1
sS'backing'
p1954
I1
sS'von'
p1955
I1
sS'encountered'
p1956
I1
sS'sardi'
p1957
I1
sS'creators'
p1958
I1
sS'triple'
p1959
I1
sS'chase'
p1960
I1
sS'raiders'
p1961
I1
sS'shorter'
p1962
I1
sS'rules'
p1963
I1
sS'complaints'
p1964
I1
sS'virtually'
p1965
I1
sS'renounces'
p1966
I1
sS'resulting'
p1967
I1
sS'development'
p1968
I1
sS'dga'
p1969
I1
sS'affairs'
p1970
I1
sS'flooded'
p1971
I1
sS'olivier'
p1972
I1
sS'alert'
p1973
I1
sS'levels'
p1974
I1
sS'purpose'
p1975
I1
sS'louis'
p1976
I1
sS'residents'
p1977
I1
sS'recent'
p1978
I1
sS'recognized'
p1979
I1
sS'task'
p1980
I1
sS'spent'
p1981
I1
sS'picks'
p1982
I1
sS'morrow'
p1983
I1
sS'person'
p1984
I1
sS'landmark'
p1985
I1
sS'entry'
p1986
I1
sS'tass'
p1987
I1
sS'spend'
p1988
I1
sS'telegram'
p1989
I1
sS'salve'
p1990
I1
sS'arrests'
p1991
I1
sS'shape'
p1992
I1
sS'plagued'
p1993
I1
sS'alternative'
p1994
I1
sS'injuries'
p1995
I1
sS'timber'
p1996
I1
sS'wage'
p1997
I1
sS'cut'
p1998
I1
sS'readers'
p1999
I1
sS'marrying'
p2000
I1
sS'danger'
p2001
I1
sS'nicolaides'
p2002
I1
sS'shouting'
p2003
I1
sS'parents'
p2004
I1
sS'crying'
p2005
I1
sS'administrative'
p2006
I1
sS'excited'
p2007
I1
sS'surprised'
p2008
I1
sS'victims'
p2009
I1
sS'emergency'
p2010
I1
sS'demands'
p2011
I1
sS'big'
p2012
I1
sS'couple'
p2013
I1
sS'matters'
p2014
I1
sS'suffering'
p2015
I1
sS'bit'
p2016
I1
sS'precipitation'
p2017
I1
sS'projects'
p2018
I1
sS'formal'
p2019
I1
sS'imposed'
p2020
I1
sS'd'
p2021
I1
sS'sakharov'
p2022
I1
sS'kennedy'
p2023
I1
sS'austria'
p2024
I1
sS'kremlin'
p2025
I1
sS'consensus'
p2026
I1
sS'communications'
p2027
I1
sS'continue'
p2028
I1
sS'surging'
p2029
I1
sS'jolted'
p2030
I1
sS'disorder'
p2031
I1
sS'valleys'
p2032
I1
sS'often'
p2033
I1
sS'senate'
p2034
I1
sS'spring'
p2035
I1
sS'back'
p2036
I1
sS'bounce'
p2037
I1
sS'martial'
p2038
I1
sS'examples'
p2039
I1
sS'brent'
p2040
I1
sS'abandon'
p2041
I1
sS'scale'
p2042
I1
sS'sharma'
p2043
I1
sS'decision'
p2044
I1
sS'per'
p2045
I1
sS'seabed'
p2046
I1
sS'eliminate'
p2047
I1
sS'temple'
p2048
I1
sS'be'
p2049
I1
sS'300'
p2050
I1
sS'continuing'
p2051
I1
sS'agreement'
p2052
I1
sS'erected'
p2053
I1
sS'cheered'
p2054
I1
sS'santo'
p2055
I1
sS'from'
p2056
I1
sS'gibbons'
p2057
I1
sS'wildlife'
p2058
I1
sS'consumption'
p2059
I1
sS'anything'
p2060
I1
sS'exaggerated'
p2061
I1
sS'truck'
p2062
I1
sS'archbishop'
p2063
I1
sS'benefactors'
p2064
I1
sS'recommended'
p2065
I1
sS'into'
p2066
I1
sS'awaited'
p2067
I1
sS'primarily'
p2068
I1
sS'steven'
p2069
I1
sS'next'
p2070
I1
sS'span'
p2071
I1
sS'spending'
p2072
I1
sS'gases'
p2073
I1
sS'custom'
p2074
I1
sS'crackdown'
p2075
I1
sS'prensa'
p2076
I1
sS'forward'
p2077
I1
sS'elsewhere'
p2078
I1
sS'inches'
p2079
I1
sS'atop'
p2080
I1
sS'hoped'
p2081
I1
sS'boys'
p2082
I1
sS'atlantic'
p2083
I1
sS'competition'
p2084
I1
sS'hopes'
p2085
I1
sS'subsidiary'
p2086
I1
sS'line'
p2087
I1
sS'considerable'
p2088
I1
sS'posted'
p2089
I1
sS'blockage'
p2090
I1
sS'requesting'
p2091
I1
sS'up'
p2092
I1
sS'us'
p2093
I1
sS'planet'
p2094
I1
sS'midday'
p2095
I1
sS'played'
p2096
I1
sS'faded'
p2097
I1
sS'alarm'
p2098
I1
sS'storing'
p2099
I1
sS'aerial'
p2100
I1
sS'nationalist'
p2101
I1
sS'metal'
p2102
I1
sS'deadliest'
p2103
I1
sS'single'
p2104
I1
sS'rolling'
p2105
I1
sS'surveying'
p2106
I1
sS'treaty'
p2107
I1
sS'hail'
p2108
I1
sS'nepal'
p2109
I1
sS'950'
p2110
I1
sS'preventing'
p2111
I1
sS'excuses'
p2112
I1
sS'definitely'
p2113
I1
sS'actors'
p2114
I1
sS'freighter'
p2115
I1
sS'brushing'
p2116
I1
sS'mankind'
p2117
I1
sS'prosecution'
p2118
I1
sS'prepared'
p2119
I1
sS'stoppages'
p2120
I1
sS'depicting'
p2121
I1
sS'meals'
p2122
I1
sS'ago'
p2123
I1
sS'land'
p2124
I1
sS'overlooking'
p2125
I1
sS'geraldine'
p2126
I1
sS'handcock'
p2127
I1
sS'wards'
p2128
I1
sS'federally'
p2129
I1
sS'presenting'
p2130
I1
sS'rallies'
p2131
I1
sS'kentuky'
p2132
I1
sS'fresh'
p2133
I1
sS'having'
p2134
I1
sS'results'
p2135
I1
sS'centers'
p2136
I1
sS'seemed'
p2137
I1
sS'contacted'
p2138
I1
sS'turkish'
p2139
I1
sS'nhuchhe'
p2140
I1
sS'young'
p2141
I1
sS'send'
p2142
I1
sS'citing'
p2143
I1
sS'outlooks'
p2144
I1
sS'blaze'
p2145
I1
sS'fatal'
p2146
I1
sS'resources'
p2147
I1
sS'garden'
p2148
I1
sS'outside'
p2149
I1
sS'continues'
p2150
I1
sS'depauw'
p2151
I1
sS'huddled'
p2152
I1
sS'assam'
p2153
I1
sS'putting'
p2154
I1
sS'surgeon'
p2155
I1
sS'continued'
p2156
I1
sS'categories'
p2157
I1
sS'arrange'
p2158
I1
sS'severely'
p2159
I1
sS'experiencing'
p2160
I1
sS'shock'
p2161
I1
sS'eve'
p2162
I1
sS'fewer'
p2163
I1
sS'try'
p2164
I1
sS'race'
p2165
I1
sS'pledge'
p2166
I1
sS'crop'
p2167
I1
sS'rivers'
p2168
I1
sS'flanigan'
p2169
I1
sS'bouffard'
p2170
I1
sS'licenses'
p2171
I1
sS'assembly'
p2172
I1
sS'index'
p2173
I1
sS'vigils'
p2174
I1
sS'chicago'
p2175
I1
sS'giving'
p2176
I1
sS'harvests'
p2177
I1
sS'fat'
p2178
I1
sS'access'
p2179
I1
sS'consistently'
p2180
I1
sS'troupe'
p2181
I1
sS'indian'
p2182
I1
sS'body'
p2183
I1
sS'led'
p2184
I1
sS'50th'
p2185
I1
sS'gathered'
p2186
I1
sS'leo'
p2187
I1
sS'packing'
p2188
I1
sS'objects'
p2189
I1
sS'let'
p2190
I1
sS'others'
p2191
I1
sS'tremor'
p2192
I1
sS'extreme'
p2193
I1
sS'39'
p2194
I1
sS'38'
p2195
I1
sS'coped'
p2196
I1
sS'involved'
p2197
I1
sS'31'
p2198
I1
sS'30'
p2199
I1
sS'barahona'
p2200
I1
sS'36'
p2201
I1
sS'35'
p2202
I1
sS'survey'
p2203
I1
sS'climb'
p2204
I1
sS'makes'
p2205
I1
sS'honor'
p2206
I1
sS'named'
p2207
I1
sS'slain'
p2208
I1
sS'gusting'
p2209
I1
sS'private'
p2210
I1
sS'names'
p2211
I1
sS'composer'
p2212
I1
sS'scandal'
p2213
I1
sS'ninth'
p2214
I1
sS'tools'
p2215
I1
sS'standing'
p2216
I1
sS'bested'
p2217
I1
sS'links'
p2218
I1
sS'illegal'
p2219
I1
sS'whipping'
p2220
I1
sS'ministers'
p2221
I1
sS'nobel'
p2222
I1
sS'beaches'
p2223
I1
sS'toy'
p2224
I1
sS'lipcowy'
p2225
I1
sS'judged'
p2226
I1
sS'comparison'
p2227
I1
sS'stone'
p2228
I1
sS'train'
p2229
I1
sS'sharply'
p2230
I1
sS'tearing'
p2231
I1
sS'harvest'
p2232
I1
sS'had'
p2233
I1
sS'account'
p2234
I1
sS'balls'
p2235
I1
sS'practicing'
p2236
I1
sS'f'
p2237
I1
sS'this'
p2238
I1
sS'when'
p2239
I1
sS'insists'
p2240
I1
sS'industrial'
p2241
I1
sS'closing'
p2242
I1
sS'institute'
p2243
I1
sS'something'
p2244
I1
sS'pawn'
p2245
I1
sS'process'
p2246
I1
sS'high'
p2247
I1
sS'professor'
p2248
I1
sS'reserves'
p2249
I1
sS'employs'
p2250
I1
sS'bones'
p2251
I1
sS'yelena'
p2252
I1
sS'contempt'
p2253
I1
sS'destroying'
p2254
I1
sS'holds'
p2255
I1
sS'regions'
p2256
I1
sS'winners'
p2257
I1
sS'pair'
p2258
I1
sS'forest'
p2259
I1
sS'comedy'
p2260
I1
sS'establishment'
p2261
I1
sS'hostility'
p2262
I1
sS'stock'
p2263
I1
sS'buildings'
p2264
I1
sS'guthrie'
p2265
I1
sS'y'
p2266
I1
sS'aspiring'
p2267
I1
sS'highs'
p2268
I1
sS'act'
p2269
I1
sS'cabbage'
p2270
I1
sS'worried'
p2271
I1
sS'solidarity'
p2272
I1
sS'ambiguous'
p2273
I1
sS'bombers'
p2274
I1
sS'nickel'
p2275
I1
sS'lines'
p2276
I1
sS'element'
p2277
I1
sS'sendak'
p2278
I1
sS'chief'
p2279
I1
sS'tripura'
p2280
I1
sS'allow'
p2281
I1
sS'subsequently'
p2282
I1
sS'lined'
p2283
I1
sS'rudna'
p2284
I1
sS'ignite'
p2285
I1
sS'producer'
p2286
I1
sS'move'
p2287
I1
sS'researching'
p2288
I1
sS'produced'
p2289
I1
sS'protests'
p2290
I1
sS'warren'
p2291
I1
sS'perfect'
p2292
I1
sS'bridges'
p2293
I1
sS'located'
p2294
I1
sS'll'
p2295
I1
sS'labor'
p2296
I1
sS'age'
p2297
I1
sS'lt'
p2298
I1
sS'willing'
p2299
I1
sS'degrees'
p2300
I1
sS'ls'
p2301
I1
sS'latitude'
p2302
I1
sS'hobby'
p2303
I1
sS'criminal'
p2304
I1
sS'gard'
p2305
I1
sS'greater'
p2306
I1
sS'dam'
p2307
I1
sS'outlined'
p2308
I1
sS'spell'
p2309
I1
sS'newman'
p2310
I1
sS'disrupted'
p2311
I1
sS'cutting'
p2312
I1
sS'ferdinand'
p2313
I1
sS'presidential'
p2314
I1
sS'february'
p2315
I1
sS'undertaking'
p2316
I1
sS'traced'
p2317
I1
sS'identified'
p2318
I1
sS'sniffing'
p2319
I1
sS'betty'
p2320
I1
sS'shortage'
p2321
I1
sS'rising'
p2322
I1
sS'beneath'
p2323
I1
sS'experienced'
p2324
I1
sS'warner'
p2325
I1
sS'vintondale'
p2326
I1
sS'belgrade'
p2327
I1
sS'tents'
p2328
I1
sS'doing'
p2329
I1
sS'poppins'
p2330
I1
sS'bums'
p2331
I1
sS'society'
p2332
I1
sS'huntington'
p2333
I1
sS'patch'
p2334
I1
sS'agriculture'
p2335
I1
sS'matt'
p2336
I1
sS'kids'
p2337
I1
sS'danic'
p2338
I1
sS'mate'
p2339
I1
sS'oriental'
p2340
I1
sS'barley'
p2341
I1
sS'primped'
p2342
I1
sS'waters'
p2343
I1
sS'announced'
p2344
I1
sS'harold'
p2345
I1
sS'incalculable'
p2346
I1
sS'embassy'
p2347
I1
sS'release'
p2348
I1
sS'indra'
p2349
I1
sS'likelihood'
p2350
I1
sS'afterward'
p2351
I1
sS'backless'
p2352
I1
sS'mainland'
p2353
I1
sS'rumbled'
p2354
I1
sS'gallons'
p2355
I1
sS'could'
p2356
I1
sS'backwater'
p2357
I1
sS'david'
p2358
I1
sS'length'
p2359
I1
sS'camaguey'
p2360
I1
sS'south'
p2361
I1
sS'kostecki'
p2362
I1
sS'450'
p2363
I1
sS'mittal'
p2364
I1
sS'scene'
p2365
I1
sS'skills'
p2366
I1
sS'autographed'
p2367
I1
sS'improvements'
p2368
I1
sS'owner'
p2369
I1
sS'afield'
p2370
I1
sS'legislative'
p2371
I1
sS'ancient'
p2372
I1
sS'fair'
p2373
I1
sS'los'
p2374
I1
sS'festival'
p2375
I1
sS'demonstration'
p2376
I1
sS'pots'
p2377
I1
sS'system'
p2378
I1
sS'unspecified'
p2379
I1
sS'intermediate'
p2380
I1
sS'ton'
p2381
I1
sS'evacuated'
p2382
I1
sS'interests'
p2383
I1
sS'enforcement'
p2384
I1
sS'gear'
p2385
I1
sS'unoccupied'
p2386
I1
sS'contribute'
p2387
I1
sS'haven'
p2388
I1
sS'steel'
p2389
I1
sS'colleagues'
p2390
I1
sS'extraordinarily'
p2391
I1
sS'compensation'
p2392
I1
sS'darbhanga'
p2393
I1
sS'loves'
p2394
I1
sS'visited'
p2395
I1
sS'abolished'
p2396
I1
sS'steep'
p2397
I1
sS'aquino'
p2398
I1
sS'false'
p2399
I1
sS'752'
p2400
I1
sS'andrzejczak'
p2401
I1
sS'tonight'
p2402
I1
sS'poduim'
p2403
I1
sS'bettering'
p2404
I1
sS'have'
p2405
I1
sS'941'
p2406
I1
sS'apparently'
p2407
I1
sS'cecil'
p2408
I1
sS'mountainous'
p2409
I1
sS'dishes'
p2410
I1
sS'mills'
p2411
I1
sS'mid'
p2412
I1
sS'concerns'
p2413
I1
sS'demolished'
p2414
I1
sS'latina'
p2415
I1
sS'ashore'
p2416
I1
sS'ganges'
p2417
I1
sS'worldwide'
p2418
I1
sS'pete'
p2419
I1
sS'unless'
p2420
I1
sS'kelly'
p2421
I1
sS'courtesy'
p2422
I1
sS'eight'
p2423
I1
sS'preliminary'
p2424
I1
sS'phyllis'
p2425
I1
sS'transcript'
p2426
I1
sS'herman'
p2427
I1
sS'death'
p2428
I1
sS'volunteers'
p2429
I1
sS'frederica'
p2430
I1
sS'sweeping'
p2431
I1
sS'frederick'
p2432
I1
sS'disease'
p2433
I1
sS'face'
p2434
I1
sS'normally'
p2435
I1
sS'fact'
p2436
I1
sS'parish'
p2437
I1
sS'atmosphere'
p2438
I1
sS'selection'
p2439
I1
sS'text'
p2440
I1
sS'charles'
p2441
I1
sS'rotating'
p2442
I1
sS'bring'
p2443
I1
sS'traitor'
p2444
I1
sS'greenhouse'
p2445
I1
sS'soggy'
p2446
I1
sS'supporter'
p2447
I1
sS'decade'
p2448
I1
sS'staff'
p2449
I1
sS'communism'
p2450
I1
sS'knowledge'
p2451
I1
sS'sparks'
p2452
I1
sS'controls'
p2453
I1
sS'should'
p2454
I1
sS'jan'
p2455
I1
sS'notes'
p2456
I1
sS'riding'
p2457
I1
sS'communist'
p2458
I1
sS'hope'
p2459
I1
sS'regularly'
p2460
I1
sS'means'
p2461
I1
sS'familiar'
p2462
I1
sS'bear'
p2463
I1
sS'dharbhanga'
p2464
I1
sS'perfection'
p2465
I1
sS'katharine'
p2466
I1
sS'moneymakers'
p2467
I1
sS'areas'
p2468
I1
sS'committees'
p2469
I1
sS'h'
p2470
I1
sS'taxes'
p2471
I1
sS'calling'
p2472
I1
sS'midori'
p2473
I1
sS'including'
p2474
I1
sS'handwritten'
p2475
I1
sS'strengthened'
p2476
I1
sS'madan'
p2477
I1
sS'turkeys'
p2478
I1
sS'national'
p2479
I1
sS'benigno'
p2480
I1
sS'edition'
p2481
I1
sS'intensity'
p2482
I1
sS'subcommittee'
p2483
I1
sS'agricultural'
p2484
I1
sS'packed'
p2485
I1
sS'error'
p2486
I1
sS'extend'
p2487
I1
sS'reform'
p2488
I1
sS'pattern'
p2489
I1
sS'partisan'
p2490
I1
sS'brunt'
p2491
I1
sS'rolled'
p2492
I1
sS'nominees'
p2493
I1
sS'progress'
p2494
I1
sS'bunch'
p2495
I1
sS'ends'
p2496
I1
sS'underwater'
p2497
I1
sS'armenia'
p2498
I1
sS'climatologists'
p2499
I1
sS'lawsuit'
p2500
I1
sS'restrictions'
p2501
I1
sS'revoked'
p2502
I1
sS'joke'
p2503
I1
sS'taking'
p2504
I1
sS'la'
p2505
I1
sS'equal'
p2506
I1
sS'boulders'
p2507
I1
sS'marth'
p2508
I1
sS'figures'
p2509
I1
sS'passing'
p2510
I1
sS'placebo'
p2511
I1
sS'comment'
p2512
I1
sS'detailed'
p2513
I1
sS'co'
p2514
I1
sS'brook'
p2515
I1
sS'brennan'
p2516
I1
sS'winning'
p2517
I1
sS'flourishing'
p2518
I1
sS'instigators'
p2519
I1
sS'powered'
p2520
I1
sS'muddy'
p2521
I1
sS'poured'
p2522
I1
sS'upbeat'
p2523
I1
sS'1928'
p2524
I1
sS'recurring'
p2525
I1
sS'trinity'
p2526
I1
sS'arises'
p2527
I1
sS'466'
p2528
I1
sS'climate'
p2529
I1
sS'ridden'
p2530
I1
sS'finished'
p2531
I1
sS'tense'
p2532
I1
sS'puerto'
p2533
I1
sS'atlanta'
p2534
I1
sS'an'
p2535
I1
sS'volunteer'
p2536
I1
sS'homes'
p2537
I1
sS'atmospheric'
p2538
I1
sS'unicef'
p2539
I1
sS'plain'
p2540
I1
sS'value'
p2541
I1
sS'promoted'
p2542
I1
sS'hampering'
p2543
I1
sS'file'
p2544
I1
sS'almost'
p2545
I1
sS'surprisingly'
p2546
I1
sS'helped'
p2547
I1
sS'optimistic'
p2548
I1
sS'politics'
p2549
I1
sS'claimed'
p2550
I1
sS'inspector'
p2551
I1
sS'sits'
p2552
I1
sS'tumbled'
p2553
I1
sS'diety'
p2554
I1
sS'sympathizer'
p2555
I1
sS'juan'
p2556
I1
sS'administration'
p2557
I1
sS'dakotas'
p2558
I1
sS'coronary'
p2559
I1
sS'brightened'
p2560
I1
sS'slammed'
p2561
I1
sS'casualty'
p2562
I1
sS'eugenio'
p2563
I1
sS'hendricks'
p2564
I1
sS'dan'
p2565
I1
sS'injured'
p2566
I1
sS'drink'
p2567
I1
sS'upon'
p2568
I1
sS'blockers'
p2569
I1
sS'strikers'
p2570
I1
sS'never'
p2571
I1
sS'off'
p2572
I1
sS'center'
p2573
I1
sS'retardant'
p2574
I1
sS'mention'
p2575
I1
sS'nevertheless'
p2576
I1
sS'southeastern'
p2577
I1
sS'thought'
p2578
I1
sS'350'
p2579
I1
sS'position'
p2580
I1
sS'publicize'
p2581
I1
sS'wreckage'
p2582
I1
sS'soviet'
p2583
I1
sS'floored'
p2584
I1
sS'usual'
p2585
I1
sS'newest'
p2586
I1
sS'barking'
p2587
I1
sS'less'
p2588
I1
sS'kramer'
p2589
I1
sS'executive'
p2590
I1
sS'domestic'
p2591
I1
sS'traitors'
p2592
I1
sS'front'
p2593
I1
sS'stored'
p2594
I1
sS'voltage'
p2595
I1
sS'seats'
p2596
I1
sS'dakota'
p2597
I1
sS'paul'
p2598
I1
sS'graduate'
p2599
I1
sS'warship'
p2600
I1
sS'ads'
p2601
I1
sS'entire'
p2602
I1
sS'residential'
p2603
I1
sS'mahananada'
p2604
I1
sS'recommending'
p2605
I1
sS'day'
p2606
I1
sS'winnie'
p2607
I1
sS'wet'
p2608
I1
sS'280'
p2609
I1
sS'villagers'
p2610
I1
sS'bahadur'
p2611
I1
sS'tests'
p2612
I1
sS'increased'
p2613
I1
sS'government'
p2614
I1
sS'increases'
p2615
I1
sS'five'
p2616
I1
sS'tick'
p2617
I1
sS'forcing'
p2618
I1
sS'like'
p2619
I1
sS'finnish'
p2620
I1
sS'journalism'
p2621
I1
sS'admitted'
p2622
I1
sS'journalist'
p2623
I1
sS'warned'
p2624
I1
sS'become'
p2625
I1
sS'works'
p2626
I1
sS'soft'
p2627
I1
sS'gaining'
p2628
I1
sS'classical'
p2629
I1
sS'alive'
p2630
I1
sS'hissing'
p2631
I1
sS'happens'
p2632
I1
sS'wetter'
p2633
I1
sS'avoid'
p2634
I1
sS'hurricane'
p2635
I1
sS'salaries'
p2636
I1
sS'257'
p2637
I1
sS'shelter'
p2638
I1
sS'latvia'
p2639
I1
sS'blowing'
p2640
I1
sS'pomeranian'
p2641
I1
sS'schedule'
p2642
I1
sS'clarendon'
p2643
I1
sS'host'
p2644
I1
sS'although'
p2645
I1
sS'accompanied'
p2646
I1
sS'loans'
p2647
I1
sS'michaels'
p2648
I1
sS'counties'
p2649
I1
sS'hiding'
p2650
I1
sS'sister'
p2651
I1
sS'bills'
p2652
I1
sS'engines'
p2653
I1
sS'withdrew'
p2654
I1
sS'angeles'
p2655
I1
sS'introduced'
p2656
I1
sS'peak'
p2657
I1
sS'moschitta'
p2658
I1
sS'letters'
p2659
I1
sS'billions'
p2660
I1
sS'guard'
p2661
I1
sS'roads'
p2662
I1
sS'quiet'
p2663
I1
sS'1986'
p2664
I1
sS'1987'
p2665
I1
sS'1984'
p2666
I1
sS'1985'
p2667
I1
sS'1983'
p2668
I1
sS'1980'
p2669
I1
sS'rushed'
p2670
I1
sS'vegetables'
p2671
I1
sS'1988'
p2672
I1
sS'1989'
p2673
I1
sS'trigger'
p2674
I1
sS'biggest'
p2675
I1
sS'naturally'
p2676
I1
sS'function'
p2677
I1
sS'funnel'
p2678
I1
sS'buy'
p2679
I1
sS'interest'
p2680
I1
sS'chatting'
p2681
I1
sS'562'
p2682
I1
sS'extended'
p2683
I1
sS'delivery'
p2684
I1
sS'insured'
p2685
I1
sS'bun'
p2686
I1
sS'candidacy'
p2687
I1
sS'lloyd'
p2688
I1
sS'count'
p2689
I1
sS'places'
p2690
I1
sS'lyng'
p2691
I1
sS'dangerous'
p2692
I1
sS'frugally'
p2693
I1
sS'official'
p2694
I1
sS'placed'
p2695
I1
sS'garbo'
p2696
I1
sS'problem'
p2697
I1
sS'minutes'
p2698
I1
sS'skating'
p2699
I1
sS'bearing'
p2700
I1
sS'irish'
p2701
I1
sS'deaths'
p2702
I1
sS'kingston'
p2703
I1
sS'consumed'
p2704
I1
sS'periods'
p2705
I1
sS'83'
p2706
I1
sS'ind'
p2707
I1
sS'inf'
p2708
I1
sS'proceeds'
p2709
I1
sS'inc'
p2710
I1
sS'compared'
p2711
I1
sS'chubb'
p2712
I1
sS'46'
p2713
I1
sS'dressed'
p2714
I1
sS'44'
p2715
I1
sS'45'
p2716
I1
sS'oak'
p2717
I1
sS'forests'
p2718
I1
sS'40'
p2719
I1
sS'41'
p2720
I1
sS'oat'
p2721
I1
sS'compares'
p2722
I1
sS'balan'
p2723
I1
sS'mass'
p2724
I1
sS'adam'
p2725
I1
sS'repeat'
p2726
I1
sS'monday'
p2727
I1
sS'respects'
p2728
I1
sS'class'
p2729
I1
sS'outlets'
p2730
I1
sS'chance'
p2731
I1
sS'inspiration'
p2732
I1
sS'spokesmen'
p2733
I1
sS'lasted'
p2734
I1
sS'rule'
p2735
I1
sS'hikes'
p2736
I1
sS'lift'
p2737
I1
sS'searched'
p2738
I1
sS'accidents'
p2739
I1
sS'thunderstorms'
p2740
I1
sS'limited'
p2741
I1
sS'demanded'
p2742
I1
sS'sleep'
p2743
I1
sS'oldest'
p2744
I1
sS'saved'
p2745
I1
sS'poorly'
p2746
I1
sS'votes'
p2747
I1
sS'poorest'
p2748
I1
sS'edward'
p2749
I1
sS'voted'
p2750
I1
sS'under'
p2751
I1
sS'arkansas'
p2752
I1
sS'worth'
p2753
I1
sS'legislators'
p2754
I1
sS'risk'
p2755
I1
sS'geology'
p2756
I1
sS'rise'
p2757
I1
sS'every'
p2758
I1
sS'tickets'
p2759
I1
sS'school'
p2760
I1
sS'investigator'
p2761
I1
sS'calif'
p2762
I1
sS'cannery'
p2763
I1
sS'humidity'
p2764
I1
sS'red'
p2765
I1
sS'barracks'
p2766
I1
sS'cloudiness'
p2767
I1
sS'triumph'
p2768
I1
sS'methane'
p2769
I1
sS'enjoy'
p2770
I1
sS'jamaica'
p2771
I1
sS'leaders'
p2772
I1
sS'horn'
p2773
I1
sS'surrounding'
p2774
I1
sS'electricians'
p2775
I1
sS'street'
p2776
I1
sS'estimated'
p2777
I1
sS'established'
p2778
I1
sS'fidelio'
p2779
I1
sS'beaten'
p2780
I1
sS'above'
p2781
I1
sS'toll'
p2782
I1
sS'supplies'
p2783
I1
sS'consisting'
p2784
I1
sS'disney'
p2785
I1
sS'told'
p2786
I1
sS'hundreds'
p2787
I1
sS'protection'
p2788
I1
sS'studio'
p2789
I1
sS'path'
p2790
I1
sS'celebration'
p2791
I1
sS'faraguna'
p2792
I1
sS'daughter'
p2793
I1
sS'auction'
p2794
I1
sS'items'
p2795
I1
sS'employees'
p2796
I1
sS'changed'
p2797
I1
sS'smoke'
p2798
I1
sS'stressed'
p2799
I1
sS'postponed'
p2800
I1
sS'changes'
p2801
I1
sS'midway'
p2802
I1
sS'manipur'
p2803
I1
sS'prints'
p2804
I1
sS'ambulances'
p2805
I1
sS'highly'
p2806
I1
sS'total'
p2807
I1
sS'sarah'
p2808
I1
sS'devastation'
p2809
I1
sS'swings'
p2810
I1
sS'would'
p2811
I1
sS'hospital'
p2812
I1
sS'dostanic'
p2813
I1
sS'slogans'
p2814
I1
sS'distributing'
p2815
I1
sS'1930s'
p2816
I1
sS'asset'
p2817
I1
sS'raids'
p2818
I1
sS'indiana'
p2819
I1
sS'assessment'
p2820
I1
sS'boomed'
p2821
I1
sS'award'
p2822
I1
sS'phone'
p2823
I1
sS'vijapur'
p2824
I1
sS'casualties'
p2825
I1
sS'blocking'
p2826
I1
sS'must'
p2827
I1
sS'me'
p2828
I1
sS'irvin'
p2829
I1
sS'stade'
p2830
I1
sS'1992'
p2831
I1
sS'join'
p2832
I1
sS'wore'
p2833
I1
sS'work'
p2834
I1
sS'advocacy'
p2835
I1
sS'spoden'
p2836
I1
sS'tinder'
p2837
I1
sS'era'
p2838
I1
sS'mr'
p2839
I1
sS'criticizing'
p2840
I1
sS'carmen'
p2841
I1
sS'scripting'
p2842
I1
sS'szezecin'
p2843
I1
sS'indicated'
p2844
I1
sS'cited'
p2845
I1
sS'india'
p2846
I1
sS'550'
p2847
I1
sS'indicates'
p2848
I1
sS'mohan'
p2849
I1
sS'keep'
p2850
I1
sS'totaled'
p2851
I1
sS'returned'
p2852
I1
sS'ceremony'
p2853
I1
sS'tornadoes'
p2854
I1
sS'end'
p2855
I1
sS'recovery'
p2856
I1
sS'provide'
p2857
I1
sS'sitting'
p2858
I1
sS'far'
p2859
I1
sS'interview'
p2860
I1
sS'widespread'
p2861
I1
sS'beach'
p2862
I1
sS'badly'
p2863
I1
sS'elizabeth'
p2864
I1
sS'earlier'
p2865
I1
sS'memorial'
p2866
I1
sS'demanding'
p2867
I1
sS'customs'
p2868
I1
sS'jumping'
p2869
I1
sS'lay'
p2870
I1
sS'law'
p2871
I1
sS'stronghold'
p2872
I1
sS'amid'
p2873
I1
sS'greek'
p2874
I1
sS'green'
p2875
I1
sS'enter'
p2876
I1
sS'roused'
p2877
I1
sS'timbers'
p2878
I1
sS'archaeology'
p2879
I1
sS'triggering'
p2880
I1
sS'office'
p2881
I1
sS'over'
p2882
I1
sS'expects'
p2883
I1
sS'thesis'
p2884
I1
sS'japan'
p2885
I1
sS'nets'
p2886
I1
sS'mayor'
p2887
I1
sS'destroyer'
p2888
I1
sS'highlights'
p2889
I1
sS'destroyed'
p2890
I1
sS'production'
p2891
I1
sS'400'
p2892
I1
sS'stifling'
p2893
I1
sS'eugene'
p2894
I1
sS'versus'
p2895
I1
sS'then'
p2896
I1
sS'them'
p2897
I1
sS'affected'
p2898
I1
sS'diseases'
p2899
I1
sS'plaster'
p2900
I1
sS'safe'
p2901
I1
sS'break'
p2902
I1
sS'they'
p2903
I1
sS'bank'
p2904
I1
sS'bread'
p2905
I1
sS'netherlands'
p2906
I1
sS'oxygen'
p2907
I1
sS'potatoes'
p2908
I1
sS'l'
p2909
I1
sS'districts'
p2910
I1
sS'victory'
p2911
I1
sS'each'
p2912
I1
sS'entitled'
p2913
I1
sS'excavations'
p2914
I1
sS'gayther'
p2915
I1
sS'signing'
p2916
I1
sS'diana'
p2917
I1
sS'january'
p2918
I1
sS'group'
p2919
I1
sS'celebrating'
p2920
I1
sS'railed'
p2921
I1
sS'reached'
p2922
I1
sS'saturday'
p2923
I1
sS'hostel'
p2924
I1
sS'islanders'
p2925
I1
sS'network'
p2926
I1
sS'god'
p2927
I1
sS'washed'
p2928
I1
sS'forty'
p2929
I1
sS'giaquinta'
p2930
I1
sS'daniel'
p2931
I1
sS'banning'
p2932
I1
sS'medicine'
p2933
I1
sS'got'
p2934
I1
sS'gov'
p2935
I1
sS'forth'
p2936
I1
sS'independence'
p2937
I1
sS'arizona'
p2938
I1
sS'disputed'
p2939
I1
sS'hang'
p2940
I1
sS'free'
p2941
I1
sS'fred'
p2942
I1
sS'campaigns'
p2943
I1
sS'disputes'
p2944
I1
sS'formation'
p2945
I1
sS'phillippi'
p2946
I1
sS'forcibly'
p2947
I1
sS'wanted'
p2948
I1
sS'reinstatement'
p2949
I1
sS'borkum'
p2950
I1
sS'recovering'
p2951
I1
sS'created'
p2952
I1
sS'days'
p2953
I1
sS'used'
p2954
I1
sS'local'
p2955
I1
sS'oppose'
p2956
I1
sS'incorporated'
p2957
I1
sS'baltic'
p2958
I1
sS'onto'
p2959
I1
sS'gorky'
p2960
I1
sS'already'
p2961
I1
sS'daunting'
p2962
I1
sS'sobel'
p2963
I1
sS'dukakis'
p2964
I1
sS'restrict'
p2965
I1
sS'adopted'
p2966
I1
sS'another'
p2967
I1
sS'mervyn'
p2968
I1
sS'ingmar'
p2969
I1
sS'mercury'
p2970
I1
sS'timothy'
p2971
I1
sS'rated'
p2972
I1
sS'explosives'
p2973
I1
sS'top'
p2974
I1
sS'rates'
p2975
I1
sS'too'
p2976
I1
sS'john'
p2977
I1
sS'dogs'
p2978
I1
sS'damaging'
p2979
I1
sS'chanted'
p2980
I1
sS'rushlaw'
p2981
I1
sS'murder'
p2982
I1
sS'centered'
p2983
I1
sS'luncheon'
p2984
I1
sS'albert'
p2985
I1
sS'took'
p2986
I1
sS'negotiating'
p2987
I1
sS'western'
p2988
I1
sS'cereal'
p2989
I1
sS'kept'
p2990
I1
sS'december'
p2991
I1
sS'guild'
p2992
I1
sS'bulletins'
p2993
I1
sS'nominate'
p2994
I1
sS'final'
p2995
I1
sS'precocious'
p2996
I1
sS'historical'
p2997
I1
sS'1976'
p2998
I1
sS'1975'
p2999
I1
sS'ran'
p3000
I1
sS'astaire'
p3001
I1
sS'ram'
p3002
I1
sS'raj'
p3003
I1
sS'ocean'
p3004
I1
sS'relatively'
p3005
I1
sS'forced'
p3006
I1
sS'strength'
p3007
I1
sS'genuine'
p3008
I1
sS'1969'
p3009
I1
sS'laden'
p3010
I1
sS'1964'
p3011
I1
sS'1965'
p3012
I1
sS'1960'
p3013
I1
sS'pashupati'
p3014
I1
sS'pulliam'
p3015
I1
sS'luxury'
p3016
I1
sS'forces'
p3017
I1
sS'punish'
p3018
I1
sS'conscience'
p3019
I1
sS'nobody'
p3020
I1
sS'though'
p3021
I1
sS'extending'
p3022
I1
sS'bso'
p3023
I1
sS'germany'
p3024
I1
sS'plenty'
p3025
I1
sS'jean'
p3026
I1
sS'germans'
p3027
I1
sS'devastating'
p3028
I1
sS'flow'
p3029
I1
sS'spencer'
p3030
I1
sS'demoralized'
p3031
I1
sS'enterprise'
p3032
I1
sS'agnew'
p3033
I1
sS'docter'
p3034
I1
sS'marveled'
p3035
I1
sS'teetering'
p3036
I1
sS'brief'
p3037
I1
sS'pops'
p3038
I1
sS'radio'
p3039
I1
sS'earth'
p3040
I1
sS'endowment'
p3041
I1
sS'greencastle'
p3042
I1
sS'resemblance'
p3043
I1
sS'quoted'
p3044
I1
sS'minnesota'
p3045
I1
sS'glasnost'
p3046
I1
sS'546'
p3047
I1
sS'adequate'
p3048
I1
sS'549'
p3049
I1
sS'predecessor'
p3050
I1
sS'do'
p3051
I1
sS'kindling'
p3052
I1
sS'de'
p3053
I1
sS'watch'
p3054
I1
sS'criticized'
p3055
I1
sS'watson'
p3056
I1
sS'despite'
p3057
I1
sS'report'
p3058
I1
sS'policymakers'
p3059
I1
sS'haiti'
p3060
I1
sS'dr'
p3061
I1
sS'runs'
p3062
I1
sS'countries'
p3063
I1
sS'plush'
p3064
I1
sS'twice'
p3065
I1
sS'analytical'
p3066
I1
sS'ruins'
p3067
I1
sS'steam'
p3068
I1
sS'secretary'
p3069
I1
sS'yugoslavs'
p3070
I1
sS'habit'
p3071
I1
sS'1960s'
p3072
I1
sS'depends'
p3073
I1
sS'cattle'
p3074
I1
sS'corrupt'
p3075
I1
sS'pastel'
p3076
I1
sS'combustion'
p3077
I1
sS'mitch'
p3078
I1
sS'away'
p3079
I1
sS'interviewing'
p3080
I1
sS'calamity'
p3081
I1
sS'plummeting'
p3082
I1
sS'rushing'
p3083
I1
sS'mud'
p3084
I1
sS'unable'
p3085
I1
sS'tainted'
p3086
I1
sS'toland'
p3087
I1
sS'cooperation'
p3088
I1
sS'drawn'
p3089
I1
sS'approach'
p3090
I1
sS'discovery'
p3091
I1
sS'clued'
p3092
I1
sS'we'
p3093
I1
sS'terms'
p3094
I1
sS'jose'
p3095
I1
sS'however'
p3096
I1
sS'southeast'
p3097
I1
sS'outages'
p3098
I1
sS'news'
p3099
I1
sS'downgraded'
p3100
I1
sS'faced'
p3101
I1
sS'received'
p3102
I1
sS'cos'
p3103
I1
sS'irregular'
p3104
I1
sS'ill'
p3105
I1
sS'paralyzing'
p3106
I1
sS'games'
p3107
I1
sS'bhoothai'
p3108
I1
sS'peacefully'
p3109
I1
sS'tough'
p3110
I1
sS'character'
p3111
I1
sS'tons'
p3112
I1
sS'oblivious'
p3113
I1
sS'trust'
p3114
I1
sS'katarina'
p3115
I1
sS'speak'
p3116
I1
sS'conference'
p3117
I1
sS'beef'
p3118
I1
sS'selloff'
p3119
I1
sS'been'
p3120
I1
sS'quickly'
p3121
I1
sS'beer'
p3122
I1
sS'beet'
p3123
I1
sS'noel'
p3124
I1
sS'expected'
p3125
I1
sS'captives'
p3126
I1
sS'dozens'
p3127
I1
sS'families'
p3128
I1
sS'drugs'
p3129
I1
sS'concerning'
p3130
I1
sS'republicans'
p3131
I1
sS'applied'
p3132
I1
sS'srivastava'
p3133
I1
sS'has'
p3134
I1
sS'heartland'
p3135
I1
sS'pljeskavica'
p3136
I1
sS'kentucky'
p3137
I1
sS'air'
p3138
I1
sS'aim'
p3139
I1
sS'aid'
p3140
I1
sS'cracked'
p3141
I1
sS'launched'
p3142
I1
sS'mistake'
p3143
I1
sS'909'
p3144
I1
sS'dumped'
p3145
I1
sS'tissue'
p3146
I1
sS'experts'
p3147
I1
sS'exile'
p3148
I1
sS'confirmed'
p3149
I1
sS'perform'
p3150
I1
sS'suggest'
p3151
I1
sS'wound'
p3152
I1
sS'jerry'
p3153
I1
sS'complex'
p3154
I1
sS'several'
p3155
I1
sS'convictions'
p3156
I1
sS'independent'
p3157
I1
sS'leftist'
p3158
I1
sS'theodore'
p3159
I1
sS'everett'
p3160
I1
sS'balkan'
p3161
I1
sS'rail'
p3162
I1
sS'rain'
p3163
I1
sS'greeted'
p3164
I1
sS'fuse'
p3165
I1
sS'characters'
p3166
I1
sS'insisted'
p3167
I1
sS'blamed'
p3168
I1
sS'dhaka'
p3169
I1
sS'prescribed'
p3170
I1
sS'shortly'
p3171
I1
sS'piazza'
p3172
I1
sS'1979'
p3173
I1
sS'1977'
p3174
I1
sS'charlie'
p3175
I1
sS'forceful'
p3176
I1
sS'1974'
p3177
I1
sS'1973'
p3178
I1
sS'1972'
p3179
I1
sS'1971'
p3180
I1
sS'1970'
p3181
I1
sS'savings'
p3182
I1
sS'contact'
p3183
I1
sS'greatest'
p3184
I1
sS'detained'
p3185
I1
sS'mother'
p3186
I1
sS'hearts'
p3187
I1
sS'alabama'
p3188
I1
sS'musical'
p3189
I1
sS'seasonal'
p3190
I1
sS'appease'
p3191
I1
sS'birth'
p3192
I1
sS'proposed'
p3193
I1
sS'gods'
p3194
I1
sS'quotes'
p3195
I1
sS'elk'
p3196
I1
sS'flutist'
p3197
I1
sS'wright'
p3198
I1
sS'spread'
p3199
I1
sS'board'
p3200
I1
sS'gregg'
p3201
I1
sS'puranman'
p3202
I1
sS'advances'
p3203
I1
sS'caps'
p3204
I1
sS'injuring'
p3205
I1
sS'judge'
p3206
I1
sS'burns'
p3207
I1
sS'advanced'
p3208
I1
sS'apart'
p3209
I1
sS'nikolic'
p3210
I1
sS'melting'
p3211
I1
sS'trivia'
p3212
I1
sS'appearing'
p3213
I1
sS'58'
p3214
I1
sS'55'
p3215
I1
sS'54'
p3216
I1
sS'57'
p3217
I1
sS'51'
p3218
I1
sS'50'
p3219
I1
sS'53'
p3220
I1
sS'52'
p3221
I1
sS'specific'
p3222
I1
sS'cooler'
p3223
I1
sS'535'
p3224
I1
sS'officer'
p3225
I1
sS'531'
p3226
I1
sS'night'
p3227
I1
sS'hung'
p3228
I1
sS'security'
p3229
I1
sS'honored'
p3230
I1
sS'excerpt'
p3231
I1
sS'lashed'
p3232
I1
sS'meters'
p3233
I1
sS'election'
p3234
I1
sS'specialities'
p3235
I1
sS'kanaris'
p3236
I1
sS'indirect'
p3237
I1
sS'contests'
p3238
I1
sS'drowned'
p3239
I1
sS'clash'
p3240
I1
sS'purple'
p3241
I1
sS'ice'
p3242
I1
sS'everything'
p3243
I1
sS'trustees'
p3244
I1
sS'jacek'
p3245
I1
sS'denied'
p3246
I1
sS'beating'
p3247
I1
sS'participation'
p3248
I1
sS'gandhi'
p3249
I1
sS'columbus'
p3250
I1
sS'who'
p3251
I1
sS'hare'
p3252
I1
sS'sadik'
p3253
I1
sS'corn'
p3254
I1
sS'pose'
p3255
I1
sS'restructuring'
p3256
I1
sS'corp'
p3257
I1
sS'graduated'
p3258
I1
sS'isolde'
p3259
I1
sS'trophy'
p3260
I1
sS'hard'
p3261
I1
sS'attacks'
p3262
I1
sS'newspapers'
p3263
I1
sS'months'
p3264
I1
sS'plying'
p3265
I1
sS'sizzling'
p3266
I1
sS'dinner'
p3267
I1
sS'speedier'
p3268
I1
sS'plus'
p3269
I1
sS'logistical'
p3270
I1
sS'efforts'
p3271
I1
sS'civil'
p3272
I1
sS'prisoners'
p3273
I1
sS'bound'
p3274
I1
sS'gearing'
p3275
I1
sS'accomplishments'
p3276
I1
sS'movements'
p3277
I1
sS'coastal'
p3278
I1
sS'old'
p3279
I1
sS'emigrate'
p3280
I1
sS'anorexic'
p3281
I1
sS'creek'
p3282
I1
sS'strangely'
p3283
I1
sS'deal'
p3284
I1
sS'medal'
p3285
I1
sS'legislation'
p3286
I1
sS'transform'
p3287
I1
sS'fight'
p3288
I1
sS'virgin'
p3289
I1
sS'fought'
p3290
I1
sS'towing'
p3291
I1
sS'way'
p3292
I1
sS'crews'
p3293
I1
sS'editions'
p3294
I1
sS'was'
p3295
I1
sS'war'
p3296
I1
sS'lowest'
p3297
I1
sS'head'
p3298
I1
sS'attempted'
p3299
I1
sS'becoming'
p3300
I1
sS'vitality'
p3301
I1
sS'peninsula'
p3302
I1
sS'mysterious'
p3303
I1
sS'heat'
p3304
I1
sS'uncle'
p3305
I1
sS'dead'
p3306
I1
sS'sustained'
p3307
I1
sS'removed'
p3308
I1
sS'trud'
p3309
I1
sS'nationwide'
p3310
I1
sS'invincible'
p3311
I1
sS'maximum'
p3312
I1
sS'krakow'
p3313
I1
sS'hotter'
p3314
I1
sS'estonia'
p3315
I1
sS'evidence'
p3316
I1
sS'expertise'
p3317
I1
sS'precautions'
p3318
I1
sS'weakened'
p3319
I1
sS'no'
p3320
I1
sS'fitzgerald'
p3321
I1
sS'topped'
p3322
I1
sS'vesna'
p3323
I1
sS'shrine'
p3324
I1
sS'vanished'
p3325
I1
sS'panchayat'
p3326
I1
sS'picture'
p3327
I1
sS'brothers'
p3328
I1
sS'preceding'
p3329
I1
sS'scores'
p3330
I1
sS'discharge'
p3331
I1
sS'acted'
p3332
I1
sS'faster'
p3333
I1
sS'together'
p3334
I1
sS'vietnam'
p3335
I1
sS'classmate'
p3336
I1
sS'remarked'
p3337
I1
sS'serious'
p3338
I1
sS'neighbors'
p3339
I1
sS'ron'
p3340
I1
sS'global'
p3341
I1
sS'focus'
p3342
I1
sS'roy'
p3343
I1
sS'marion'
p3344
I1
sS'dalton'
p3345
I1
sS'helicopter'
p3346
I1
sS'row'
p3347
I1
sS'devoted'
p3348
I1
sS'1948'
p3349
I1
sS'1949'
p3350
I1
sS'zone'
p3351
I1
sS'1942'
p3352
I1
sS'1940'
p3353
I1
sS'1941'
p3354
I1
sS'1947'
p3355
I1
sS'1944'
p3356
I1
sS'blocker'
p3357
I1
sS'charge'
p3358
I1
sS'sing'
p3359
I1
sS'southwest'
p3360
I1
sS'brown'
p3361
I1
sS'supported'
p3362
I1
sS'federation'
p3363
I1
sS'anonymous'
p3364
I1
sS'cook'
p3365
I1
sS'blast'
p3366
I1
sS'perceived'
p3367
I1
sS'clouds'
p3368
I1
sS'hour'
p3369
I1
sS'presented'
p3370
I1
sS'turns'
p3371
I1
sS'philippines'
p3372
I1
sS'fragile'
p3373
I1
sS'registered'
p3374
I1
sS'hawaii'
p3375
I1
sS'p'
p3376
I1
sS'guy'
p3377
I1
sS'tenths'
p3378
I1
sS'democrats'
p3379
I1
sS'the'
p3380
I1
sS'pork'
p3381
I1
sS'demille'
p3382
I1
sS'says'
p3383
I1
sS'plummer'
p3384
I1
sS'tougher'
p3385
I1
sS'trend'
p3386
I1
sS'agitate'
p3387
I1
sS'inland'
p3388
I1
sS'cost'
p3389
I1
sS'dried'
p3390
I1
sS'ottoman'
p3391
I1
sS'bales'
p3392
I1
sS'port'
p3393
I1
sS'cargo'
p3394
I1
sS'constitution'
p3395
I1
sS'spiro'
p3396
I1
sS'assistance'
p3397
I1
sS'contracted'
p3398
I1
sS'shares'
p3399
I1
sS'pleased'
p3400
I1
sS'goes'
p3401
I1
sS'ketrzynska'
p3402
I1
sS'appeal'
p3403
I1
sS'genex'
p3404
I1
sS'supporting'
p3405
I1
sS'burn'
p3406
I1
sS'explosion'
p3407
I1
sS'water'
p3408
I1
sS'knocked'
p3409
I1
sS'groups'
p3410
I1
sS'airlifted'
p3411
I1
sS'appears'
p3412
I1
sS'change'
p3413
I1
sS'sending'
p3414
I1
sS'unidentified'
p3415
I1
sS'thirty'
p3416
I1
sS'healthy'
p3417
I1
sS'trial'
p3418
I1
sS'usually'
p3419
I1
sS'idolized'
p3420
I1
sS'beautiful'
p3421
I1
sS'winner'
p3422
I1
sS'retired'
p3423
I1
sS'extra'
p3424
I1
sS'soybeans'
p3425
I1
sS'nepalese'
p3426
I1
sS'illumination'
p3427
I1
sS'rarely'
p3428
I1
sS'crisis'
p3429
I1
sS'market'
p3430
I1
sS'handled'
p3431
I1
sS'driest'
p3432
I1
sS'live'
p3433
I1
sS'joints'
p3434
I1
sS'today'
p3435
I1
sS'rainfall'
p3436
I1
sS'commissioner'
p3437
I1
sS'conductor'
p3438
I1
sS'sessions'
p3439
I1
sS'club'
p3440
I1
sS'suggestions'
p3441
I1
sS'deoghar'
p3442
I1
sS'organizations'
p3443
I1
sS'skaters'
p3444
I1
sS'car'
p3445
I1
sS'posthumous'
p3446
I1
sS'longitude'
p3447
I1
sS'decker'
p3448
I1
sS'hardest'
p3449
I1
sS'can'
p3450
I1
sS'ferry'
p3451
I1
sS'lighthearted'
p3452
I1
sS'heart'
p3453
I1
sS'dedicated'
p3454
I1
sS'performer'
p3455
I1
sS'figure'
p3456
I1
sS'expanding'
p3457
I1
sS'topic'
p3458
I1
sS'heard'
p3459
I1
sS'chin'
p3460
I1
sS'performed'
p3461
I1
sS'clothing'
p3462
I1
sS'parliamentary'
p3463
I1
sS'domenici'
p3464
I1
sS'swung'
p3465
I1
sS'requirements'
p3466
I1
sS'cuba'
p3467
I1
sS'trophies'
p3468
I1
sS'1'
p3469
I1
sS'vital'
p3470
I1
sS'fourth'
p3471
I1
sS'ensure'
p3472
I1
sS'economy'
p3473
I1
sS'spielberg'
p3474
I1
sS'southern'
p3475
I1
sS'islamic'
p3476
I1
sS'produce'
p3477
I1
sS'islands'
p3478
I1
sS'nomination'
p3479
I1
sS'eighth'
p3480
I1
sS'lifting'
p3481
I1
sS'branches'
p3482
I1
sS'remember'
p3483
I1
sS'succeeded'
p3484
I1
sS'whenever'
p3485
I1
sS'futures'
p3486
I1
sS'crept'
p3487
I1
sS'honoring'
p3488
I1
sS'typical'
p3489
I1
sS'serving'
p3490
I1
sS'indeed'
p3491
I1
sS'midnight'
p3492
I1
sS'ended'
p3493
I1
sS'statistical'
p3494
I1
sS'cold'
p3495
I1
sS'still'
p3496
I1
sS'worship'
p3497
I1
sS'statuettes'
p3498
I1
sS'blocked'
p3499
I1
sS'1830'
p3500
I1
sS'wallace'
p3501
I1
sS'acknowledge'
p3502
I1
sS'vicinity'
p3503
I1
sS'inflicted'
p3504
I1
sS'chalice'
p3505
I1
sS'platform'
p3506
I1
sS'offers'
p3507
I1
sS'farmer'
p3508
I1
sS'norway'
p3509
I1
sS'happened'
p3510
I1
sS'non'
p3511
I1
sS'devastated'
p3512
I1
sS'1955'
p3513
I1
sS'1954'
p3514
I1
sS'1956'
p3515
I1
sS'hamilton'
p3516
I1
sS'1950'
p3517
I1
sS'1953'
p3518
I1
sS'wealthy'
p3519
I1
sS'not'
p3520
I1
sS'nov'
p3521
I1
sS'now'
p3522
I1
sS'1959'
p3523
I1
sS'hall'
p3524
I1
sS'nor'
p3525
I1
sS'accommodate'
p3526
I1
sS'term'
p3527
I1
sS'name'
p3528
I1
sS'opera'
p3529
I1
sS'james'
p3530
I1
sS'drop'
p3531
I1
sS'prosperi'
p3532
I1
sS'possibilities'
p3533
I1
sS'entirely'
p3534
I1
sS'significantly'
p3535
I1
sS'populated'
p3536
I1
sS'kane'
p3537
I1
sS'directing'
p3538
I1
sS'challenges'
p3539
I1
sS'fires'
p3540
I1
sS'begun'
p3541
I1
sS'year'
p3542
I1
sS'happen'
p3543
I1
sS'teams'
p3544
I1
sS'monitors'
p3545
I1
sS'plans'
p3546
I1
sS'shown'
p3547
I1
sS'opened'
p3548
I1
sS'space'
p3549
I1
sS'tensions'
p3550
I1
sS'oklahoma'
p3551
I1
sS'factory'
p3552
I1
sS'increase'
p3553
I1
sS'fargo'
p3554
I1
sS'receiving'
p3555
I1
sS'she'
p3556
I1
sS'rebuilding'
p3557
I1
sS'cary'
p3558
I1
sS'philharmonic'
p3559
I1
sS'cars'
p3560
I1
sS'adhikari'
p3561
I1
sS'ohio'
p3562
I1
sS'marine'
p3563
I1
sS'care'
p3564
I1
sS'impose'
p3565
I1
sS'british'
p3566
I1
sS'motion'
p3567
I1
sS'turn'
p3568
I1
sS'place'
p3569
I1
sS'discontinued'
p3570
I1
sS'origin'
p3571
I1
sS'merrill'
p3572
I1
sS'striking'
p3573
I1
sS'coming'
p3574
I1
sS'commissioners'
p3575
I1
sS'directly'
p3576
I1
sS'impossible'
p3577
I1
sS'message'
p3578
I1
sS'drove'
p3579
I1
sS'george'
p3580
I1
sS'size'
p3581
I1
sS'given'
p3582
I1
sS'silent'
p3583
I1
sS'district'
p3584
I1
sS'conservation'
p3585
I1
sS'convention'
p3586
I1
sS'desmond'
p3587
I1
sS'white'
p3588
I1
sS'friend'
p3589
I1
sS'nutrition'
p3590
I1
sS'mostly'
p3591
I1
sS'that'
p3592
I1
sS'pittsburgh'
p3593
I1
sS'season'
p3594
I1
sS'alan'
p3595
I1
sS'released'
p3596
I1
sS'hur'
p3597
I1
sS'copy'
p3598
I1
sS'than'
p3599
I1
sS'population'
p3600
I1
sS'wide'
p3601
I1
sS'television'
p3602
I1
sS'deployed'
p3603
I1
sS'looting'
p3604
I1
sS'emotive'
p3605
I1
sS'oats'
p3606
I1
sS'spokeswoman'
p3607
I1
sS'r'
p3608
I1
sS'fruits'
p3609
I1
sS'yugoslavia'
p3610
I1
sS'orwell'
p3611
I1
sS'published'
p3612
I1
sS'pre'
p3613
I1
sS'angioplasty'
p3614
I1
sS'remained'
p3615
I1
sS'smedvig'
p3616
I1
sS'greece'
p3617
I1
sS'reno'
p3618
I1
sS'crippling'
p3619
I1
sS'redford'
p3620
I1
sS'decapitated'
p3621
I1
sS'nominating'
p3622
I1
sS'any'
p3623
I1
sS'hydrogen'
p3624
I1
sS'offering'
p3625
I1
sS'undercurrent'
p3626
I1
sS'veteran'
p3627
I1
sS'mourners'
p3628
I1
sS'ideas'
p3629
I1
sS'equipment'
p3630
I1
sS'begin'
p3631
I1
sS'sure'
p3632
I1
sS'multiple'
p3633
I1
sS'tornado'
p3634
I1
sS'price'
p3635
I1
sS'dioxide'
p3636
I1
sS'falls'
p3637
I1
sS'celeste'
p3638
I1
sS'america'
p3639
I1
sS'littering'
p3640
I1
sS'considered'
p3641
I1
sS'later'
p3642
I1
sS'implications'
p3643
I1
sS'observances'
p3644
I1
sS'mrs'
p3645
I1
sS'ferraro'
p3646
I1
sS'nuclear'
p3647
I1
sS'senior'
p3648
I1
sS'typically'
p3649
I1
sS'german'
p3650
I1
sS'able'
p3651
I1
sS'cheap'
p3652
I1
sS'southwestern'
p3653
I1
sS'rounded'
p3654
I1
sS'excerpts'
p3655
I1
sS'fifth'
p3656
I1
sS'ground'
p3657
I1
sS'ratio'
p3658
I1
sS'gulf'
p3659
I1
sS'state'
p3660
I1
sS'only'
p3661
I1
sS'wood'
p3662
I1
sS'thompson'
p3663
I1
sS'cautioned'
p3664
I1
sS'fort'
p3665
I1
sS'occupied'
p3666
I1
sS'seljami'
p3667
I1
sS'cannon'
p3668
I1
sS'jazz'
p3669
I1
sS'truly'
p3670
I1
sS'cannot'
p3671
I1
sS'trade'
p3672
I1
sS'kika'
p3673
I1
sS'celebrate'
p3674
I1
sS'madhubani'
p3675
I1
sS'leather'
p3676
I1
sS'floods'
p3677
I1
sS'1822'
p3678
I1
sS'jokes'
p3679
I1
sS'paper'
p3680
I1
sS'predicted'
p3681
I1
sS'scott'
p3682
I1
sS'discussing'
p3683
I1
sS'beethoven'
p3684
I1
sS'concert'
p3685
I1
sS'attached'
p3686
I1
sS'fanned'
p3687
I1
sS'elected'
p3688
I1
sS'asleep'
p3689
I1
sS'existence'
p3690
I1
sS'angina'
p3691
I1
sS'stanley'
p3692
I1
sS'concern'
p3693
I1
sS'appear'
p3694
I1
sS'suffer'
p3695
I1
sS'herndon'
p3696
I1
sS'managing'
p3697
I1
sS'subsequent'
p3698
I1
sS'fascinated'
p3699
I1
sS'shiva'
p3700
I1
sS'3'
p3701
I1
sS'surfaced'
p3702
I1
sS'nicest'
p3703
I1
sS'arrival'
p3704
I1
sS'style'
p3705
I1
sS'blame'
p3706
I1
sS'27'
p3707
I1
sS'armenian'
p3708
I1
sS'article'
p3709
I1
sS'cities'
p3710
I1
sS'come'
p3711
I1
sS'stages'
p3712
I1
sS'talented'
p3713
I1
sS'region'
p3714
I1
sS'blinked'
p3715
I1
sS'contract'
p3716
I1
sS'prompted'
p3717
I1
sS'downtrodden'
p3718
I1
sS'senator'
p3719
I1
sS'comes'
p3720
I1
sS'nearby'
p3721
I1
sS'duty'
p3722
I1
sS'historians'
p3723
I1
sS'passenger'
p3724
I1
sS'bricks'
p3725
I1
sS'period'
p3726
I1
sS'pop'
p3727
I1
sS'60'
p3728
I1
sS'63'
p3729
I1
sS'jammed'
p3730
I1
sS'65'
p3731
I1
sS'66'
p3732
I1
sS'67'
p3733
I1
sS'proved'
p3734
I1
sS'save'
p3735
I1
sS'howard'
p3736
I1
sS'rebuild'
p3737
I1
sS'filmmakers'
p3738
I1
sS'tropical'
p3739
I1
sS'deposited'
p3740
I1
sS'507'
p3741
I1
sS'featuring'
p3742
I1
sS'orissa'
p3743
I1
sS'enraptured'
p3744
I1
sS'followup'
p3745
I1
sS'direction'
p3746
I1
sS'krone'
p3747
I1
sS'shortages'
p3748
I1
sS'observers'
p3749
I1
sS'andrei'
p3750
I1
sS'minister'
p3751
I1
sS'asks'
p3752
I1
sS'suspected'
p3753
I1
sS'case'
p3754
I1
sS'shaft'
p3755
I1
sS'henie'
p3756
I1
sS'these'
p3757
I1
sS'cast'
p3758
I1
sS'editorial'
p3759
I1
sS'invited'
p3760
I1
sS'slippers'
p3761
I1
sS'trenary'
p3762
I1
sS'telephone'
p3763
I1
sS'snaking'
p3764
I1
sS'commander'
p3765
I1
sS'canceled'
p3766
I1
sS'someone'
p3767
I1
sS'drug'
p3768
I1
sS'mcgregor'
p3769
I1
sS'northward'
p3770
I1
sS'develop'
p3771
I1
sS'author'
p3772
I1
sS'media'
p3773
I1
sS'delacroix'
p3774
I1
sS'expanded'
p3775
I1
sS'trip'
p3776
I1
sS'shifts'
p3777
I1
sS'angered'
p3778
I1
sS'manila'
p3779
I1
sS'document'
p3780
I1
sS'events'
p3781
I1
sS'week'
p3782
I1
sS'noble'
p3783
I1
sS'finish'
p3784
I1
sS'refusal'
p3785
I1
sS'barges'
p3786
I1
sS'director'
p3787
I1
sS'conductors'
p3788
I1
sS'statue'
p3789
I1
sS'tradition'
p3790
I1
sS'dying'
p3791
I1
sS'minimize'
p3792
I1
sS'recital'
p3793
I1
sS'severe'
p3794
I1
sS'without'
p3795
I1
sS'relief'
p3796
I1
sS'researchers'
p3797
I1
sS'sinner'
p3798
I1
sS'heaps'
p3799
I1
sS'livestock'
p3800
I1
sS'tip'
p3801
I1
sS'guided'
p3802
I1
sS'actions'
p3803
I1
sS'clot'
p3804
I1
sS'foot'
p3805
I1
sS'wrecks'
p3806
I1
sS'replanting'
p3807
I1
sS'topol'
p3808
I1
sS'polish'
p3809
I1
sS'speed'
p3810
I1
sS'blow'
p3811
I1
sS'renewed'
p3812
I1
sS'rose'
p3813
I1
sS'seems'
p3814
I1
sS'bloc'
p3815
I1
sS'treatment'
p3816
I1
sS'bourloti'
p3817
I1
sS'republic'
p3818
I1
sS'struck'
p3819
I1
sS'ross'
p3820
I1
sS'kingdom'
p3821
I1
sS'read'
p3822
I1
sS'cayman'
p3823
I1
sS'delhi'
p3824
I1
sS'virginia'
p3825
I1
sS'hiawatha'
p3826
I1
sS'early'
p3827
I1
sS'inflation'
p3828
I1
sS'using'
p3829
I1
sS'accepted'
p3830
I1
sS'mcdevitt'
p3831
I1
sS'pounds'
p3832
I1
sS'fairgrounds'
p3833
I1
sS'benefit'
p3834
I1
sS'donations'
p3835
I1
sS't'
p3836
I1
sS'output'
p3837
I1
sS'reduced'
p3838
I1
sS'pacific'
p3839
I1
sS'oscars'
p3840
I1
sS'boitano'
p3841
I1
sS'provided'
p3842
I1
sS'passions'
p3843
I1
sS'slice'
p3844
I1
sS'caribbean'
p3845
I1
sS'recorded'
p3846
I1
sS'legal'
p3847
I1
sS'moon'
p3848
I1
sS'depletion'
p3849
I1
sS'deficit'
p3850
I1
sS'provides'
p3851
I1
sS'wheat'
p3852
I1
sS'business'
p3853
I1
sS'sixth'
p3854
I1
sS'equivalent'
p3855
I1
sS'inspect'
p3856
I1
sS'1932'
p3857
I1
sS'1931'
p3858
I1
sS'1936'
p3859
I1
sS'hectic'
p3860
I1
sS'1934'
p3861
I1
sS'1938'
p3862
I1
sS'fondness'
p3863
I1
sS'on'
p3864
I1
sS'central'
p3865
I1
sS'oh'
p3866
I1
sS'jeep'
p3867
I1
sS'of'
p3868
I1
sS'discussed'
p3869
I1
sS'gregory'
p3870
I1
sS'or'
p3871
I1
sS'op'
p3872
I1
sS'amber'
p3873
I1
sS'outlook'
p3874
I1
sS'statuette'
p3875
I1
sS'revolutionaries'
p3876
I1
sS'variable'
p3877
I1
sS'accounts'
p3878
I1
sS'gary'
p3879
I1
sS'burton'
p3880
I1
sS'your'
p3881
I1
sS'intervention'
p3882
I1
sS'fast'
p3883
I1
sS'prepare'
p3884
I1
sS'area'
p3885
I1
sS'stoppage'
p3886
I1
sS'there'
p3887
I1
sS'hazards'
p3888
I1
sS'ponce'
p3889
I1
sS'start'
p3890
I1
sS'low'
p3891
I1
sS'lot'
p3892
I1
sS'valley'
p3893
I1
sS'fish'
p3894
I1
sS'treat'
p3895
I1
sS'jones'
p3896
I1
sS'750'
p3897
I1
sS'758'
p3898
I1
sS'cabinet'
p3899
I1
sS'curiously'
p3900
I1
sS'soprano'
p3901
I1
sS'pitched'
p3902
I1
sS'trying'
p3903
I1
sS'longer'
p3904
I1
sS'fraud'
p3905
I1
sS'155'
p3906
I1
sS'dominican'
p3907
I1
sS'circulation'
p3908
I1
sS'stanford'
p3909
I1
sS'louisiana'
p3910
I1
sS'grass'
p3911
I1
sS'builders'
p3912
I1
sS'chaplin'
p3913
I1
sS'600'
p3914
I1
sS'taste'
p3915
I1
sS'totaling'
p3916
I1
sS'moved'
p3917
I1
sS'sales'
p3918
I1
sS'aftershocks'
p3919
I1
sS'britain'
p3920
I1
sS'nero'
p3921
I1
sS'salvage'
p3922
I1
sS'conversely'
p3923
I1
sS'moves'
p3924
I1
sS'hospitals'
p3925
I1
sS'portland'
p3926
I1
sS'tanjug'
p3927
I1
sS'papathanassopoulos'
p3928
I1
sS'79'
p3929
I1
sS'administered'
p3930
I1
sS'nagorno'
p3931
I1
sS'foothills'
p3932
I1
sS'5'
p3933
I1
sS'katmandu'
p3934
I1
sS'you'
p3935
I1
sS'residence'
p3936
I1
sS'climatologist'
p3937
I1
sS'polar'
p3938
I1
sS'briefly'
p3939
I1
sS'championship'
p3940
I1
sS'may'
p3941
I1
sS'78'
p3942
I1
sS'separate'
p3943
I1
sS'time'
p3944
I1
sS'includes'
p3945
I1
sS'podium'
p3946
I1
sS'flattened'
p3947
I1
sS'massachusetts'
p3948
I1
sS'suited'
p3949
I1
sS'included'
p3950
I1
sS'torches'
p3951
I1
sS'stocks'
p3952
I1
sS'overturned'
p3953
I1
sS'building'
p3954
I1
sS'calls'
p3955
I1
sS'wife'
p3956
I1
sS'directors'
p3957
I1
sS'restored'
p3958
I1
sS'missouri'
p3959
I1
sS'repar'
p3960
I1
sS'overseas'
p3961
I1
sS'montego'
p3962
I1
sS'all'
p3963
I1
sS'since'
p3964
I1
sS'ali'
p3965
I1
sS'lack'
p3966
I1
sS'month'
p3967
I1
sS'unrest'
p3968
I1
sS'cardiologist'
p3969
I1
sS'smoking'
p3970
I1
sS'dish'
p3971
I1
sS'follow'
p3972
I1
sS'carpet'
p3973
I1
sS'apartment'
p3974
I1
sS'corps'
p3975
I1
sS'lining'
p3976
I1
sS'wyoming'
p3977
I1
sS'subsided'
p3978
I1
sS'thursday'
p3979
I1
sS'program'
p3980
I1
sS'present'
p3981
I1
sS'morgues'
p3982
I1
sS'health'
p3983
I1
sS'defuse'
p3984
I1
sS'traditionally'
p3985
I1
sS'activities'
p3986
I1
sS'woman'
p3987
I1
sS'shipment'
p3988
I1
sS'confidential'
p3989
I1
sS'very'
p3990
I1
sS'mph'
p3991
I1
sS'worst'
p3992
I1
sS'fao'
p3993
I1
sS'ticket'
p3994
I1
sS'vern'
p3995
I1
sS'katrzynska'
p3996
I1
sS'issue'
p3997
I1
sS'clinched'
p3998
I1
sS'list'
p3999
I1
sS'mild'
p4000
I1
sS'grandfather'
p4001
I1
sS'quipped'
p4002
I1
sS'tek'
p4003
I1
sS'ten'
p4004
I1
sS'streets'
p4005
I1
sS'battle'
p4006
I1
sS'milosevic'
p4007
I1
sS'what'
p4008
I1
sS'sub'
p4009
I1
sS'sun'
p4010
I1
sS'karna'
p4011
I1
sS'anniversary'
p4012
I1
sS'witnesses'
p4013
I1
sS'roofs'
p4014
I1
sS'learned'
p4015
I1
sS'racing'
p4016
I1
sS'certainly'
p4017
I1
sS'tracks'
p4018
I1
sS'strong'
p4019
I1
sS'tragedy'
p4020
I1
sS'colored'
p4021
I1
sS'losses'
p4022
I1
sS'allows'
p4023
I1
sS'miniature'
p4024
I1
sS'amount'
p4025
I1
sS'base'
p4026
I1
sS'advertising'
p4027
I1
sS'nesbitt'
p4028
I1
sS'real'
p4029
I1
sS'beatle'
p4030
I1
sS'point'
p4031
I1
sS'sticking'
p4032
I1
sS'flash'
p4033
I1
sS'family'
p4034
I1
sS'put'
p4035
I1
sS'florence'
p4036
I1
sS'spawned'
p4037
I1
sS've'
p4038
I1
sS'takes'
p4039
I1
sS'injure'
p4040
I1
sS'revelation'
p4041
I1
sS'epicenter'
p4042
I1
sS'taken'
p4043
I1
sS'branded'
p4044
I1
sS'lowering'
p4045
I1
sS'israel'
p4046
I1
sS'seismograph'
p4047
I1
sS'erode'
p4048
I1
sS'site'
p4049
I1
sS'flag'
p4050
I1
sS'garza'
p4051
I1
sS'stick'
p4052
I1
sS'broke'
p4053
I1
sS'known'
p4054
I1
sS'factories'
p4055
I1
sS'saharan'
p4056
I1
sS'debated'
p4057
I1
sS'nebraska'
p4058
I1
sS'nine'
p4059
I1
sS'v'
p4060
I1
sS'unfairness'
p4061
I1
sS'dissolvers'
p4062
I1
sS'history'
p4063
I1
sS'chadrasekhar'
p4064
I1
sS'division'
p4065
I1
sS'749'
p4066
I1
sS'locating'
p4067
I1
sS'abandonment'
p4068
I1
sS'drier'
p4069
I1
sS'pushed'
p4070
I1
sS'cows'
p4071
I1
sS'phrase'
p4072
I1
sS'lacks'
p4073
I1
sS'hamburgers'
p4074
I1
sS'answer'
p4075
I1
sS'court'
p4076
I1
sS'breaking'
p4077
I1
sS'stayed'
p4078
I1
sS'hampered'
p4079
I1
sS'shrouds'
p4080
I1
sS'speeding'
p4081
I1
sS'activator'
p4082
I1
sS'idaho'
p4083
I1
sS'portray'
p4084
I1
sS'tried'
p4085
I1
sS'compulsory'
p4086
I1
sS'a'
p4087
I1
sS'dissolving'
p4088
I1
sS'short'
p4089
I1
sS'marich'
p4090
I1
sS'marlon'
p4091
I1
sS'overnight'
p4092
I1
sS'shore'
p4093
I1
sS'ego'
p4094
I1
sS'banks'
p4095
I1
sS'dream'
p4096
I1
sS'began'
p4097
I1
sS'knots'
p4098
I1
sS'remnants'
p4099
I1
sS'help'
p4100
I1
sS'gauges'
p4101
I1
sS'september'
p4102
I1
sS'developed'
p4103
I1
sS'advised'
p4104
I1
sS'soon'
p4105
I1
sS'held'
p4106
I1
sS'scientist'
p4107
I1
sS'committee'
p4108
I1
sS'staunch'
p4109
I1
sS'inquiries'
p4110
I1
sS'fanning'
p4111
I1
sS'pray'
p4112
I1
sS'fined'
p4113
I1
sS'fairbanks'
p4114
I1
sS'actually'
p4115
I1
sS'resort'
p4116
I1
sS'absence'
p4117
I1
sS'systems'
p4118
I1
sS'might'
p4119
I1
sS'fool'
p4120
I1
sS'wouldn'
p4121
I1
sS'evening'
p4122
I1
sS'return'
p4123
I1
sS'food'
p4124
I1
sS'bernetta'
p4125
I1
sS'largest'
p4126
I1
sS'communities'
p4127
I1
sS'instructions'
p4128
I1
sS'growing'
p4129
I1
sS'hyanju'
p4130
I1
sS'imprisoned'
p4131
I1
sS'occasions'
p4132
I1
sS'level'
p4133
I1
sS'fairs'
p4134
I1
sS'jefferson'
p4135
I1
sS'12th'
p4136
I1
sS'referred'
p4137
I1
sS'heavy'
p4138
I1
sS'tilted'
p4139
I1
sS'gennady'
p4140
I1
sS'jaws'
p4141
I1
sS'exclusiveness'
p4142
I1
sS'gifford'
p4143
I1
sS'brother'
p4144
I1
sS'expect'
p4145
I1
sS'beyond'
p4146
I1
sS'event'
p4147
I1
sS'alcohol'
p4148
I1
sS'robert'
p4149
I1
sS'surrounded'
p4150
I1
sS'douglas'
p4151
I1
sS'safety'
p4152
I1
sS'hill'
p4153
I1
sS'7'
p4154
I1
sS'shrivel'
p4155
I1
sS'benjamin'
p4156
I1
sS'wisconsin'
p4157
I1
sS'favored'
p4158
I1
sS'friday'
p4159
I1
sS'hepburn'
p4160
I1
sS'houses'
p4161
I1
sS'heroin'
p4162
I1
sS'ask'
p4163
I1
sS'teach'
p4164
I1
sS'gurkha'
p4165
I1
sS'bash'
p4166
I1
sS'koshi'
p4167
I1
sS'andrzej'
p4168
I1
sS'uprooted'
p4169
I1
sS'launch'
p4170
I1
sS'alluded'
p4171
I1
sS'cheering'
p4172
I1
sS'american'
p4173
I1
sS'threat'
p4174
I1
sS'fallen'
p4175
I1
sS'bushel'
p4176
I1
sS'feed'
p4177
I1
sS'probability'
p4178
I1
sS'upper'
p4179
I1
sS'feel'
p4180
I1
sS'pests'
p4181
I1
sS'feet'
p4182
I1
sS'sympathy'
p4183
I1
sS'revolution'
p4184
I1
sS'speedometer'
p4185
I1
sS'temples'
p4186
I1
sS'story'
p4187
I1
sS'temperature'
p4188
I1
sS'script'
p4189
I1
sS'leading'
p4190
I1
sS'station'
p4191
I1
sS'passed'
p4192
I1
sS'hundred'
p4193
I1
sS'recovered'
p4194
I1
sS'statement'
p4195
I1
sS'trapped'
p4196
I1
sS'morcinek'
p4197
I1
sS'hotel'
p4198
I1
sS'treasurer'
p4199
I1
sS'niranjan'
p4200
I1
sS'authors'
p4201
I1
sS'1911'
p4202
I1
sS'dmitrievich'
p4203
I1
sS'inaugurated'
p4204
I1
sS'king'
p4205
I1
sS'kind'
p4206
I1
sS'grew'
p4207
I1
sS'houghton'
p4208
I1
sS'kindly'
p4209
I1
sS'performers'
p4210
I1
sS'double'
p4211
I1
sS'alluding'
p4212
I1
sS'greg'
p4213
I1
sS'bobsled'
p4214
I1
sS'kindle'
p4215
I1
sS'toward'
p4216
I1
sS'ousted'
p4217
I1
sS'charlotte'
p4218
I1
sS'outstanding'
p4219
I1
sS'strengthen'
p4220
I1
sS'heaviest'
p4221
I1
sS'kara'
p4222
I1
sS'perestroika'
p4223
I1
sS'alike'
p4224
I1
sS'nights'
p4225
I1
sS'rochester'
p4226
I1
sS'superior'
p4227
I1
sS'interferes'
p4228
I1
sS'officers'
p4229
I1
sS'lit'
p4230
I1
sS'chairman'
p4231
I1
sS'finding'
p4232
I1
sS'added'
p4233
I1
sS'macs'
p4234
I1
sS'warnings'
p4235
I1
sS'intervened'
p4236
I1
sS'quote'
p4237
I1
sS'measures'
p4238
I1
sS'reach'
p4239
I1
sS'quota'
p4240
I1
sS'75'
p4241
I1
sS'hired'
p4242
I1
sS'sponsored'
p4243
I1
sS'72'
p4244
I1
sS'71'
p4245
I1
sS'70'
p4246
I1
sS'nothing'
p4247
I1
sS'measured'
p4248
I1
sS'soared'
p4249
I1
sS'stands'
p4250
I1
sS'salary'
p4251
I1
sS'muscle'
p4252
I1
sS'dissolver'
p4253
I1
sS'elroy'
p4254
I1
sS'chronicle'
p4255
I1
sS'mobile'
p4256
I1
sS'performances'
p4257
I1
sS'clear'
p4258
I1
sS'hindrance'
p4259
I1
sS'latest'
p4260
I1
sS'guesthouses'
p4261
I1
sS'phenomenon'
p4262
I1
sS'celebrities'
p4263
I1
sS'northern'
p4264
I1
sS'flights'
p4265
I1
sS'surveyed'
p4266
I1
sS'shepherd'
p4267
I1
sS'his'
p4268
I1
sS'hit'
p4269
I1
sS'gains'
p4270
I1
sS'meanwhile'
p4271
I1
sS'compiled'
p4272
I1
sS'trees'
p4273
I1
sS'famous'
p4274
I1
sg52
I1
sS'longest'
p4275
I1
sS'during'
p4276
I1
sS'him'
p4277
I1
sS'budapest'
p4278
I1
sS'querying'
p4279
I1
sS'recommendations'
p4280
I1
sS'switzerland'
p4281
I1
sS'wrote'
p4282
I1
sS'art'
p4283
I1
sS'maurice'
p4284
I1
sS'principal'
p4285
I1
sS'declines'
p4286
I1
sS'culture'
p4287
I1
sS'engineers'
p4288
I1
sS'are'
p4289
I1
sS'laurel'
p4290
I1
sS'portrait'
p4291
I1
sS'ark'
p4292
I1
sS'declined'
p4293
I1
sS'barn'
p4294
I1
sS'threats'
p4295
I1
sS'pictures'
p4296
I1
sS'slapped'
p4297
I1
sS'tolls'
p4298
I1
sS'won'
p4299
I1
sS'various'
p4300
I1
sS'probably'
p4301
I1
sS'ships'
p4302
I1
sS'numerous'
p4303
I1
sS'korea'
p4304
I1
sS'recently'
p4305
I1
sS'creating'
p4306
I1
sS'missing'
p4307
I1
sS'sold'
p4308
I1
sS'attention'
p4309
I1
sS'york'
p4310
I1
sS'penchant'
p4311
I1
sS'opposition'
p4312
I1
sS'rudra'
p4313
I1
sS'bronze'
p4314
I1
sS'standiford'
p4315
I1
sS'c'
p4316
I1
sS'sensitive'
p4317
I1
sS'became'
p4318
I1
sS'liked'
p4319
I1
sS'cleaner'
p4320
I1
sS'reasons'
p4321
I1
sS'sweep'
p4322
I1
sS'regulated'
p4323
I1
sS'village'
p4324
I1
sS'vessel'
p4325
I1
sS'katarzyna'
p4326
I1
sS'decline'
p4327
I1
sS'described'
p4328
I1
sS'political'
p4329
I1
sS'due'
p4330
I1
sS'strategy'
p4331
I1
sS'whom'
p4332
I1
sS'reduction'
p4333
I1
sS'pa'
p4334
I1
sS'coarse'
p4335
I1
sS'clinical'
p4336
I1
sS'brick'
p4337
I1
sS'territory'
p4338
I1
sS'walter'
p4339
I1
sS'lived'
p4340
I1
sS'1950s'
p4341
I1
sS'firefighters'
p4342
I1
sS'citizen'
p4343
I1
sS'else'
p4344
I1
sS'lives'
p4345
I1
sS'demand'
p4346
I1
sS'surveys'
p4347
I1
sS'pact'
p4348
I1
sS'georgia'
p4349
I1
sS'look'
p4350
I1
sS'frozen'
p4351
I1
sS'pace'
p4352
I1
sS'while'
p4353
I1
sS'shift'
p4354
I1
sS'loot'
p4355
I1
sS'richter'
p4356
I1
sS'gala'
p4357
I1
sS'shortened'
p4358
I1
sS'studied'
p4359
I1
sS'blond'
p4360
I1
sS'overlooked'
p4361
I1
sS'disappointing'
p4362
I1
sS'loosened'
p4363
I1
sS'ready'
p4364
I1
sS'currents'
p4365
I1
sS'seismographs'
p4366
I1
sS'makeshift'
p4367
I1
sS'widely'
p4368
I1
sS'grand'
p4369
I1
sS'9'
p4370
I1
sS'conflict'
p4371
I1
sS'higher'
p4372
I1
sS'indianapolis'
p4373
I1
sS'lawyers'
p4374
I1
sS'blair'
p4375
I1
sS'huston'
p4376
I1
sS'cement'
p4377
I1
sS'flown'
p4378
I1
sS'moving'
p4379
I1
sS'birch'
p4380
I1
sS'lower'
p4381
I1
sS'chronicled'
p4382
I1
sS'older'
p4383
I1
sS'poland'
p4384
I1
sS'depending'
p4385
I1
sS'chickens'
p4386
I1
sS'haul'
p4387
I1
sS'analysis'
p4388
I1
sS'obviously'
p4389
I1
sS'corinne'
p4390
I1
sS'machinery'
p4391
I1
sS'calcutta'
p4392
I1
sS'albertville'
p4393
I1
sS'ambassador'
p4394
I1
sS'onoda'
p4395
I1
sS'762'
p4396
I1
sS'technicians'
p4397
I1
sS'questions'
p4398
I1
sS'prince'
p4399
I1
sS'tables'
p4400
I1
sS'unsettling'
p4401
I1
sS'loading'
p4402
I1
sS'tablet'
p4403
I1
sS'majority'
p4404
I1
sS'workers'
p4405
I1
sS'questioned'
p4406
I1
sS'violations'
p4407
I1
sS'vetoing'
p4408
I1
sS'remaining'
p4409
I1
sS'customers'
p4410
I1
sS'march'
p4411
I1
sS'showing'
p4412
I1
sS'advocate'
p4413
I1
sS'sightings'
p4414
I1
sS'skeptical'
p4415
I1
sS'success'
p4416
I1
sS'bhaktapur'
p4417
I1
sS'strife'
p4418
I1
sS'collect'
p4419
I1
sS'arthur'
p4420
I1
sS'unstable'
p4421
I1
sS'popular'
p4422
I1
sS'essential'
p4423
I1
sS'bettyjean'
p4424
I1
sS'creation'
p4425
I1
sS'arrived'
p4426
I1
sS'separated'
p4427
I1
sS'urgent'
p4428
I1
sS'trends'
p4429
I1
sS'economic'
p4430
I1
sS'saddler'
p4431
I1
sS'delivered'
p4432
I1
sS'dabal'
p4433
I1
sS'describing'
p4434
I1
sS'vacationer'
p4435
I1
sS'alfred'
p4436
I1
sS'goldman'
p4437
I1
sS'prod'
p4438
I1
sS'minimal'
p4439
I1
sS'sympathetic'
p4440
I1
sS'run'
p4441
I1
sS'lakes'
p4442
I1
sS'withdrawals'
p4443
I1
sS'step'
p4444
I1
sS'abroad'
p4445
I1
sS'capsized'
p4446
I1
sS'faith'
p4447
I1
sS'cautious'
p4448
I1
sS'stricken'
p4449
I1
sS'range'
p4450
I1
sS'congressman'
p4451
I1
sS'dwight'
p4452
I1
sS'youthful'
p4453
I1
sS'plan'
p4454
I1
sS'miracles'
p4455
I1
sS'eaten'
p4456
I1
sS'within'
p4457
I1
sS'exceed'
p4458
I1
sS'inventories'
p4459
I1
sS'rows'
p4460
I1
sS'bangladesh'
p4461
I1
sS'dukak'
p4462
I1
sS'signifies'
p4463
I1
sS'accountability'
p4464
I1
sS'cabral'
p4465
I1
sS'summertime'
p4466
I1
sS'spawning'
p4467
I1
sS'sections'
p4468
I1
sS'980'
p4469
I1
sS'mountains'
p4470
I1
sS'himself'
p4471
I1
sS'collapsed'
p4472
I1
sS'authority'
p4473
I1
sS'filed'
p4474
I1
sS'russian'
p4475
I1
sS'predrag'
p4476
I1
sS'collapses'
p4477
I1
sS'raising'
p4478
I1
sS'forefather'
p4479
I1
sS'fries'
p4480
I1
sS'barring'
p4481
I1
sS'windows'
p4482
I1
sS'accustomed'
p4483
I1
sS'highlight'
p4484
I1
sS'similar'
p4485
I1
sS'called'
p4486
I1
sS'ordered'
p4487
I1
sS'rios'
p4488
I1
sS'entrance'
p4489
I1
sS'doesn'
p4490
I1
sS'associates'
p4491
I1
sS'reservoirs'
p4492
I1
sS'rally'
p4493
I1
sS'cotton'
p4494
I1
sS'amounts'
p4495
I1
sS'peace'
p4496
I1
sS'fears'
p4497
I1
sS'politicians'
p4498
I1
sS'electrical'
p4499
I1
sS'income'
p4500
I1
sS'department'
p4501
I1
sS'absentia'
p4502
I1
sS'nice'
p4503
I1
sS'draw'
p4504
I1
sS'reportedly'
p4505
I1
sS'kansas'
p4506
I1
sS'problems'
p4507
I1
sS'helping'
p4508
I1
sS'meaning'
p4509
I1
sS'seiji'
p4510
I1
sS'ky'
p4511
I1
sS'seismologist'
p4512
I1
sS'e'
p4513
I1
sS'vice'
p4514
I1
sS'navy'
p4515
I1
sS'ozawa'
p4516
I1
sS'bulletin'
p4517
I1
sS'depth'
p4518
I1
sS'vocally'
p4519
I1
sS'once'
p4520
I1
sS'issued'
p4521
I1
sS'resistance'
p4522
I1
sS'farms'
p4523
I1
sS'edt'
p4524
I1
sS'winds'
p4525
I1
sS'particularly'
p4526
I1
sS'gamefish'
p4527
I1
sS'issues'
p4528
I1
sS'ariz'
p4529
I1
sS'does'
p4530
I1
sS'breach'
p4531
I1
sS'include'
p4532
I1
sS'fences'
p4533
I1
sS'dramatically'
p4534
I1
sS'719'
p4535
I1
sS'miners'
p4536
I1
sS'wave'
p4537
I1
sS'sensation'
p4538
I1
sS'renoir'
p4539
I1
sS'lengthwise'
p4540
I1
sS'rattling'
p4541
I1
sS'telling'
p4542
I1
sS'sheds'
p4543
I1
sS'drinking'
p4544
I1
sS'tutu'
p4545
I1
sS'bryant'
p4546
I1
sS'quayle'
p4547
I1
sS'meant'
p4548
I1
sS'leveled'
p4549
I1
sS'michael'
p4550
I1
sS'kaddish'
p4551
I1
sS'barbara'
p4552
I1
sS'noted'
p4553
I1
sS'concluded'
p4554
I1
sS'ocho'
p4555
I1
sS'concludes'
p4556
I1
sS'clotting'
p4557
I1
sS'folk'
p4558
I1
sS'medieval'
p4559
I1
sS'flagship'
p4560
I1
sS'paintings'
p4561
I1
sS'slight'
p4562
I1
sS'judy'
p4563
I1
sS'waiting'
p4564
I1
sS'capital'
p4565
I1
sS'ammunition'
p4566
I1
sS'unruly'
p4567
I1
sS'chose'
p4568
I1
sS'degree'
p4569
I1
sS'delfzijl'
p4570
I1
sS'prescribe'
p4571
I1
sS'youngest'
p4572
I1
sS'following'
p4573
I1
sS'focused'
p4574
I1
sS'engraving'
p4575
I1
sS'likened'
p4576
I1
sS'survivor'
p4577
I1
sS'withdrawing'
p4578
I1
sS'larger'
p4579
I1
sS'daunted'
p4580
I1
sS'leaving'
p4581
I1
sS'suggests'
p4582
I1
sS'products'
p4583
I1
sS'submerged'
p4584
I1
sS'chand'
p4585
I1
sS'gene'
p4586
I1
sS'daybreak'
p4587
I1
sS'stabilization'
p4588
I1
sS'deputy'
p4589
I1
sS'win'
p4590
I1
sS'addressed'
p4591
I1
sS'motor'
p4592
I1
sS'buildup'
p4593
I1
sS'truckloads'
p4594
I1
sS'cloud'
p4595
I1
sS'use'
p4596
I1
sS'lottery'
p4597
I1
sS'usa'
p4598
I1
sS'remains'
p4599
I1
sS'hudson'
p4600
I1
sS'few'
p4601
I1
sS'depicted'
p4602
I1
sS'camera'
p4603
I1
sS'bitterly'
p4604
I1
sS'consecutive'
p4605
I1
sS'parliament'
p4606
I1
sS'formally'
p4607
I1
sS'started'
p4608
I1
sS'70th'
p4609
I1
sS'charming'
p4610
I1
sS'deflect'
p4611
I1
sS'silesia'
p4612
I1
sS'women'
p4613
I1
sS'averaged'
p4614
I1
sS'ashcroft'
p4615
I1
sS'arches'
p4616
I1
sS'anywhere'
p4617
I1
sS'meet'
p4618
I1
sS'dissolve'
p4619
I1
sS'dropped'
p4620
I1
sS'control'
p4621
I1
sS'tap'
p4622
I1
sS'ushers'
p4623
I1
sS'inaccessible'
p4624
I1
sS'tax'
p4625
I1
sS'escaped'
p4626
I1
sS'urged'
p4627
I1
sS'sought'
p4628
I1
sS'founding'
p4629
I1
sS'onions'
p4630
I1
sS'summers'
p4631
I1
sS'united'
p4632
I1
sS'orson'
p4633
I1
sS'defective'
p4634
I1
sS'sit'
p4635
I1
sS'lubitsch'
p4636
I1
sS'six'
p4637
I1
sS'traders'
p4638
I1
sS'brian'
p4639
I1
sS'goldsmith'
p4640
I1
sS'panic'
p4641
I1
sS'fare'
p4642
I1
sS'administrator'
p4643
I1
sS'attend'
p4644
I1
sS'farm'
p4645
I1
sS'thunderstorm'
p4646
I1
sS'barricades'
p4647
I1
sS'records'
p4648
I1
sS'ethnic'
p4649
I1
sS'manhattan'
p4650
I1
sS'reneged'
p4651
I1
sS'tenure'
p4652
I1
sS'necklace'
p4653
I1
sS'fastest'
p4654
I1
sS'poor'
p4655
I1
sS'stamped'
p4656
I1
sS'reporters'
p4657
I1
sS'131'
p4658
I1
sS'130'
p4659
I1
sS'137'
p4660
I1
sS'looks'
p4661
I1
sS'quake'
p4662
I1
sS'mentioned'
p4663
I1
sS'138'
p4664
I1
sS'glen'
p4665
I1
sS'helicopters'
p4666
I1
sS'pecent'
p4667
I1
sS'masses'
p4668
I1
sS'lithuania'
p4669
I1
sS'housewife'
p4670
I1
sS'madre'
p4671
I1
sS'restrain'
p4672
I1
sS'button'
p4673
I1
sS'crowds'
p4674
I1
sS'contention'
p4675
I1
sS'orthodox'
p4676
I1
sS'flour'
p4677
I1
sS'practice'
p4678
I1
sS'discloses'
p4679
I1
sS'catches'
p4680
I1
sS'flew'
p4681
I1
sS'gwyneth'
p4682
I1
sS'sweets'
p4683
I1
sS'hands'
p4684
I1
sS'neale'
p4685
I1
sS'republican'
p4686
I1
sS'handy'
p4687
I1
sS'successor'
p4688
I1
sS'landings'
p4689
I1
sS'auto'
p4690
I1
sS'university'
p4691
I1
sS'subcontinent'
p4692
I1
sS'billy'
p4693
I1
sS'magnitude'
p4694
I1
sS'trap'
p4695
I1
sS'deteriorate'
p4696
I1
sS'studios'
p4697
I1
sS'704'
p4698
I1
sS'globe'
p4699
I1
sS'700'
p4700
I1
sS'related'
p4701
I1
sS'88'
p4702
I1
sS'89'
p4703
I1
sS'measure'
p4704
I1
sS'manley'
p4705
I1
sS'our'
p4706
I1
sS'80'
p4707
I1
sS'87'
p4708
I1
sS'special'
p4709
I1
sS'out'
p4710
I1
sS'category'
p4711
I1
sS'butch'
p4712
I1
sS'140'
p4713
I1
sS'mcmahon'
p4714
I1
sS'actor'
p4715
I1
sS'activism'
p4716
I1
sS'werden'
p4717
I1
sS'activist'
p4718
I1
sS'cause'
p4719
I1
sS'achievements'
p4720
I1
sS'maize'
p4721
I1
sS'rites'
p4722
I1
sS'mississippi'
p4723
I1
sS'undo'
p4724
I1
sS'attending'
p4725
I1
sS'jill'
p4726
I1
sS'amato'
p4727
I1
sS'conservatives'
p4728
I1
sS'van'
p4729
I1
sS'princess'
p4730
I1
sS'g'
p4731
I1
sS'barns'
p4732
I1
sS'1981'
p4733
I1
sS'times'
p4734
I1
sS'stride'
p4735
I1
sS'birthday'
p4736
I1
sS'acres'
p4737
I1
sS'restaurants'
p4738
I1
sS'housing'
p4739
I1
sS'upadhyaya'
p4740
I1
sS'evans'
p4741
I1
sS'powerful'
p4742
I1
sS'echo'
p4743
I1
sS'improving'
p4744
I1
sS'bonner'
p4745
I1
sS'awarded'
p4746
I1
sS'quality'
p4747
I1
sS'umbrellas'
p4748
I1
sS'management'
p4749
I1
sS'privacy'
p4750
I1
sS'relations'
p4751
I1
sS'their'
p4752
I1
sS'attack'
p4753
I1
sS'650'
p4754
I1
sS'wrapped'
p4755
I1
sS'wilkinson'
p4756
I1
sS'tourists'
p4757
I1
sS'activists'
p4758
I1
sS'wendell'
p4759
I1
sS'earmarked'
p4760
I1
sS'slides'
p4761
I1
sS'july'
p4762
I1
sS'policeman'
p4763
I1
sS'institution'
p4764
I1
sS'ben'
p4765
I1
sS'see'
p4766
I1
sS'bed'
p4767
I1
sS'tommy'
p4768
I1
sS'frugal'
p4769
I1
sS'patients'
p4770
I1
sS'defense'
p4771
I1
sS'providing'
p4772
I1
sS'distinguished'
p4773
I1
sS'unchanged'
p4774
I1
sS'westward'
p4775
I1
sS'bizet'
p4776
I1
sS'alerted'
p4777
I1
sS'activites'
p4778
I1
sS'close'
p4779
I1
sS'need'
p4780
I1
sS'border'
p4781
I1
sS'alfonse'
p4782
I1
sS'afraid'
p4783
I1
sS'rosier'
p4784
I1
sS'cranes'
p4785
I1
sS'agency'
p4786
I1
sS'seaga'
p4787
I1
sS'admittance'
p4788
I1
sS'zenani'
p4789
I1
sS'relatives'
p4790
I1
sS'which'
p4791
I1
sS'battled'
p4792
I1
sS'singh'
p4793
I1
sS'martha'
p4794
I1
sS'divers'
p4795
I1
sS'medals'
p4796
I1
sS'lugar'
p4797
I1
sS'fuels'
p4798
I1
sS'duels'
p4799
I1
sS'storm'
p4800
I1
sS'combat'
p4801
I1
sS'enveloped'
p4802
I1
sS'swollen'
p4803
I1
sS'montana'
p4804
I1
sS'but'
p4805
I1
sS'cracking'
p4806
I1
sS'future'
p4807
I1
sS'why'
p4808
I1
sS'academy'
p4809
I1
sS'neighboring'
p4810
I1
sS'visiting'
p4811
I1
sS'looked'
p4812
I1
sS'serge'
p4813
I1
sS'narpatnagar'
p4814
I1
sS'affair'
p4815
I1
sS'chances'
p4816
I1
sS'agreed'
p4817
I1
sS'sent'
p4818
I1
sS'anyway'
p4819
I1
sS'edgar'
p4820
I1
sS'planning'
p4821
I1
sS'parked'
p4822
I1
sS'soldiers'
p4823
I1
sS'debate'
p4824
I1
sS'highest'
p4825
I1
sS'based'
p4826
I1
sS'memphis'
p4827
I1
sS'leanings'
p4828
I1
sS'madhav'
p4829
I1
sS'rash'
p4830
I1
sS'mahendra'
p4831
I1
sS'bases'
p4832
I1
sS'neared'
p4833
I1
sS'employee'
p4834
I1
sS'thousands'
p4835
I1
sS'achieve'
p4836
I1
sS'vigor'
p4837
I1
sS'sued'
p4838
I1
sS'watching'
p4839
I1
sS'michigan'
p4840
I1
sS'massacre'
p4841
I1
sS'overall'
p4842
I1
sS'mgm'
p4843
I1
sS'joint'
p4844
I1
sS'ones'
p4845
I1
sS'125'
p4846
I1
sS'words'
p4847
I1
sS'127'
p4848
I1
sS'parlance'
p4849
I1
sS'tobacco'
p4850
I1
sS'colo'
p4851
I1
sS'conditions'
p4852
I1
sS'married'
p4853
I1
sS'westminister'
p4854
I1
sS'overflowing'
p4855
I1
sS'flit'
p4856
I1
sS'generations'
p4857
I1
sS'view'
p4858
I1
sS'rafts'
p4859
I1
sS'j'
p4860
I1
sS'aegean'
p4861
I1
sS'officials'
p4862
I1
sS'merits'
p4863
I1
sS'statistically'
p4864
I1
sS'welles'
p4865
I1
sS'puts'
p4866
I1
sS'televised'
p4867
I1
sS'nightmare'
p4868
I1
sS'droughts'
p4869
I1
sS'written'
p4870
I1
sS'closed'
p4871
I1
sS'crude'
p4872
I1
sS'neither'
p4873
I1
sS'tent'
p4874
I1
sS'ken'
p4875
I1
sS'weighing'
p4876
I1
sS'ability'
p4877
I1
sS'opening'
p4878
I1
sS'rescuers'
p4879
I1
sS'agencies'
p4880
I1
sS'hendrickson'
p4881
I1
sS'job'
p4882
I1
sS'joe'
p4883
I1
sS'approval'
p4884
I1
sS'swift'
p4885
I1
sS'pilgrims'
p4886
I1
sS'declining'
p4887
I1
sS'monitor'
p4888
I1
sS'limits'
p4889
I1
sS'aircraft'
p4890
I1
sS'april'
p4891
I1
sS'grain'
p4892
I1
sS'constantine'
p4893
I1
sS'clogged'
p4894
I1
sS'safely'
p4895
I1
sS'jersey'
p4896
I1
sS'grounds'
p4897
I1
sS'tuesday'
p4898
I1
sS'supreme'
p4899
I1
sS'walk'
p4900
I1
sS'walt'
p4901
I1
sS'preparedness'
p4902
I1
sS'adding'
p4903
I1
sS'oppegard'
p4904
I1
sS'table'
p4905
I1
sS'pulmonary'
p4906
I1
sS'erased'
p4907
I1
sS'provinces'
p4908
I1
sS'industrials'
p4909
I1
sS'addition'
p4910
I1
sS'hindu'
p4911
I1
sS'pio'
p4912
I1
sS'731'
p4913
I1
sS'agreements'
p4914
I1
sS'circus'
p4915
I1
sS'controlled'
p4916
I1
sS'both'
p4917
I1
sS'painted'
p4918
I1
sS'sufficient'
p4919
I1
sS'nominations'
p4920
I1
sS'mail'
p4921
I1
sS'ottinger'
p4922
I1
sS'last'
p4923
I1
sS'painter'
p4924
I1
sS'troubled'
p4925
I1
sS'harder'
p4926
I1
sS'choices'
p4927
I1
sS'will'
p4928
I1
sS'sakharovs'
p4929
I1
sS'coddled'
p4930
I1
sS'bir'
p4931
I1
sS'ringing'
p4932
I1
sS'resident'
p4933
I1
sS'thus'
p4934
I1
sS'examined'
p4935
I1
sS'swinging'
p4936
I1
sS'foreign'
p4937
I1
sS'tucked'
p4938
I1
sS'perhaps'
p4939
I1
sS'seoul'
p4940
I1
sS'civilian'
p4941
I1
sS'cross'
p4942
I1
sS'campus'
p4943
I1
sS'member'
p4944
I1
sS'unity'
p4945
I1
sS'parts'
p4946
I1
sS'speaker'
p4947
I1
sS'northwest'
p4948
I1
sS'incumbent'
p4949
I1
sS'enclave'
p4950
I1
sS'inch'
p4951
I1
sS'party'
p4952
I1
sS'gets'
p4953
I1
sS'difficult'
p4954
I1
sS'caymans'
p4955
I1
sS'hardliner'
p4956
I1
sS'appearances'
p4957
I1
sS'effect'
p4958
I1
sS'overcrowded'
p4959
I1
sS'student'
p4960
I1
sS'fierce'
p4961
I1
sS'lobby'
p4962
I1
sS'warming'
p4963
I1
sS'destruction'
p4964
I1
sS'poultry'
p4965
I1
sS'correspondent'
p4966
I1
sS'lunch'
p4967
I1
sS'i'
p4968
I1
sS'obstacles'
p4969
I1
sS'well'
p4970
I1
sS'amends'
p4971
I1
sS'english'
p4972
I1
sS'routinely'
p4973
I1
sS'heavily'
p4974
I1
sS'increasingly'
p4975
I1
sS'half'
p4976
I1
sS'embankments'
p4977
I1
sS'dose'
p4978
I1
sS'sources'
p4979
I1
sS'distant'
p4980
I1
sS'biologist'
p4981
I1
sS'lauren'
p4982
I1
sS'spells'
p4983
I1
sS'rapid'
p4984
I1
sS'console'
p4985
I1
sS'headed'
p4986
I1
sS'smith'
p4987
I1
sS'patricia'
p4988
I1
sS'knew'
p4989
I1
sS'other'
p4990
I1
sS'attractive'
p4991
I1
sS'usage'
p4992
I1
sS'balloons'
p4993
I1
sS'earthquakes'
p4994
I1
sS'details'
p4995
I1
sS'minnetonka'
p4996
I1
sS'definitive'
p4997
I1
sS'patnaik'
p4998
I1
sS'finch'
p4999
I1
sS'utah'
p5000
I1
sS'crushed'
p5001
I1
sS'republics'
p5002
I1
sS'fats'
p5003
I1
sS'historic'
p5004
I1
sS'know'
p5005
I1
sS'press'
p5006
I1
sS'immediately'
p5007
I1
sS'prominent'
p5008
I1
sS'loss'
p5009
I1
sS'necessary'
p5010
I1
sS'lost'
p5011
I1
sS'miami'
p5012
I1
sS'candy'
p5013
I1
sS'servant'
p5014
I1
sS'payments'
p5015
I1
sS'martin'
p5016
I1
sS'simply'
p5017
I1
sS'page'
p5018
I1
sS'trucked'
p5019
I1
sS'shed'
p5020
I1
sS'because'
p5021
I1
sS'sleight'
p5022
I1
sS'belonged'
p5023
I1
sS'flagrant'
p5024
I1
sS'library'
p5025
I1
sS'self'
p5026
I1
sS'115'
p5027
I1
sS'114'
p5028
I1
sS'111'
p5029
I1
sS'110'
p5030
I1
sS'113'
p5031
I1
sS'cleveland'
p5032
I1
sS'home'
p5033
I1
sS'empire'
p5034
I1
sS'peter'
p5035
I1
sS'employment'
p5036
I1
sS'throughout'
p5037
I1
sS'toppled'
p5038
I1
sS'lead'
p5039
I1
sS'broad'
p5040
I1
sS'mines'
p5041
I1
sS'courtyards'
p5042
I1
sS'sponsoring'
p5043
I1
sS'leader'
p5044
I1
sS'debuts'
p5045
I1
sS'locate'
p5046
I1
sS'ripped'
p5047
I1
sS'koussevitzky'
p5048
I1
sS'inaccurate'
p5049
I1
sS'thoroughfare'
p5050
I1
sS'reaching'
p5051
I1
sS'journal'
p5052
I1
sS'murdered'
p5053
I1
sS'conveyed'
p5054
I1
sS'swept'
p5055
I1
sS'carried'
p5056
I1
sS'extension'
p5057
I1
sS'getting'
p5058
I1
sS'shipping'
p5059
I1
sS'dependency'
p5060
I1
sS'presidium'
p5061
I1
sS'equally'
p5062
I1
sS'own'
p5063
I1
sS'wilderness'
p5064
I1
sS'previously'
p5065
I1
sS'travelers'
p5066
I1
sS'gunther'
p5067
I1
sS'lahontan'
p5068
I1
sS'weather'
p5069
I1
sS'brush'
p5070
I1
sS'artists'
p5071
I1
sS'fired'
p5072
I1
sS'kottke'
p5073
I1
sS'jubilee'
p5074
I1
sS'bagmati'
p5075
I1
sS'accused'
p5076
I1
sS'additional'
p5077
I1
sS'daniels'
p5078
I1
sS'continental'
p5079
I1
sS'seismologists'
p5080
I1
sS'recruited'
p5081
I1
sS'north'
p5082
I1
sS'triggered'
p5083
I1
sS'funds'
p5084
I1
sS'kowalczyk'
p5085
I1
sS'gain'
p5086
I1
sS'courts'
p5087
I1
sS'overflow'
p5088
I1
sS'ear'
p5089
I1
sS'eat'
p5090
I1
sS'he'
p5091
I1
sS'convalescence'
p5092
I1
sS'made'
p5093
I1
sS'whether'
p5094
I1
sS'meterologists'
p5095
I1
sS'signed'
p5096
I1
sS'record'
p5097
I1
sS'below'
p5098
I1
sS'limit'
p5099
I1
sS'dame'
p5100
I1
sS'urging'
p5101
I1
sS'block'
p5102
I1
sS'inadequate'
p5103
I1
sS'beats'
p5104
I1
sS'eric'
p5105
I1
sS'worse'
p5106
I1
sS'avoided'
p5107
I1
sS'rumors'
p5108
I1
sS'karabakh'
p5109
I1
sS'incredible'
p5110
I1
sS'percent'
p5111
I1
sS'illinois'
p5112
I1
sS'book'
p5113
I1
sS'sick'
p5114
I1
sS'toured'
p5115
I1
sS'hysteria'
p5116
I1
sS'star'
p5117
I1
sS'ecstatic'
p5118
I1
sS'june'
p5119
I1
sS'stay'
p5120
I1
sS'pumps'
p5121
I1
sS'stan'
p5122
I1
sS'friends'
p5123
I1
sS'portion'
p5124
I1
sS'diagnosis'
p5125
I1
sS'indirectly'
p5126
I1
sS'simpson'
p5127
I1
stp5128
Rp5129
sS'total_words'
p5130
I237
sbsS'p_s'
p5131
g38
(g39
g40
Ntp5132
Rp5133
(dp5134
g44
S'csr'
p5135
sg46
(I8
I8
tp5136
sg243
I01
sg48
g49
(g50
(I0
tp5137
g52
tp5138
Rp5139
(I1
(I9
tp5140
g250
I00
S'\x00\x00\x00\x00\x01\x00\x00\x00\x02\x00\x00\x00\x03\x00\x00\x00\x04\x00\x00\x00\x05\x00\x00\x00\x06\x00\x00\x00\x07\x00\x00\x00\x08\x00\x00\x00'
p5141
tp5142
bsg64
g49
(g50
(I0
tp5143
g52
tp5144
Rp5145
(I1
(I8
tp5146
g250
I00
S'\x00\x00\x00\x00\x01\x00\x00\x00\x02\x00\x00\x00\x03\x00\x00\x00\x04\x00\x00\x00\x05\x00\x00\x00\x06\x00\x00\x00\x07\x00\x00\x00'
p5147
tp5148
bsg71
I50
sg72
g49
(g50
(I0
tp5149
g52
tp5150
Rp5151
(I1
(I8
tp5152
g79
I00
S'\x00\x00\x00\x00\x00\x00\xf0?\x00\x00\x00\x00\x00\x00\xf0?\x00\x00\x00\x00\x00\x00\xf0?\x00\x00\x00\x00\x00\x00\xf0?\x00\x00\x00\x00\x00\x00\xf0?\x00\x00\x00\x00\x00\x00\xf0?\x00\x00\x00\x00\x00\x00\xf0?\x00\x00\x00\x00\x00\x00\xf0?'
p5153
tp5154
bsbsS'title'
p5155
S'Ship Sinks, Crew Rescued'
p5156
sS'sentence_tfidf'
p5157
(isxpFenciMakeTFIDF
sxpTFIDF
p5158
(dp5159
g37
g38
(g39
g40
Ntp5160
Rp5161
(dp5162
g44
S'csr'
p5163
sg46
(I8
I121
tp5164
sg48
g49
(g50
(I0
tp5165
g52
tp5166
Rp5167
(I1
(I9
tp5168
g59
I00
S'\x00\x00\x00\x00\x1c\x00\x00\x00.\x00\x00\x00L\x00\x00\x00o\x00\x00\x00\x8f\x00\x00\x00\x9c\x00\x00\x00\xb4\x00\x00\x00\xc8\x00\x00\x00'
p5169
tp5170
bsg64
g49
(g50
(I0
tp5171
g52
tp5172
Rp5173
(I1
(I200
tp5174
g59
I00
S']\x00\x00\x00i\x00\x00\x000\x00\x00\x00Y\x00\x00\x00A\x00\x00\x00,\x00\x00\x00[\x00\x00\x00t\x00\x00\x00C\x00\x00\x00 \x00\x00\x00H\x00\x00\x00\t\x00\x00\x00\x0c\x00\x00\x00\x1e\x00\x00\x00$\x00\x00\x00M\x00\x00\x00p\x00\x00\x00`\x00\x00\x00J\x00\x00\x00l\x00\x00\x008\x00\x00\x00^\x00\x00\x00\x13\x00\x00\x00L\x00\x00\x00\x19\x00\x00\x00\x1a\x00\x00\x00*\x00\x00\x00\x04\x00\x00\x00\x0b\x00\x00\x00<\x00\x00\x00D\x00\x00\x00E\x00\x00\x00\x01\x00\x00\x00g\x00\x00\x00x\x00\x00\x005\x00\x00\x00R\x00\x00\x00\x00\x00\x00\x00\x05\x00\x00\x00\x10\x00\x00\x00a\x00\x00\x00J\x00\x00\x00l\x00\x00\x008\x00\x00\x00^\x00\x00\x00L\x00\x00\x002\x00\x00\x00\x1b\x00\x00\x00I\x00\x00\x00m\x00\x00\x006\x00\x00\x00w\x00\x00\x00o\x00\x00\x00\x06\x00\x00\x00\x02\x00\x00\x00e\x00\x00\x00\x1c\x00\x00\x001\x00\x00\x00v\x00\x00\x00\x1d\x00\x00\x007\x00\x00\x00K\x00\x00\x00s\x00\x00\x00>\x00\x00\x00\x0b\x00\x00\x00<\x00\x00\x00D\x00\x00\x00]\x00\x00\x00i\x00\x00\x000\x00\x00\x00t\x00\x00\x00\x1e\x00\x00\x00$\x00\x00\x00M\x00\x00\x00l\x00\x00\x00L\x00\x00\x00"\x00\x00\x00P\x00\x00\x00Q\x00\x00\x00b\x00\x00\x00/\x00\x00\x00#\x00\x00\x00\x12\x00\x00\x00W\x00\x00\x00(\x00\x00\x00\x0e\x00\x00\x00:\x00\x00\x009\x00\x00\x00X\x00\x00\x00h\x00\x00\x00N\x00\x00\x002\x00\x00\x006\x00\x00\x00w\x00\x00\x001\x00\x00\x00K\x00\x00\x00>\x00\x00\x00a\x00\x00\x00]\x00\x00\x000\x00\x00\x00\x0c\x00\x00\x00\x1e\x00\x00\x00$\x00\x00\x00l\x00\x00\x008\x00\x00\x00\x13\x00\x00\x00L\x00\x00\x00\x19\x00\x00\x00\x1a\x00\x00\x00*\x00\x00\x00\x04\x00\x00\x00f\x00\x00\x00\x03\x00\x00\x00\x17\x00\x00\x004\x00\x00\x00-\x00\x00\x00u\x00\x00\x00\x18\x00\x00\x00\x0f\x00\x00\x00j\x00\x00\x00n\x00\x00\x00\x07\x00\x00\x00q\x00\x00\x00\x15\x00\x00\x00N\x00\x00\x00e\x00\x00\x00<\x00\x00\x00D\x00\x00\x00x\x00\x00\x005\x00\x00\x00\x05\x00\x00\x00]\x00\x00\x00Y\x00\x00\x00A\x00\x00\x00,\x00\x00\x00t\x00\x00\x00C\x00\x00\x00 \x00\x00\x00H\x00\x00\x00l\x00\x00\x008\x00\x00\x00L\x00\x00\x00\x04\x00\x00\x00_\x00\x00\x00\\\x00\x00\x00\n\x00\x00\x00\x16\x00\x00\x00\x08\x00\x00\x00F\x00\x00\x00q\x00\x00\x00o\x00\x00\x00A\x00\x00\x00\x0c\x00\x00\x00$\x00\x00\x00l\x00\x00\x00\x04\x00\x00\x00B\x00\x00\x00=\x00\x00\x00\x1f\x00\x00\x00\x14\x00\x00\x00@\x00\x00\x00+\x00\x00\x00T\x00\x00\x00d\x00\x00\x00O\x00\x00\x00V\x00\x00\x00\'\x00\x00\x00S\x00\x00\x00k\x00\x00\x00Z\x00\x00\x00%\x00\x00\x001\x00\x00\x00s\x00\x00\x00a\x00\x00\x00]\x00\x00\x00\x0c\x00\x00\x00$\x00\x00\x00l\x00\x00\x00L\x00\x00\x00\x04\x00\x00\x00.\x00\x00\x00&\x00\x00\x00G\x00\x00\x00!\x00\x00\x00U\x00\x00\x00r\x00\x00\x00?\x00\x00\x00\x11\x00\x00\x003\x00\x00\x00;\x00\x00\x00\r\x00\x00\x00c\x00\x00\x00)\x00\x00\x00\n\x00\x00\x00u\x00\x00\x00o\x00\x00\x00\x0c\x00\x00\x00l\x00\x00\x008\x00\x00\x00L\x00\x00\x00'
p5175
tp5176
bsg71
I50
sg72
g49
(g50
(I0
tp5177
g52
tp5178
Rp5179
(I1
(I200
tp5180
g79
I00
S'*\xb9\x00S\xd6\xd3\xbe?3\xdd{i\xf7\x03\xc7?\xb3\xc0K\x9bH\xdc\xc3?3\xdd{i\xf7\x03\xc7?\xb3\xc0K\x9bH\xdc\xc3?3\xdd{i\xf7\x03\xc7?PAG\xdbTv\xcb?\xb3\xc0K\x9bH\xdc\xc3?3\xdd{i\xf7\x03\xc7?3\xdd{i\xf7\x03\xc7?3\xdd{i\xf7\x03\xc7?PAG\xdbTv\xcb?*\xb9\x00S\xd6\xd3\xbe?\xb3\xc0K\x9bH\xdc\xd3?*\xb9\x00S\xd6\xd3\xbe?3\xdd{i\xf7\x03\xc7?PAG\xdbTv\xcb?PAG\xdbTv\xcb?3\xdd{i\xf7\x03\xc7?\xee\xf0io\x1b\xef\xc5?*\xb9\x00S\xd6\xd3\xbe?3\xdd{i\xf7\x03\xc7?3\xdd{i\xf7\x03\xc7?-\x80\xa0\xb6x\x84\xb8?3\xdd{i\xf7\x03\xc7?3\xdd{i\xf7\x03\xc7?3\xdd{i\xf7\x03\xc7?\xdf\x8a@\xbe\xe0\x1e\xd7?J\xe8\x93_\x0f)\xcd?}`\xb5\xfc\xbb)\xc9?}`\xb5\xfc\xbb)\xc9?V\xb6\xf8\xa6\xade\xd1?V\xb6\xf8\xa6\xade\xd1?V\xb6\xf8\xa6\xade\xd1?J\xe8\x93_\x0f)\xcd?J\xe8\x93_\x0f)\xcd?V\xb6\xf8\xa6\xade\xd1?V\xb6\xf8\xa6\xade\xd1?J\xe8\x93_\x0f)\xcd?V\xb6\xf8\xa6\xade\xd1?}`\xb5\xfc\xbb)\xc9?J\xe8\x93_\x0f)\xcd?l\xaf\xf4?H\xca\xcb?\x19\xdcW\x0ep\x87\xc3?J\xe8\x93_\x0f)\xcd?\x9a\xa8\xf2V9\x10\xcf?\x9d\xbe\xea\x88\xe5\xf8\xc4?;)N\x853\x06\xc9?;)N\x853\x06\xc9?;)N\x853\x06\xc9?\x9d\xbe\xea\x88\xe5\xf8\xc4?\x9d\xbe\xea\x88\xe5\xf8\xc4?\xd5\xccH\xd2\xea\x18\xc2?;)N\x853\x06\xc9?;)N\x853\x06\xc9?\x9d\xbe\xea\x88\xe5\xf8\xc4?;)N\x853\x06\xc9?\xd5\xccH\xd2\xea\x18\xc2?;)N\x853\x06\xc9?;)N\x853\x06\xc9?;)N\x853\x06\xc9?\x9d\xbe\xea\x88\xe5\xf8\xd4?\x9d\xbe\xea\x88\xe5\xf8\xd4?\x9d\xbe\xea\x88\xe5\xf8\xc4?\x9d\xbe\xea\x88\xe5\xf8\xc4?\xd5\xccH\xd2\xea\x18\xc2?\xd5\xccH\xd2\xea\x18\xc2?l\xc4\xca\xab9\x17\xbc?\x9d\xbe\xea\x88\xe5\xf8\xc4?\xd5\xccH\xd2\xea\x18\xc2?\xd5\xccH\xd2\xea\x18\xc2?\xd5\xccH\xd2\xea\x18\xc2?l\xc4\xca\xab9\x17\xbc?\x9d\xbe\xea\x88\xe5\xf8\xc4?\xc4\xe6\x85\x8c\xec\xfa\xcd?\xdf\xe0\x86>DW\xb6?\'3\x91@9\x06\xc8?\'3\x91@9\x06\xc8?\'3\x91@9\x06\xc8?\'3\x91@9\x06\xc8?\'3\x91@9\x06\xc8?\'3\x91@9\x06\xc8?\'3\x91@9\x06\xc8?\'3\x91@9\x06\xc8?\'3\x91@9\x06\xc8?\'3\x91@9\x06\xc8?\'3\x91@9\x06\xc8?\'3\x91@9\x06\xc8?\'3\x91@9\x06\xc8?\'3\x91@9\x06\xc8?\x04\xfd6\x0e^"\xc4?\x04\xfd6\x0e^"\xc4?\x04\xfd6\x0e^"\xc4?\x04\xfd6\x0e^"\xc4?\xa1<\x1e\xd1\xcb_\xc1?\x04\xfd6\x0e^"\xc4?\x04\xfd6\x0e^"\xc4?\xa1<\x1e\xd1\xcb_\xc1?\xfb\x0c\x88=\xe1\xf7\xba?\xa1<\x1e\xd1\xcb_\xc1?\xfb\x0c\x88=\xe1\xf7\xba?\xa1<\x1e\xd1\xcb_\xc1?\xfb\x0c\x88=\xe1\xf7\xba?\xb3\xa0\xd3\xd8*0\xd3?\xfb\x0c\x88=\xe1\xf7\xba?\x04\xfd6\x0e^"\xc4?7\x8cV\xc3\xbcr\xb5?\x04\xfd6\x0e^"\xc4?\x04\xfd6\x0e^"\xc4?\x04\xfd6\x0e^"\xc4?\xfb\x0c\x88=\xe1\xf7\xca?\xb8~ssj5\xc6?\xb8~ssj5\xc6?\xb8~ssj5\xc6?\xb8~ssj5\xc6?\xb8~ssj5\xc6?\x0b4<z\xd2\x9c\xc2?\xb8~ssj5\xc6?\xb8~ssj5\xc6?\xb8~ssj5\xc6?\xb8~ssj5\xc6?\xb8~ssj5\xc6?\x0b4<z\xd2\x9c\xc2?\xb8~ssj5\xc6?\x0b4<z\xd2\x9c\xc2?\x0b4<z\xd2\x9c\xd2?\x9eD\x1d\x8d\xa6\x0f\xc0?\x9eD\x1d\x8d\xa6\x0f\xc0?\x0b4<z\xd2\x9c\xc2?\x0b4<z\xd2\x9c\xc2?\x0b4<z\xd2\x9c\xc2?\xdf\xf3\xcb\'\x1d\xee\xb8?\x0b4<z\xd2\x9c\xc2?\x9eD\x1d\x8d\xa6\x0f\xc0?\x0b4<z\xd2\x9c\xd2?\x9eD\x1d\x8d\xa6\x0f\xc0?\x0b4<z\xd2\x9c\xc2?\x0b4<z\xd2\x9c\xc2?\x0b4<z\xd2\x9c\xc2?\xc5\r\x0c\xd0c\x9b\xda?\xdf\xf3\xcb\'\x1d\xee\xb8?\x06\x15\x8eM\xc5\xd3\xc3?\xdf\xf3\xcb\'\x1d\xee\xb8?\x89\x13\xde\xcbw\xe1\xd5?\x89\x13\xde\xcbw\xe1\xd5?TS\xb5\xa1wV\xd2?\x89\x13\xde\xcbw\xe1\xd5?\x89\x13\xde\xcbw\xe1\xd5?\x89\x13\xde\xcbw\xe1\xd5?TS\xb5\xa1wV\xd2?t\xd8\x8fV\xe1\xa5\xcf?t\xd8\x8fV\xe1\xa5\xcf?\x08X>\x02\xe1\x8f\xc8?\x08X>\x02\xe1\x8f\xc8?\x9d\xd7\xec\xad\xe0y\xc1?\x08X>\x02\xe1\x8f\xc8?\xd5\xd3\xe5\x05 \t\xc9?\xd5\xd3\xe5\x05 \t\xc9?\xd5\xd3\xe5\x05 \t\xc9?\xd5\xd3\xe5\x05 \t\xc9?\xd5\xd3\xe5\x05 \t\xc9?\xd5\xd3\xe5\x05 \t\xc9?\xd5\xd3\xe5\x05 \t\xc9?\xd5\xd3\xe5\x05 \t\xc9?\xd5\xd3\xe5\x05 \t\xc9?\xd5\xd3\xe5\x05 \t\xc9?\xd5\xd3\xe5\x05 \t\xd9?\xd5\xd3\xe5\x05 \t\xc9?\xd5\xd3\xe5\x05 \t\xc9?\xd5\xd3\xe5\x05 \t\xc9?\xd5\xd3\xe5\x05 \t\xc9?\xe7\xe7\xfb!\x08\x1b\xc2?\\|\x93\xd6X\xfb\xc4?\xe7\xe7\xfb!\x08\x1b\xc2?\xdc S\xe5\x81\x1a\xbc?\xdc S\xe5\x81\x1a\xbc?\xdc S\xe5\x81\x1a\xcc?b\x0eZh\xb0\xfe\xd8?\xf4\xf7#|\xe0Y\xb6?\xdc S\xe5\x81\x1a\xbc?\x18\xdf3*\xf3f\xcc?\x18\xdf3*\xf3f\xcc?\x18\xdf3*\xf3f\xcc?\x18\xdf3*\xf3f\xcc?\x18\xdf3*\xf3f\xcc?\x18\xdf3*\xf3f\xcc?\x18\xdf3*\xf3f\xcc?\x18\xdf3*\xf3f\xcc?\x18\xdf3*\xf3f\xcc?\x18\xdf3*\xf3f\xcc?\x18\xdf3*\xf3f\xcc?\x18\xdf3*\xf3f\xcc?\x18\xdf3*\xf3f\xcc?aK\x11\x9a\x9f\xcd\xc7?aK\x11\x9a\x9f\xcd\xc7?l5\xf4\x0bL\x8a\xc4?iC\xa3\xf7\xf0\xe1\xbf?\xfd\x94\x86aw\x03\xd1?\x8fr\xba\xb9t\xe9\xd7?\x7f\x17i\xdbI[\xc9?'
p5181
tp5182
bsbsg84
(lp5183
V12:45
p5184
aV28
p5185
aV29
p5186
aV30
p5187
ag90
aVabout
p5188
aVaccording
p5189
aVafter
p5190
aVaircraft
p5191
aVall
p5192
aValso
p5193
aVameland
p5194
aVand
p5195
aVarea
p5196
aVas
p5197
aVashore
p5198
aVat
p5199
aVbecause
p5200
aVbeen
p5201
aVbeer
p5202
aVbetween
p5203
aVboarded
p5204
aVboats
p5205
aVborkum
p5206
aVby
p5207
aVcargo
p5208
aVcarrying
p5209
aVcasualties
p5210
aVcaused
p5211
aVclear
p5212
aVcoast
p5213
aVcoastal
p5214
aVcrew
p5215
aVdelfzijl
p5216
aVdestination
p5217
aVdid
p5218
aVdutch
p5219
aVearlier
p5220
aVemden
p5221
aVferry
p5222
aVfinnish-registered
p5223
aVfreight
p5224
aVfreighter
p5225
aVfrequent
p5226
aVfrom
p5227
aVgerman
p5228
aVgermany
p5229
aVgive
p5230
aVguard
p5231
aVhad
p5232
aVhe
p5233
aVheavy
p5234
aVhelicopter
p5235
aVhigh
p5236
aVidentified
p5237
aVimmediately
p5238
aVin
p5239
aVinterview
p5240
aVinvolved
p5241
aVis
p5242
aVisland
p5243
aVislands
p5244
aVit
p5245
aVits
p5246
aVlanes
p5247
aVlife
p5248
aVmainland
p5249
aVmembers
p5250
aVmiles
p5251
aVnautical
p5252
aVnavy
p5253
aVnetherlands
p5254
aVnine
p5255
aVno
p5256
aVnorth
p5257
aVnot
p5258
aVof
p5259
aVoff
p5260
aVofficial
p5261
aVone
p5262
aVor
p5263
aVorigin
p5264
aVp.m
p5265
aVpassenger
p5266
aVplying
p5267
aVports
p5268
aVpossibly
p5269
aVra
p5270
aVradio
p5271
aVrafts
p5272
aVreports
p5273
aVrescued
p5274
aVrushed
p5275
aVsaid
p5276
aVsank
p5277
aVscene
p5278
aVsea
p5279
aVship
p5280
aVship's
p5281
aVshipping
p5282
aVships
p5283
aVsinking
p5284
aVsite
p5285
aVsome
p5286
aVspoke
p5287
aVspokesman
p5288
aVtaken
p5289
aVthat
p5290
aVthe
p5291
aVthere
p5292
aVthey
p5293
aVto
p5294
aVtoday
p5295
aVtwo
p5296
aVvicinity
p5297
aVwas
p5298
aVwere
p5299
aVwest
p5300
aVwhat
p5301
aVwho
p5302
aVwinds
p5303
asg207
g38
(g39
g40
Ntp5304
Rp5305
(dp5306
g44
S'csr'
p5307
sg46
(I8
I121
tp5308
sg48
g49
(g50
(I0
tp5309
g52
tp5310
Rp5311
(I1
(I9
tp5312
g59
I00
S'\x00\x00\x00\x00\x1c\x00\x00\x00.\x00\x00\x00L\x00\x00\x00o\x00\x00\x00\x8f\x00\x00\x00\x9c\x00\x00\x00\xb4\x00\x00\x00\xc8\x00\x00\x00'
p5313
tp5314
bsg64
g49
(g50
(I0
tp5315
g52
tp5316
Rp5317
(I1
(I200
tp5318
g59
I00
S'\x04\x00\x00\x00*\x00\x00\x00\x1a\x00\x00\x00\x19\x00\x00\x00L\x00\x00\x00\x13\x00\x00\x00^\x00\x00\x008\x00\x00\x00l\x00\x00\x00J\x00\x00\x00`\x00\x00\x00p\x00\x00\x00M\x00\x00\x00$\x00\x00\x00\x1e\x00\x00\x00\x0c\x00\x00\x00\t\x00\x00\x00H\x00\x00\x00 \x00\x00\x00C\x00\x00\x00t\x00\x00\x00[\x00\x00\x00,\x00\x00\x00A\x00\x00\x00Y\x00\x00\x000\x00\x00\x00i\x00\x00\x00]\x00\x00\x00L\x00\x00\x00^\x00\x00\x008\x00\x00\x00l\x00\x00\x00J\x00\x00\x00a\x00\x00\x00\x10\x00\x00\x00\x05\x00\x00\x00\x00\x00\x00\x00R\x00\x00\x005\x00\x00\x00x\x00\x00\x00g\x00\x00\x00\x01\x00\x00\x00E\x00\x00\x00D\x00\x00\x00<\x00\x00\x00\x0b\x00\x00\x00L\x00\x00\x00l\x00\x00\x00M\x00\x00\x00$\x00\x00\x00\x1e\x00\x00\x00t\x00\x00\x000\x00\x00\x00i\x00\x00\x00]\x00\x00\x00D\x00\x00\x00<\x00\x00\x00\x0b\x00\x00\x00>\x00\x00\x00s\x00\x00\x00K\x00\x00\x007\x00\x00\x00\x1d\x00\x00\x00v\x00\x00\x001\x00\x00\x00\x1c\x00\x00\x00e\x00\x00\x00\x02\x00\x00\x00\x06\x00\x00\x00o\x00\x00\x00w\x00\x00\x006\x00\x00\x00m\x00\x00\x00I\x00\x00\x00\x1b\x00\x00\x002\x00\x00\x00\x04\x00\x00\x00*\x00\x00\x00\x1a\x00\x00\x00\x19\x00\x00\x00L\x00\x00\x00\x13\x00\x00\x008\x00\x00\x00l\x00\x00\x00$\x00\x00\x00\x1e\x00\x00\x00\x0c\x00\x00\x000\x00\x00\x00]\x00\x00\x00a\x00\x00\x00>\x00\x00\x00K\x00\x00\x001\x00\x00\x00w\x00\x00\x006\x00\x00\x002\x00\x00\x00N\x00\x00\x00h\x00\x00\x00X\x00\x00\x009\x00\x00\x00:\x00\x00\x00\x0e\x00\x00\x00(\x00\x00\x00W\x00\x00\x00\x12\x00\x00\x00#\x00\x00\x00/\x00\x00\x00b\x00\x00\x00Q\x00\x00\x00P\x00\x00\x00"\x00\x00\x00\x04\x00\x00\x00L\x00\x00\x008\x00\x00\x00l\x00\x00\x00H\x00\x00\x00 \x00\x00\x00C\x00\x00\x00t\x00\x00\x00,\x00\x00\x00A\x00\x00\x00Y\x00\x00\x00]\x00\x00\x00\x05\x00\x00\x005\x00\x00\x00x\x00\x00\x00D\x00\x00\x00<\x00\x00\x00e\x00\x00\x00N\x00\x00\x00\x15\x00\x00\x00q\x00\x00\x00\x07\x00\x00\x00n\x00\x00\x00j\x00\x00\x00\x0f\x00\x00\x00\x18\x00\x00\x00u\x00\x00\x00-\x00\x00\x004\x00\x00\x00\x17\x00\x00\x00\x03\x00\x00\x00f\x00\x00\x00\x04\x00\x00\x00l\x00\x00\x00$\x00\x00\x00\x0c\x00\x00\x00A\x00\x00\x00o\x00\x00\x00q\x00\x00\x00F\x00\x00\x00\x08\x00\x00\x00\x16\x00\x00\x00\n\x00\x00\x00\\\x00\x00\x00_\x00\x00\x00\x04\x00\x00\x00L\x00\x00\x00l\x00\x00\x00$\x00\x00\x00\x0c\x00\x00\x00]\x00\x00\x00a\x00\x00\x00s\x00\x00\x001\x00\x00\x00%\x00\x00\x00Z\x00\x00\x00k\x00\x00\x00S\x00\x00\x00\'\x00\x00\x00V\x00\x00\x00O\x00\x00\x00d\x00\x00\x00T\x00\x00\x00+\x00\x00\x00@\x00\x00\x00\x14\x00\x00\x00\x1f\x00\x00\x00=\x00\x00\x00B\x00\x00\x00L\x00\x00\x008\x00\x00\x00l\x00\x00\x00\x0c\x00\x00\x00o\x00\x00\x00u\x00\x00\x00\n\x00\x00\x00)\x00\x00\x00c\x00\x00\x00\r\x00\x00\x00;\x00\x00\x003\x00\x00\x00\x11\x00\x00\x00?\x00\x00\x00r\x00\x00\x00U\x00\x00\x00!\x00\x00\x00G\x00\x00\x00&\x00\x00\x00.\x00\x00\x00'
p5319
tp5320
bsg71
I50
sg72
g49
(g50
(I0
tp5321
g52
tp5322
Rp5323
(I1
(I200
tp5324
g231
I00
S'\x03\x00\x00\x00\x00\x00\x00\x00\x01\x00\x00\x00\x00\x00\x00\x00\x01\x00\x00\x00\x00\x00\x00\x00\x01\x00\x00\x00\x00\x00\x00\x00\x01\x00\x00\x00\x00\x00\x00\x00\x01\x00\x00\x00\x00\x00\x00\x00\x01\x00\x00\x00\x00\x00\x00\x00\x01\x00\x00\x00\x00\x00\x00\x00\x02\x00\x00\x00\x00\x00\x00\x00\x01\x00\x00\x00\x00\x00\x00\x00\x01\x00\x00\x00\x00\x00\x00\x00\x01\x00\x00\x00\x00\x00\x00\x00\x01\x00\x00\x00\x00\x00\x00\x00\x01\x00\x00\x00\x00\x00\x00\x00\x02\x00\x00\x00\x00\x00\x00\x00\x01\x00\x00\x00\x00\x00\x00\x00\x01\x00\x00\x00\x00\x00\x00\x00\x01\x00\x00\x00\x00\x00\x00\x00\x01\x00\x00\x00\x00\x00\x00\x00\x01\x00\x00\x00\x00\x00\x00\x00\x01\x00\x00\x00\x00\x00\x00\x00\x01\x00\x00\x00\x00\x00\x00\x00\x01\x00\x00\x00\x00\x00\x00\x00\x01\x00\x00\x00\x00\x00\x00\x00\x01\x00\x00\x00\x00\x00\x00\x00\x01\x00\x00\x00\x00\x00\x00\x00\x01\x00\x00\x00\x00\x00\x00\x00\x01\x00\x00\x00\x00\x00\x00\x00\x02\x00\x00\x00\x00\x00\x00\x00\x01\x00\x00\x00\x00\x00\x00\x00\x01\x00\x00\x00\x00\x00\x00\x00\x02\x00\x00\x00\x00\x00\x00\x00\x01\x00\x00\x00\x00\x00\x00\x00\x01\x00\x00\x00\x00\x00\x00\x00\x01\x00\x00\x00\x00\x00\x00\x00\x01\x00\x00\x00\x00\x00\x00\x00\x01\x00\x00\x00\x00\x00\x00\x00\x01\x00\x00\x00\x00\x00\x00\x00\x01\x00\x00\x00\x00\x00\x00\x00\x01\x00\x00\x00\x00\x00\x00\x00\x01\x00\x00\x00\x00\x00\x00\x00\x01\x00\x00\x00\x00\x00\x00\x00\x01\x00\x00\x00\x00\x00\x00\x00\x01\x00\x00\x00\x00\x00\x00\x00\x01\x00\x00\x00\x00\x00\x00\x00\x01\x00\x00\x00\x00\x00\x00\x00\x01\x00\x00\x00\x00\x00\x00\x00\x03\x00\x00\x00\x00\x00\x00\x00\x01\x00\x00\x00\x00\x00\x00\x00\x01\x00\x00\x00\x00\x00\x00\x00\x01\x00\x00\x00\x00\x00\x00\x00\x01\x00\x00\x00\x00\x00\x00\x00\x01\x00\x00\x00\x00\x00\x00\x00\x01\x00\x00\x00\x00\x00\x00\x00\x01\x00\x00\x00\x00\x00\x00\x00\x01\x00\x00\x00\x00\x00\x00\x00\x01\x00\x00\x00\x00\x00\x00\x00\x01\x00\x00\x00\x00\x00\x00\x00\x01\x00\x00\x00\x00\x00\x00\x00\x02\x00\x00\x00\x00\x00\x00\x00\x02\x00\x00\x00\x00\x00\x00\x00\x01\x00\x00\x00\x00\x00\x00\x00\x01\x00\x00\x00\x00\x00\x00\x00\x01\x00\x00\x00\x00\x00\x00\x00\x01\x00\x00\x00\x00\x00\x00\x00\x01\x00\x00\x00\x00\x00\x00\x00\x01\x00\x00\x00\x00\x00\x00\x00\x01\x00\x00\x00\x00\x00\x00\x00\x01\x00\x00\x00\x00\x00\x00\x00\x01\x00\x00\x00\x00\x00\x00\x00\x01\x00\x00\x00\x00\x00\x00\x00\x01\x00\x00\x00\x00\x00\x00\x00\x01\x00\x00\x00\x00\x00\x00\x00\x01\x00\x00\x00\x00\x00\x00\x00\x01\x00\x00\x00\x00\x00\x00\x00\x01\x00\x00\x00\x00\x00\x00\x00\x02\x00\x00\x00\x00\x00\x00\x00\x01\x00\x00\x00\x00\x00\x00\x00\x01\x00\x00\x00\x00\x00\x00\x00\x01\x00\x00\x00\x00\x00\x00\x00\x01\x00\x00\x00\x00\x00\x00\x00\x01\x00\x00\x00\x00\x00\x00\x00\x01\x00\x00\x00\x00\x00\x00\x00\x04\x00\x00\x00\x00\x00\x00\x00\x01\x00\x00\x00\x00\x00\x00\x00\x01\x00\x00\x00\x00\x00\x00\x00\x01\x00\x00\x00\x00\x00\x00\x00\x01\x00\x00\x00\x00\x00\x00\x00\x01\x00\x00\x00\x00\x00\x00\x00\x01\x00\x00\x00\x00\x00\x00\x00\x01\x00\x00\x00\x00\x00\x00\x00\x01\x00\x00\x00\x00\x00\x00\x00\x01\x00\x00\x00\x00\x00\x00\x00\x01\x00\x00\x00\x00\x00\x00\x00\x01\x00\x00\x00\x00\x00\x00\x00\x01\x00\x00\x00\x00\x00\x00\x00\x01\x00\x00\x00\x00\x00\x00\x00\x01\x00\x00\x00\x00\x00\x00\x00\x01\x00\x00\x00\x00\x00\x00\x00\x01\x00\x00\x00\x00\x00\x00\x00\x01\x00\x00\x00\x00\x00\x00\x00\x01\x00\x00\x00\x00\x00\x00\x00\x01\x00\x00\x00\x00\x00\x00\x00\x01\x00\x00\x00\x00\x00\x00\x00\x01\x00\x00\x00\x00\x00\x00\x00\x01\x00\x00\x00\x00\x00\x00\x00\x01\x00\x00\x00\x00\x00\x00\x00\x01\x00\x00\x00\x00\x00\x00\x00\x01\x00\x00\x00\x00\x00\x00\x00\x01\x00\x00\x00\x00\x00\x00\x00\x01\x00\x00\x00\x00\x00\x00\x00\x01\x00\x00\x00\x00\x00\x00\x00\x02\x00\x00\x00\x00\x00\x00\x00\x01\x00\x00\x00\x00\x00\x00\x00\x06\x00\x00\x00\x00\x00\x00\x00\x01\x00\x00\x00\x00\x00\x00\x00\x01\x00\x00\x00\x00\x00\x00\x00\x01\x00\x00\x00\x00\x00\x00\x00\x01\x00\x00\x00\x00\x00\x00\x00\x02\x00\x00\x00\x00\x00\x00\x00\x01\x00\x00\x00\x00\x00\x00\x00\x01\x00\x00\x00\x00\x00\x00\x00\x01\x00\x00\x00\x00\x00\x00\x00\x01\x00\x00\x00\x00\x00\x00\x00\x01\x00\x00\x00\x00\x00\x00\x00\x01\x00\x00\x00\x00\x00\x00\x00\x01\x00\x00\x00\x00\x00\x00\x00\x01\x00\x00\x00\x00\x00\x00\x00\x02\x00\x00\x00\x00\x00\x00\x00\x01\x00\x00\x00\x00\x00\x00\x00\x01\x00\x00\x00\x00\x00\x00\x00\x01\x00\x00\x00\x00\x00\x00\x00\x01\x00\x00\x00\x00\x00\x00\x00\x01\x00\x00\x00\x00\x00\x00\x00\x01\x00\x00\x00\x00\x00\x00\x00\x01\x00\x00\x00\x00\x00\x00\x00\x01\x00\x00\x00\x00\x00\x00\x00\x01\x00\x00\x00\x00\x00\x00\x00\x01\x00\x00\x00\x00\x00\x00\x00\x01\x00\x00\x00\x00\x00\x00\x00\x01\x00\x00\x00\x00\x00\x00\x00\x01\x00\x00\x00\x00\x00\x00\x00\x01\x00\x00\x00\x00\x00\x00\x00\x01\x00\x00\x00\x00\x00\x00\x00\x01\x00\x00\x00\x00\x00\x00\x00\x01\x00\x00\x00\x00\x00\x00\x00\x01\x00\x00\x00\x00\x00\x00\x00\x01\x00\x00\x00\x00\x00\x00\x00\x01\x00\x00\x00\x00\x00\x00\x00\x01\x00\x00\x00\x00\x00\x00\x00\x01\x00\x00\x00\x00\x00\x00\x00\x01\x00\x00\x00\x00\x00\x00\x00\x01\x00\x00\x00\x00\x00\x00\x00\x01\x00\x00\x00\x00\x00\x00\x00\x01\x00\x00\x00\x00\x00\x00\x00\x01\x00\x00\x00\x00\x00\x00\x00\x01\x00\x00\x00\x00\x00\x00\x00\x01\x00\x00\x00\x00\x00\x00\x00\x05\x00\x00\x00\x00\x00\x00\x00\x02\x00\x00\x00\x00\x00\x00\x00\x01\x00\x00\x00\x00\x00\x00\x00\x01\x00\x00\x00\x00\x00\x00\x00\x01\x00\x00\x00\x00\x00\x00\x00\x01\x00\x00\x00\x00\x00\x00\x00\x01\x00\x00\x00\x00\x00\x00\x00\x01\x00\x00\x00\x00\x00\x00\x00\x01\x00\x00\x00\x00\x00\x00\x00\x01\x00\x00\x00\x00\x00\x00\x00\x01\x00\x00\x00\x00\x00\x00\x00\x02\x00\x00\x00\x00\x00\x00\x00\x01\x00\x00\x00\x00\x00\x00\x00\x01\x00\x00\x00\x00\x00\x00\x00\x01\x00\x00\x00\x00\x00\x00\x00\x01\x00\x00\x00\x00\x00\x00\x00\x01\x00\x00\x00\x00\x00\x00\x00\x01\x00\x00\x00\x00\x00\x00\x00\x01\x00\x00\x00\x00\x00\x00\x00\x01\x00\x00\x00\x00\x00\x00\x00\x01\x00\x00\x00\x00\x00\x00\x00\x01\x00\x00\x00\x00\x00\x00\x00\x02\x00\x00\x00\x00\x00\x00\x00\x03\x00\x00\x00\x00\x00\x00\x00\x03\x00\x00\x00\x00\x00\x00\x00\x01\x00\x00\x00\x00\x00\x00\x00\x01\x00\x00\x00\x00\x00\x00\x00\x01\x00\x00\x00\x00\x00\x00\x00\x01\x00\x00\x00\x00\x00\x00\x00\x01\x00\x00\x00\x00\x00\x00\x00\x01\x00\x00\x00\x00\x00\x00\x00\x01\x00\x00\x00\x00\x00\x00\x00\x01\x00\x00\x00\x00\x00\x00\x00\x01\x00\x00\x00\x00\x00\x00\x00\x01\x00\x00\x00\x00\x00\x00\x00\x01\x00\x00\x00\x00\x00\x00\x00\x01\x00\x00\x00\x00\x00\x00\x00\x01\x00\x00\x00\x00\x00\x00\x00\x01\x00\x00\x00\x00\x00\x00\x00\x01\x00\x00\x00\x00\x00\x00\x00\x01\x00\x00\x00\x00\x00\x00\x00\x01\x00\x00\x00\x00\x00\x00\x00'
p5325
tp5326
bsbsbsS'fname'
p5327
g33
sS't_s'
p5328
g38
(g39
g40
Ntp5329
Rp5330
(dp5331
g44
S'csr'
p5332
sg46
(I8
I8
tp5333
sg243
I01
sg48
g49
(g50
(I0
tp5334
g52
tp5335
Rp5336
(I1
(I9
tp5337
g250
I00
S'\x00\x00\x00\x00\x01\x00\x00\x00\x02\x00\x00\x00\x03\x00\x00\x00\x04\x00\x00\x00\x05\x00\x00\x00\x06\x00\x00\x00\x07\x00\x00\x00\x08\x00\x00\x00'
p5338
tp5339
bsg64
g49
(g50
(I0
tp5340
g52
tp5341
Rp5342
(I1
(I8
tp5343
g250
I00
S'\x00\x00\x00\x00\x01\x00\x00\x00\x02\x00\x00\x00\x03\x00\x00\x00\x04\x00\x00\x00\x05\x00\x00\x00\x06\x00\x00\x00\x07\x00\x00\x00'
p5344
tp5345
bsg71
I50
sg72
g49
(g50
(I0
tp5346
g52
tp5347
Rp5348
(I1
(I8
tp5349
g79
I00
S'\x00\x00\x00\x00\x00\x00\xf0?\x00\x00\x00\x00\x00\x00\xf0?\x00\x00\x00\x00\x00\x00\xf0?\x00\x00\x00\x00\x00\x00\xf0?\x00\x00\x00\x00\x00\x00\xf0?\x00\x00\x00\x00\x00\x00\xf0?\x00\x00\x00\x00\x00\x00\xf0?\x00\x00\x00\x00\x00\x00\xf0?'
p5350
tp5351
bsbsS's_k'
p5352
g38
(g39
g40
Ntp5353
Rp5354
(dp5355
g44
S'csr'
p5356
sg46
(I8
I121
tp5357
sg48
g5167
sg64
g49
(g50
(I0
tp5358
g52
tp5359
Rp5360
(I1
(I200
tp5361
g59
I00
S']\x00\x00\x00i\x00\x00\x000\x00\x00\x00Y\x00\x00\x00A\x00\x00\x00,\x00\x00\x00[\x00\x00\x00t\x00\x00\x00C\x00\x00\x00 \x00\x00\x00H\x00\x00\x00\t\x00\x00\x00\x0c\x00\x00\x00\x1e\x00\x00\x00$\x00\x00\x00M\x00\x00\x00p\x00\x00\x00`\x00\x00\x00J\x00\x00\x00l\x00\x00\x008\x00\x00\x00^\x00\x00\x00\x13\x00\x00\x00L\x00\x00\x00\x19\x00\x00\x00\x1a\x00\x00\x00*\x00\x00\x00\x04\x00\x00\x00\x0b\x00\x00\x00<\x00\x00\x00D\x00\x00\x00E\x00\x00\x00\x01\x00\x00\x00g\x00\x00\x00x\x00\x00\x005\x00\x00\x00R\x00\x00\x00\x00\x00\x00\x00\x05\x00\x00\x00\x10\x00\x00\x00a\x00\x00\x00J\x00\x00\x00l\x00\x00\x008\x00\x00\x00^\x00\x00\x00L\x00\x00\x002\x00\x00\x00\x1b\x00\x00\x00I\x00\x00\x00m\x00\x00\x006\x00\x00\x00w\x00\x00\x00o\x00\x00\x00\x06\x00\x00\x00\x02\x00\x00\x00e\x00\x00\x00\x1c\x00\x00\x001\x00\x00\x00v\x00\x00\x00\x1d\x00\x00\x007\x00\x00\x00K\x00\x00\x00s\x00\x00\x00>\x00\x00\x00\x0b\x00\x00\x00<\x00\x00\x00D\x00\x00\x00]\x00\x00\x00i\x00\x00\x000\x00\x00\x00t\x00\x00\x00\x1e\x00\x00\x00$\x00\x00\x00M\x00\x00\x00l\x00\x00\x00L\x00\x00\x00"\x00\x00\x00P\x00\x00\x00Q\x00\x00\x00b\x00\x00\x00/\x00\x00\x00#\x00\x00\x00\x12\x00\x00\x00W\x00\x00\x00(\x00\x00\x00\x0e\x00\x00\x00:\x00\x00\x009\x00\x00\x00X\x00\x00\x00h\x00\x00\x00N\x00\x00\x002\x00\x00\x006\x00\x00\x00w\x00\x00\x001\x00\x00\x00K\x00\x00\x00>\x00\x00\x00a\x00\x00\x00]\x00\x00\x000\x00\x00\x00\x0c\x00\x00\x00\x1e\x00\x00\x00$\x00\x00\x00l\x00\x00\x008\x00\x00\x00\x13\x00\x00\x00L\x00\x00\x00\x19\x00\x00\x00\x1a\x00\x00\x00*\x00\x00\x00\x04\x00\x00\x00f\x00\x00\x00\x03\x00\x00\x00\x17\x00\x00\x004\x00\x00\x00-\x00\x00\x00u\x00\x00\x00\x18\x00\x00\x00\x0f\x00\x00\x00j\x00\x00\x00n\x00\x00\x00\x07\x00\x00\x00q\x00\x00\x00\x15\x00\x00\x00N\x00\x00\x00e\x00\x00\x00<\x00\x00\x00D\x00\x00\x00x\x00\x00\x005\x00\x00\x00\x05\x00\x00\x00]\x00\x00\x00Y\x00\x00\x00A\x00\x00\x00,\x00\x00\x00t\x00\x00\x00C\x00\x00\x00 \x00\x00\x00H\x00\x00\x00l\x00\x00\x008\x00\x00\x00L\x00\x00\x00\x04\x00\x00\x00_\x00\x00\x00\\\x00\x00\x00\n\x00\x00\x00\x16\x00\x00\x00\x08\x00\x00\x00F\x00\x00\x00q\x00\x00\x00o\x00\x00\x00A\x00\x00\x00\x0c\x00\x00\x00$\x00\x00\x00l\x00\x00\x00\x04\x00\x00\x00B\x00\x00\x00=\x00\x00\x00\x1f\x00\x00\x00\x14\x00\x00\x00@\x00\x00\x00+\x00\x00\x00T\x00\x00\x00d\x00\x00\x00O\x00\x00\x00V\x00\x00\x00\'\x00\x00\x00S\x00\x00\x00k\x00\x00\x00Z\x00\x00\x00%\x00\x00\x001\x00\x00\x00s\x00\x00\x00a\x00\x00\x00]\x00\x00\x00\x0c\x00\x00\x00$\x00\x00\x00l\x00\x00\x00L\x00\x00\x00\x04\x00\x00\x00.\x00\x00\x00&\x00\x00\x00G\x00\x00\x00!\x00\x00\x00U\x00\x00\x00r\x00\x00\x00?\x00\x00\x00\x11\x00\x00\x003\x00\x00\x00;\x00\x00\x00\r\x00\x00\x00c\x00\x00\x00)\x00\x00\x00\n\x00\x00\x00u\x00\x00\x00o\x00\x00\x00\x0c\x00\x00\x00l\x00\x00\x008\x00\x00\x00L\x00\x00\x00'
p5362
tp5363
bsg71
I50
sg72
g49
(g50
(I0
tp5364
g52
tp5365
Rp5366
(I1
(I200
tp5367
g79
I00
S'*\xb9\x00S\xd6\xd3\xbe?3\xdd{i\xf7\x03\xc7?\xb3\xc0K\x9bH\xdc\xc3?3\xdd{i\xf7\x03\xc7?\xb3\xc0K\x9bH\xdc\xc3?3\xdd{i\xf7\x03\xc7?PAG\xdbTv\xcb?\xb3\xc0K\x9bH\xdc\xc3?3\xdd{i\xf7\x03\xc7?3\xdd{i\xf7\x03\xc7?3\xdd{i\xf7\x03\xc7?PAG\xdbTv\xcb?*\xb9\x00S\xd6\xd3\xbe?\xb3\xc0K\x9bH\xdc\xd3?*\xb9\x00S\xd6\xd3\xbe?3\xdd{i\xf7\x03\xc7?PAG\xdbTv\xcb?PAG\xdbTv\xcb?3\xdd{i\xf7\x03\xc7?\xee\xf0io\x1b\xef\xc5?*\xb9\x00S\xd6\xd3\xbe?3\xdd{i\xf7\x03\xc7?3\xdd{i\xf7\x03\xc7?-\x80\xa0\xb6x\x84\xb8?3\xdd{i\xf7\x03\xc7?3\xdd{i\xf7\x03\xc7?3\xdd{i\xf7\x03\xc7?\xdf\x8a@\xbe\xe0\x1e\xd7?J\xe8\x93_\x0f)\xcd?}`\xb5\xfc\xbb)\xc9?}`\xb5\xfc\xbb)\xc9?V\xb6\xf8\xa6\xade\xd1?V\xb6\xf8\xa6\xade\xd1?V\xb6\xf8\xa6\xade\xd1?J\xe8\x93_\x0f)\xcd?J\xe8\x93_\x0f)\xcd?V\xb6\xf8\xa6\xade\xd1?V\xb6\xf8\xa6\xade\xd1?J\xe8\x93_\x0f)\xcd?V\xb6\xf8\xa6\xade\xd1?}`\xb5\xfc\xbb)\xc9?J\xe8\x93_\x0f)\xcd?l\xaf\xf4?H\xca\xcb?\x19\xdcW\x0ep\x87\xc3?J\xe8\x93_\x0f)\xcd?\x9a\xa8\xf2V9\x10\xcf?\x9d\xbe\xea\x88\xe5\xf8\xc4?;)N\x853\x06\xc9?;)N\x853\x06\xc9?;)N\x853\x06\xc9?\x9d\xbe\xea\x88\xe5\xf8\xc4?\x9d\xbe\xea\x88\xe5\xf8\xc4?\xd5\xccH\xd2\xea\x18\xc2?;)N\x853\x06\xc9?;)N\x853\x06\xc9?\x9d\xbe\xea\x88\xe5\xf8\xc4?;)N\x853\x06\xc9?\xd5\xccH\xd2\xea\x18\xc2?;)N\x853\x06\xc9?;)N\x853\x06\xc9?;)N\x853\x06\xc9?\x9d\xbe\xea\x88\xe5\xf8\xd4?\x9d\xbe\xea\x88\xe5\xf8\xd4?\x9d\xbe\xea\x88\xe5\xf8\xc4?\x9d\xbe\xea\x88\xe5\xf8\xc4?\xd5\xccH\xd2\xea\x18\xc2?\xd5\xccH\xd2\xea\x18\xc2?l\xc4\xca\xab9\x17\xbc?\x9d\xbe\xea\x88\xe5\xf8\xc4?\xd5\xccH\xd2\xea\x18\xc2?\xd5\xccH\xd2\xea\x18\xc2?\xd5\xccH\xd2\xea\x18\xc2?l\xc4\xca\xab9\x17\xbc?\x9d\xbe\xea\x88\xe5\xf8\xc4?\xc4\xe6\x85\x8c\xec\xfa\xcd?\xdf\xe0\x86>DW\xb6?\'3\x91@9\x06\xc8?\'3\x91@9\x06\xc8?\'3\x91@9\x06\xc8?\'3\x91@9\x06\xc8?\'3\x91@9\x06\xc8?\'3\x91@9\x06\xc8?\'3\x91@9\x06\xc8?\'3\x91@9\x06\xc8?\'3\x91@9\x06\xc8?\'3\x91@9\x06\xc8?\'3\x91@9\x06\xc8?\'3\x91@9\x06\xc8?\'3\x91@9\x06\xc8?\'3\x91@9\x06\xc8?\x04\xfd6\x0e^"\xc4?\x04\xfd6\x0e^"\xc4?\x04\xfd6\x0e^"\xc4?\x04\xfd6\x0e^"\xc4?\xa1<\x1e\xd1\xcb_\xc1?\x04\xfd6\x0e^"\xc4?\x04\xfd6\x0e^"\xc4?\xa1<\x1e\xd1\xcb_\xc1?\xfb\x0c\x88=\xe1\xf7\xba?\xa1<\x1e\xd1\xcb_\xc1?\xfb\x0c\x88=\xe1\xf7\xba?\xa1<\x1e\xd1\xcb_\xc1?\xfb\x0c\x88=\xe1\xf7\xba?\xb3\xa0\xd3\xd8*0\xd3?\xfb\x0c\x88=\xe1\xf7\xba?\x04\xfd6\x0e^"\xc4?7\x8cV\xc3\xbcr\xb5?\x04\xfd6\x0e^"\xc4?\x04\xfd6\x0e^"\xc4?\x04\xfd6\x0e^"\xc4?\xfb\x0c\x88=\xe1\xf7\xca?\xb8~ssj5\xc6?\xb8~ssj5\xc6?\xb8~ssj5\xc6?\xb8~ssj5\xc6?\xb8~ssj5\xc6?\x0b4<z\xd2\x9c\xc2?\xb8~ssj5\xc6?\xb8~ssj5\xc6?\xb8~ssj5\xc6?\xb8~ssj5\xc6?\xb8~ssj5\xc6?\x0b4<z\xd2\x9c\xc2?\xb8~ssj5\xc6?\x0b4<z\xd2\x9c\xc2?\x0b4<z\xd2\x9c\xd2?\x9eD\x1d\x8d\xa6\x0f\xc0?\x9eD\x1d\x8d\xa6\x0f\xc0?\x0b4<z\xd2\x9c\xc2?\x0b4<z\xd2\x9c\xc2?\x0b4<z\xd2\x9c\xc2?\xdf\xf3\xcb\'\x1d\xee\xb8?\x0b4<z\xd2\x9c\xc2?\x9eD\x1d\x8d\xa6\x0f\xc0?\x0b4<z\xd2\x9c\xd2?\x9eD\x1d\x8d\xa6\x0f\xc0?\x0b4<z\xd2\x9c\xc2?\x0b4<z\xd2\x9c\xc2?\x0b4<z\xd2\x9c\xc2?\xc5\r\x0c\xd0c\x9b\xda?\xdf\xf3\xcb\'\x1d\xee\xb8?\x06\x15\x8eM\xc5\xd3\xc3?\xdf\xf3\xcb\'\x1d\xee\xb8?\x89\x13\xde\xcbw\xe1\xd5?\x89\x13\xde\xcbw\xe1\xd5?TS\xb5\xa1wV\xd2?\x89\x13\xde\xcbw\xe1\xd5?\x89\x13\xde\xcbw\xe1\xd5?\x89\x13\xde\xcbw\xe1\xd5?TS\xb5\xa1wV\xd2?t\xd8\x8fV\xe1\xa5\xcf?t\xd8\x8fV\xe1\xa5\xcf?\x08X>\x02\xe1\x8f\xc8?\x08X>\x02\xe1\x8f\xc8?\x9d\xd7\xec\xad\xe0y\xc1?\x08X>\x02\xe1\x8f\xc8?\xd5\xd3\xe5\x05 \t\xc9?\xd5\xd3\xe5\x05 \t\xc9?\xd5\xd3\xe5\x05 \t\xc9?\xd5\xd3\xe5\x05 \t\xc9?\xd5\xd3\xe5\x05 \t\xc9?\xd5\xd3\xe5\x05 \t\xc9?\xd5\xd3\xe5\x05 \t\xc9?\xd5\xd3\xe5\x05 \t\xc9?\xd5\xd3\xe5\x05 \t\xc9?\xd5\xd3\xe5\x05 \t\xc9?\xd5\xd3\xe5\x05 \t\xd9?\xd5\xd3\xe5\x05 \t\xc9?\xd5\xd3\xe5\x05 \t\xc9?\xd5\xd3\xe5\x05 \t\xc9?\xd5\xd3\xe5\x05 \t\xc9?\xe7\xe7\xfb!\x08\x1b\xc2?\\|\x93\xd6X\xfb\xc4?\xe7\xe7\xfb!\x08\x1b\xc2?\xdc S\xe5\x81\x1a\xbc?\xdc S\xe5\x81\x1a\xbc?\xdc S\xe5\x81\x1a\xcc?b\x0eZh\xb0\xfe\xd8?\xf4\xf7#|\xe0Y\xb6?\xdc S\xe5\x81\x1a\xbc?\x18\xdf3*\xf3f\xcc?\x18\xdf3*\xf3f\xcc?\x18\xdf3*\xf3f\xcc?\x18\xdf3*\xf3f\xcc?\x18\xdf3*\xf3f\xcc?\x18\xdf3*\xf3f\xcc?\x18\xdf3*\xf3f\xcc?\x18\xdf3*\xf3f\xcc?\x18\xdf3*\xf3f\xcc?\x18\xdf3*\xf3f\xcc?\x18\xdf3*\xf3f\xcc?\x18\xdf3*\xf3f\xcc?\x18\xdf3*\xf3f\xcc?aK\x11\x9a\x9f\xcd\xc7?aK\x11\x9a\x9f\xcd\xc7?l5\xf4\x0bL\x8a\xc4?iC\xa3\xf7\xf0\xe1\xbf?\xfd\x94\x86aw\x03\xd1?\x8fr\xba\xb9t\xe9\xd7?\x7f\x17i\xdbI[\xc9?'
p5368
tp5369
bsbsS'conclusion'
p5370
g33
sS'section_list'
p5371
(lp5372
(i__main__
sxpSectionTitle
p5373
(dp5374
S'level'
p5375
I0
sg5155
g269
sS't_type'
p5376
g33
sS'id_str'
p5377
g269
sS'id_set'
p5378
g33
sg9
I0
sbasS'c_p'
p5379
g38
(g39
g40
Ntp5380
Rp5381
(dp5382
g44
S'csr'
p5383
sg46
(I1
I8
tp5384
sg243
I01
sg48
g49
(g50
(I0
tp5385
g52
tp5386
Rp5387
(I1
(I2
tp5388
g250
I00
S'\x00\x00\x00\x00\x08\x00\x00\x00'
p5389
tp5390
bsg64
g49
(g50
(I0
tp5391
g52
tp5392
Rp5393
(I1
(I8
tp5394
g250
I00
S'\x00\x00\x00\x00\x01\x00\x00\x00\x02\x00\x00\x00\x03\x00\x00\x00\x04\x00\x00\x00\x05\x00\x00\x00\x06\x00\x00\x00\x07\x00\x00\x00'
p5395
tp5396
bsg71
I50
sg72
g49
(g50
(I0
tp5397
g52
tp5398
Rp5399
(I1
(I8
tp5400
g79
I00
S'\x00\x00\x00\x00\x00\x00\xf0?\x00\x00\x00\x00\x00\x00\xf0?\x00\x00\x00\x00\x00\x00\xf0?\x00\x00\x00\x00\x00\x00\xf0?\x00\x00\x00\x00\x00\x00\xf0?\x00\x00\x00\x00\x00\x00\xf0?\x00\x00\x00\x00\x00\x00\xf0?\x00\x00\x00\x00\x00\x00\xf0?'
p5401
tp5402
bsbsS'relatedwork'
p5403
g33
sS'paraset'
p5404
(lp5405
(i__main__
sxpPara
p5406
(dp5407
g2
(lp5408
sS'para_id'
p5409
S'0'
p5410
sS'section_title'
p5411
g269
sg34
(lp5412
sg8
I0
sS'para_text'
p5413
S'a freighter carrying a cargo of beer sank in the north sea today off the dutch coast and all nine crew members were rescued from life rafts, a coast guard spokesman said.'
p5414
sS'para_tuple'
p5415
(lp5416
g269
aI0
asg9
I0
sS'context_set'
p5417
(lp5418
(i__main__
sxpContext
p5419
(dp5420
S'context_sent'
p5421
(lp5422
g4
asg8
I0
sg9
I0
sg10
I0
sbasba(i__main__
sxpPara
p5423
(dp5424
g2
(lp5425
sg5409
S'1'
p5426
sg5411
g269
sg34
(lp5427
sg8
I0
sg5413
S'the ship sank at about 12:45 p.m. in high winds, some 28 nautical miles north of the island of ameland.'
p5428
sg5415
(lp5429
g269
aI0
asg9
I1
sg5417
(lp5430
(i__main__
sxpContext
p5431
(dp5432
g5421
(lp5433
g11
asg8
I0
sg9
I1
sg10
I1
sbasba(i__main__
sxpPara
p5434
(dp5435
g2
(lp5436
sg5409
S'2'
p5437
sg5411
g269
sg34
(lp5438
sg8
I0
sg5413
S'it was not immediately clear what had caused the sinking 29 miles off the dutch island of ameland, according to the coast guard spokesman, who was not identified. there were no casualties, he said.'
p5439
sg5415
(lp5440
g269
aI0
asg9
I2
sg5417
(lp5441
(i__main__
sxpContext
p5442
(dp5443
g5421
(lp5444
g14
asg8
I0
sg9
I2
sg10
I2
sbasba(i__main__
sxpPara
p5445
(dp5446
g2
(lp5447
sg5409
S'3'
p5448
sg5411
g269
sg34
(lp5449
sg8
I0
sg5413
S"the coast guard official, who spoke in a dutch radio interview, identified the ship involved as the finnish-registered freighter ra and said it had been carrying a cargo of beer. he did not give the ship's origin or destination."
p5450
sg5415
(lp5451
g269
aI0
asg9
I3
sg5417
(lp5452
(i__main__
sxpContext
p5453
(dp5454
g5421
(lp5455
g17
asg8
I0
sg9
I3
sg10
I3
sbasba(i__main__
sxpPara
p5456
(dp5457
g2
(lp5458
sg5409
S'4'
p5459
sg5411
g269
sg34
(lp5460
sg8
I0
sg5413
S'the nine crew members boarded two life rafts after the sinking in high winds. they were taken ashore by a west german helicopter from the island of borkum, about 30 miles from the site of the sinking, the official said.'
p5461
sg5415
(lp5462
g269
aI0
asg9
I4
sg5417
(lp5463
(i__main__
sxpContext
p5464
(dp5465
g5421
(lp5466
g20
asg8
I0
sg9
I4
sg10
I4
sbasba(i__main__
sxpPara
p5467
(dp5468
g2
(lp5469
sg5409
S'5'
p5470
sg5411
g269
sg34
(lp5471
sg8
I0
sg5413
S'a dutch navy aircraft and two life boats also rushed to the scene.'
p5472
sg5415
(lp5473
g269
aI0
asg9
I5
sg5417
(lp5474
(i__main__
sxpContext
p5475
(dp5476
g5421
(lp5477
g23
asg8
I0
sg9
I5
sg10
I5
sbasba(i__main__
sxpPara
p5478
(dp5479
g2
(lp5480
sg5409
S'6'
p5481
sg5411
g269
sg34
(lp5482
sg8
I0
sg5413
S'earlier reports had said that the ship was a passenger ferry, possibly one of the dutch ships plying the frequent ferry lanes between the coastal islands and the dutch mainland.'
p5483
sg5415
(lp5484
g269
aI0
asg9
I6
sg5417
(lp5485
(i__main__
sxpContext
p5486
(dp5487
g5421
(lp5488
g26
asg8
I0
sg9
I6
sg10
I6
sbasba(i__main__
sxpPara
p5489
(dp5490
g2
(lp5491
sg5409
S'7'
p5492
sg5411
g269
sg34
(lp5493
sg8
I0
sg5413
S'freight shipping in the area is also heavy because of its vicinity to the ports of delfzijl in the netherlands and emden in west germany.'
p5494
sg5415
(lp5495
g269
aI0
asg9
I7
sg5417
(lp5496
(i__main__
sxpContext
p5497
(dp5498
g5421
(lp5499
g29
asg8
I0
sg9
I7
sg10
I7
sbasbasg5417
(lp5500
g5419
ag5431
ag5442
ag5453
ag5464
ag5475
ag5486
ag5497
asS'whole_sectitle'
p5501
g33
sS'whole_text'
p5502
S"\na freighter carrying a cargo of beer sank in the north sea today off the dutch coast and all nine crew members were rescued from life rafts, a coast guard spokesman said.\nthe ship sank at about 12:45 p.m. in high winds, some 28 nautical miles north of the island of ameland.\nit was not immediately clear what had caused the sinking 29 miles off the dutch island of ameland, according to the coast guard spokesman, who was not identified. there were no casualties, he said.\nthe coast guard official, who spoke in a dutch radio interview, identified the ship involved as the finnish-registered freighter ra and said it had been carrying a cargo of beer. he did not give the ship's origin or destination.\nthe nine crew members boarded two life rafts after the sinking in high winds. they were taken ashore by a west german helicopter from the island of borkum, about 30 miles from the site of the sinking, the official said.\na dutch navy aircraft and two life boats also rushed to the scene.\nearlier reports had said that the ship was a passenger ferry, possibly one of the dutch ships plying the frequent ferry lanes between the coastal islands and the dutch mainland.\nfreight shipping in the area is also heavy because of its vicinity to the ports of delfzijl in the netherlands and emden in west germany."
p5503
sS'd_c'
p5504
g38
(g39
g40
Ntp5505
Rp5506
(dp5507
g44
S'csr'
p5508
sg46
(I1
I1
tp5509
sg48
g49
(g50
(I0
tp5510
g52
tp5511
Rp5512
(I1
(I2
tp5513
g59
I00
S'\x00\x00\x00\x00\x01\x00\x00\x00'
p5514
tp5515
bsg64
g49
(g50
(I0
tp5516
g52
tp5517
Rp5518
(I1
(I1
tp5519
g59
I00
S'\x00\x00\x00\x00'
p5520
tp5521
bsg71
I50
sg72
g49
(g50
(I0
tp5522
g52
tp5523
Rp5524
(I1
(I1
tp5525
g79
I00
S'\x00\x00\x00\x00\x00\x00\xf0?'
p5526
tp5527
bsbsb.