(i__main__
sxpText
p0
(dp1
S'sentenceset'
p2
(lp3
(i__main__
sxpSent
p4
(dp5
S'sentence_text'
p6
S'a passenger ferry sank off the caribbean coast while being towed to port, and 59 people drowned and six are missing, authorities and news reports said today'
p7
sS'id_sec'
p8
I0
sS'id'
p9
I0
sS'id_para'
p10
I0
sba(i__main__
sxpSent
p11
(dp12
g6
S'capt anibal giron arreola, a spokesman at the puerto barrios naval base, said the ferry justo rufino barrios ii sank sunday afternoon in amatique bay he said by telephone that 59 people died'
p13
sg8
I0
sg9
I1
sg10
I1
sba(i__main__
sxpSent
p14
(dp15
g6
S'juan jose gaytan, a reporter at radio portena in puerto barrios, said the justo rufineo barrios ii ran out of fuel midway on a regular 16-mile run from the town livingston, across the bay, to puerto barrios'
p16
sg8
I0
sg9
I2
sg10
I2
sba(i__main__
sxpSent
p17
(dp18
g6
S'gaytan said the boat sank while it was being towed by a tugboat'
p19
sg8
I0
sg9
I3
sg10
I3
sba(i__main__
sxpSent
p20
(dp21
g6
S'the spanish embassy in guatemala city confirmed the sinking and said a 40-year-old spanish citizen, vicente daudi, was among the dead the embassy reported his wife, rosa maria arnal, and a son survived the shipwreck, but two daughters were missing'
p22
sg8
I0
sg9
I4
sg10
I4
sba(i__main__
sxpSent
p23
(dp24
g6
S'daudi was working with a spanish technical aid and economic development mission in guatemala, the embassy said'
p25
sg8
I0
sg9
I5
sg10
I5
sba(i__main__
sxpSent
p26
(dp27
g6
S'an official at the puerto barrios morgue said 13 bodies have been identified besides daudi, the nationalities of the victims were not immediately known'
p28
sg8
I0
sg9
I6
sg10
I6
sba(i__main__
sxpSent
p29
(dp30
g6
S'gaytan said navy patrol boats, fishing vessels and private craft have been searching the bay for survivors and recovering bodies'
p31
sg8
I0
sg9
I7
sg10
I7
sba(i__main__
sxpSent
p32
(dp33
g6
S'he said he had no other details on the shipwreck'
p34
sg8
I0
sg9
I8
sg10
I8
sba(i__main__
sxpSent
p35
(dp36
g6
S"puerto barrios, 187 miles northeast of the capital, is guatemala's principal east coast port"
p37
sg8
I0
sg9
I9
sg10
I9
sbasS'reference'
p38
S''
p39
sS'para_tfidf'
p40
(isxpFenciMakeTFIDF
sxpTFIDF
p41
(dp42
S'tfidf'
p43
ccopy_reg
_reconstructor
p44
(cscipy.sparse.csr
csr_matrix
p45
c__builtin__
object
p46
Ntp47
Rp48
(dp49
S'format'
p50
S'csr'
p51
sS'_shape'
p52
(I10
I141
tp53
sS'indptr'
p54
cnumpy.core.multiarray
_reconstruct
p55
(cnumpy
ndarray
p56
(I0
tp57
S'b'
p58
tp59
Rp60
(I1
(I11
tp61
cnumpy
dtype
p62
(S'i4'
p63
I0
I1
tp64
Rp65
(I3
S'<'
p66
NNNI-1
I-1
I0
tp67
bI00
S'\x00\x00\x00\x00\x19\x00\x00\x007\x00\x00\x00V\x00\x00\x00c\x00\x00\x00\x83\x00\x00\x00\x94\x00\x00\x00\xaa\x00\x00\x00\xbd\x00\x00\x00\xc6\x00\x00\x00\xd4\x00\x00\x00'
p68
tp69
bsS'indices'
p70
g55
(g56
(I0
tp71
g58
tp72
Rp73
(I1
(I212
tp74
g65
I00
S'\x7f\x00\x00\x00n\x00\x00\x00i\x00\x00\x00Q\x00\x00\x00\x12\x00\x00\x00K\x00\x00\x00\x0e\x00\x00\x00s\x00\x00\x00,\x00\x00\x00]\x00\x00\x00\x04\x00\x00\x00\x0c\x00\x00\x00^\x00\x00\x00~\x00\x00\x00\x80\x00\x00\x00\x17\x00\x00\x00\x89\x00\x00\x00#\x00\x00\x00 \x00\x00\x00}\x00\x00\x00V\x00\x00\x00o\x00\x00\x000\x00\x00\x00[\x00\x00\x00\x05\x00\x00\x00+\x00\x00\x00|\x00\x00\x00{\x00\x00\x00\x1d\x00\x00\x00;\x00\x00\x00\x15\x00\x00\x00\t\x00\x00\x00@\x00\x00\x00\x07\x00\x00\x00w\x00\x00\x00>\x00\x00\x00l\x00\x00\x00E\x00\x00\x00\x14\x00\x00\x00O\x00\x00\x00\x13\x00\x00\x00b\x00\x00\x00\x11\x00\x00\x00v\x00\x00\x00\x10\x00\x00\x006\x00\x00\x00\r\x00\x00\x00\x1f\x00\x00\x00n\x00\x00\x00]\x00\x00\x00\x04\x00\x00\x00}\x00\x00\x00o\x00\x00\x000\x00\x00\x00\x05\x00\x00\x00\x06\x00\x00\x00G\x00\x00\x00\x81\x00\x00\x003\x00\x00\x00m\x00\x00\x00\x01\x00\x00\x00f\x00\x00\x00X\x00\x00\x00I\x00\x00\x004\x00\x00\x00U\x00\x00\x00Z\x00\x00\x00d\x00\x00\x00k\x00\x00\x00_\x00\x00\x00c\x00\x00\x00h\x00\x00\x005\x00\x00\x00C\x00\x00\x00D\x00\x00\x00\x15\x00\x00\x00@\x00\x00\x00>\x00\x00\x00E\x00\x00\x00\x13\x00\x00\x00b\x00\x00\x00\x11\x00\x00\x00n\x00\x00\x00~\x00\x00\x00}\x00\x00\x00\x05\x00\x00\x00\x82\x00\x00\x00\x87\x00\x00\x00B\x00\x00\x00\x19\x00\x00\x005\x00\x00\x00\x1d\x00\x00\x00n\x00\x00\x00\x80\x00\x00\x00\x17\x00\x00\x00\x89\x00\x00\x00}\x00\x00\x00o\x00\x00\x00\x05\x00\x00\x00\x88\x00\x00\x00\'\x00\x00\x00\x83\x00\x00\x00\x1c\x00\x00\x00q\x00\x00\x00x\x00\x00\x00t\x00\x00\x00\x0f\x00\x00\x00H\x00\x00\x00j\x00\x00\x00\x8a\x00\x00\x00<\x00\x00\x00g\x00\x00\x00(\x00\x00\x00\n\x00\x00\x00&\x00\x00\x00\x85\x00\x00\x00!\x00\x00\x00\x03\x00\x00\x00r\x00\x00\x00$\x00\x00\x00"\x00\x00\x007\x00\x00\x00/\x00\x00\x00u\x00\x00\x00\x87\x00\x00\x00@\x00\x00\x00n\x00\x00\x00K\x00\x00\x00\x0c\x00\x00\x00}\x00\x00\x00\x05\x00\x00\x00L\x00\x00\x00*\x00\x00\x00.\x00\x00\x00\x08\x00\x00\x00z\x00\x00\x00\x8b\x00\x00\x00\x8c\x00\x00\x00&\x00\x00\x007\x00\x00\x00/\x00\x00\x00u\x00\x00\x00\x87\x00\x00\x00@\x00\x00\x00n\x00\x00\x00\x0c\x00\x00\x00}\x00\x00\x00\x05\x00\x00\x00F\x00\x00\x00?\x00\x00\x00T\x00\x00\x00\x86\x00\x00\x00N\x00\x00\x00\x18\x00\x00\x00=\x00\x00\x00\x16\x00\x00\x00:\x00\x00\x00\x1b\x00\x00\x00\x00\x00\x00\x00M\x00\x00\x00W\x00\x00\x00\x0b\x00\x00\x00\x88\x00\x00\x00&\x00\x00\x00U\x00\x00\x00\x13\x00\x00\x00b\x00\x00\x00\x11\x00\x00\x00n\x00\x00\x00}\x00\x00\x00e\x00\x00\x00y\x00\x00\x002\x00\x00\x00p\x00\x00\x00%\x00\x00\x00a\x00\x00\x00\x84\x00\x00\x001\x00\x00\x00\x1a\x00\x00\x00\\\x00\x00\x00P\x00\x00\x00\x16\x00\x00\x00:\x00\x00\x00\x1b\x00\x00\x005\x00\x00\x00\x15\x00\x00\x00n\x00\x00\x00\x0c\x00\x00\x00}\x00\x00\x00)\x00\x00\x00Y\x00\x00\x00R\x00\x00\x009\x00\x00\x00q\x00\x00\x00X\x00\x00\x00;\x00\x00\x00n\x00\x00\x00}\x00\x00\x00-\x00\x00\x00`\x00\x00\x008\x00\x00\x00A\x00\x00\x00\x1e\x00\x00\x00S\x00\x00\x00J\x00\x00\x00\x02\x00\x00\x00U\x00\x00\x00\x13\x00\x00\x00b\x00\x00\x00^\x00\x00\x00#\x00\x00\x00}\x00\x00\x00'
p75
tp76
bsS'maxprint'
p77
I50
sS'data'
p78
g55
(g56
(I0
tp79
g58
tp80
Rp81
(I1
(I212
tp82
g62
(S'f8'
p83
I0
I1
tp84
Rp85
(I3
S'<'
p86
NNNI-1
I-1
I0
tp87
bI00
S'#\x91(st\x1a\xcb?\x1a!`\xda\x91\xf3\xb5?#\x91(st\x1a\xcb?#\x91(st\x1a\xcb?#\x91(st\x1a\xcb?\xefC]\x0fR\n\xc7?#\x91(st\x1a\xcb?#\x91(st\x1a\xcb?#\x91(st\x1a\xcb?\xefC]\x0fR\n\xc7?\xefC]\x0fR\n\xc7?\xf1\xdb\xf6\x00\xdc\xe1\xda?\xefC]\x0fR\n\xc7?\xefC]\x0fR\n\xc7?\xefC]\x0fR\n\xc7?\xefC]\x0fR\n\xc7?\xefC]\x0fR\n\xc7?\xefC]\x0fR\n\xc7?#\x91(st\x1a\xcb?\xf2c,\xe6\x92\n\xb4?#\x91(st\x1a\xcb?\x0e\x0f\xb4_U(\xc4?\xefC]\x0fR\n\xc7?#\x91(st\x1a\xcb?\xbeN\x92Q\x84\x19\xbd?\xacu\xe1\xd1\xb2\xaf\xc9?\xacu\xe1\xd1\xb2\xaf\xc9?\xacu\xe1\xd1\xb2\xaf\xc9?\x81\x90R\xca\xf1\xd5\xc5?\x81\x90R\xca\xf1\xd5\xc5?\xb3ujw\x8a\x1a\xc3?\xacu\xe1\xd1\xb2\xaf\xc9?\xda\t\x94\x92\n\xfc\xc0?\xacu\xe1\xd1\xb2\xaf\xc9?\xacu\xe1\xd1\xb2\xaf\xc9?\x81\x90R\xca\xf1\xd5\xc5?\xacu\xe1\xd1\xb2\xaf\xc9?\x81\x90R\xca\xf1\xd5\xc5?\xacu\xe1\xd1\xb2\xaf\xc9?\xacu\xe1\xd1\xb2\xaf\xc9?\xda\t\x94\x92\n\xfc\xd0?\xda\t\x94\x92\n\xfc\xc0?\xb3ujw\x8a\x1a\xc3?\xacu\xe1\xd1\xb2\xaf\xc9?\xacu\xe1\xd1\xb2\xaf\xc9?\xacu\xe1\xd1\xb2\xaf\xc9?\xacu\xe1\xd1\xb2\xaf\xc9?\xacu\xe1\xd1\xb2\xaf\xc9?\xc4\x13:p\xc4\xcd\xc4?\x81\x90R\xca\xf1\xd5\xc5?\x81\x90R\xca\xf1\xd5\xc5?"\xa6\x08MV\xfe\xc2?\xb3ujw\x8a\x1a\xc3?\x81\x90R\xca\xf1\xd5\xc5?\x96\xe1\x1b\x89\n\x94\xbb?]\xa4t\'$\x13\xc7?]\xa4t\'$\x13\xc7?]\xa4t\'$\x13\xc7?]\xa4t\'$\x13\xc7?]\xa4t\'$\x13\xc7?]\xa4t\'$\x13\xc7?]\xa4t\'$\x13\xc7?\x86 \x90\x16\x9c\x9d\xc3?]\xa4t\'$\x13\xc7?]\xa4t\'$\x13\xc7?\xe8\xd3k\xabP)\xc1?]\xa4t\'$\x13\xc7?]\xa4t\'$\x13\xc7?]\xa4t\'$\x13\xc7?]\xa4t\'$\x13\xc7?]\xa4t\'$\x13\xc7?]\xa4t\'$\x13\xc7?\xe8\xd3k\xabP)\xc1?]\xa4t\'$\x13\xc7?]\xa4t\'$\x13\xc7?\xe8\xd3k\xabP)\xc1?E;\xb2\xa4\xf1\x83\xbe?\x86 \x90\x16\x9c\x9d\xc3?\x86 \x90\x16\x9c\x9d\xc3?t\xac\x85;\xf5\xe2\xd6?E;\xb2\xa4\xf1\x83\xce?\xe8\xd3k\xabP)\xc1?[\x9a\xa0\xacJ\xb0\xb2?\x86 \x90\x16\x9c\x9d\xc3?X\x1c\x9a\xe0\xf7\x97\xc9?#s\xc3\x84=\xc6\xc8?\x8c\xe6i\xf8\xfan\xd6?\xb7\x96\x1eM9\xaf\xd0?\x8c\xe6i\xf8\xfan\xd6?\x8c\xe6i\xf8\xfan\xd6?\xb7\x96\x1eM9\xaf\xd0?@\x93\xaf\xd7\x0e\x12\xd3?\xc6\x97\xda\xc7U+\xc2?@\x93\xaf\xd7\x0e\x12\xd3?@\x93\xaf\xd7\x0e\x12\xd3?@\x93\xaf\xd7\x0e\x12\xd3?Z-ew\x97\x96\xc0?\xb7\x96\x1eM9\xaf\xd0?\xbe\x97\xa7\xe8\xfc\x15\xc8?\xfe5_\x8756\xc2?[3\xae\xc6\\l\xc5?[3\xae\xc6\\l\xc5?[3\xae\xc6\\l\xc5?\xfe5_\x8756\xc2?[3\xae\xc6\\l\xc5?[3\xae\xc6\\l\xc5?[3\xae\xc6\\l\xc5?[3\xae\xc6\\l\xc5?[3\xae\xc6\\l\xc5?[3\xae\xc6\\l\xc5?[3\xae\xc6\\l\xc5?[3\xae\xc6\\l\xc5?[3\xae\xc6\\l\xc5?[3\xae\xc6\\l\xc5?*f\xcb\x9a\xc3\xdd\xbf?[3\xae\xc6\\l\xc5?[3\xae\xc6\\l\xc5?[3\xae\xc6\\l\xc5?[3\xae\xc6\\l\xc5?[3\xae\xc6\\l\xc5?[3\xae\xc6\\l\xc5?\xfe5_\x8756\xc2?\xfe5_\x8756\xd2?\xfe5_\x8756\xd2?*f\xcb\x9a\xc3\xdd\xbf?w\xf9\x9f;\xd6T\xbc?\xeb\xf8\x0eI\xe0Y\xb1?\xfe5_\x8756\xc2?w\xf9\x9f;\xd6T\xcc?}P4\xea2\xcd\xd3?\x02\x12t3R\x00\xc7?-\x87P\x0e=\xae\xd2?-\x87P\x0e=\xae\xd2?-\x87P\x0e=\xae\xd2?-\x87P\x0e=\xae\xd2?-\x87P\x0e=\xae\xd2?-\x87P\x0e=\xae\xd2?-\x87P\x0e=\xae\xd2?&\xcc\xea1b\xc9\xcb?\xb7W\xf9\xe3\xad\xc2\xcf?\xb7W\xf9\xe3\xad\xc2\xcf?\xb7W\xf9\xe3\xad\xc2\xcf?&\xcc\xea1b\xc9\xcb?\x82)\xe1\xc7N\xb4\xc8?\x9d\xceU\xbamB\xbe?\x82)\xe1\xc7N\xb4\xc8?/\x81\x1dT\\\xa0\xbb?\xce\x01\x152{\x0e\xc4?\x99\x1b\xd6U\xafR\xce?\x99\x1b\xd6U\xafR\xce?\x99\x1b\xd6U\xafR\xce?\x99\x1b\xd6U\xafR\xce?\x99\x1b\xd6U\xafR\xce?\x99\x1b\xd6U\xafR\xce?\x99\x1b\xd6U\xafR\xce?\xa7g5\xca\xfd\xc6\xc9?\xa7g5\xca\xfd\xc6\xc9?\xa7g5\xca\xfd\xc6\xc9?\x99\x1b\xd6U\xafR\xce?\x99\x1b\xd6U\xafR\xce?\x99\x1b\xd6U\xafR\xce?\x99\x1b\xd6U\xafR\xce?\xa7g5\xca\xfd\xc6\xc9?\xa6\xa6\x0fqV\x8d\xc6?\xa6\xa6\x0fqV\x8d\xc6?\xf8Kp0\xe9\x0c\xc4?\xf8Kp0\xe9\x0c\xc4?\xa6\xa6\x0fqV\x8d\xc6?\x0e\xaeS\x97 \x8f\xb8?\\Z\x9a7\x08\xd1\xd0?\xf4_\x17wW\xae\xcf?\xf4_\x17wW\xae\xcf?\xf4_\x17wW\xae\xcf?\xf4_\x17wW\xae\xcf?\xf4_\x17wW\xae\xcf?\xf4_\x17wW\xae\xcf?\xf4_\x17wW\xae\xcf?\xf4_\x17wW\xae\xcf?\xf4_\x17wW\xae\xcf?\xf4_\x17wW\xae\xcf?\xf4_\x17wW\xae\xcf?\xf8+\x06\x08\x88\xee\xca?\xf8+\x06\x08\x88\xee\xca?\xf8+\x06\x08\x88\xee\xca?\xe82nv\xe6\x8f\xc7?\xe82nv\xe6\x8f\xc7?\x14\xfc\xe9E\xb3\xa8\xb9?\x15+\x9e\xa3\xca\xf2\xd4?\xae~_?\x1dm\xb7?\xe3\x03\xfb\xb4\n\xc7\xd5?\xe3\x03\xfb\xb4\n\xc7\xd5?\xe3\x03\xfb\xb4\n\xc7\xd5?\xe3\x03\xfb\xb4\n\xc7\xd5?\x8ep\xa8}K\x83\xd2?\x8ep\xa8}K\x83\xd2?\x8ep\xa8}K\x83\xe2?\x7f\xc3\x17\xa2Q\xa3\xc1?3b\x07@i\x1a\xc0?}\xd3\xa4\xa9\xcfI\xd3?}\xd3\xa4\xa9\xcfI\xd3?}\xd3\xa4\xa9\xcfI\xd3?}\xd3\xa4\xa9\xcfI\xd3?}\xd3\xa4\xa9\xcfI\xd3?}\xd3\xa4\xa9\xcfI\xd3?}\xd3\xa4\xa9\xcfI\xd3?}\xd3\xa4\xa9\xcfI\xd3?\x89\x19}\xa3\xca\xb0\xcc?q\xdf\xc1\xc7\x0b\x82\xc9?q\xdf\xc1\xc7\x0b\x82\xc9?,u\x163\x97e\xd0?,u\x163\x97e\xd0?\x14\xaa\xde!o\x86\xbc?'
p88
tp89
bsbsS'word'
p90
(lp91
V13
p92
aV16-mile
p93
aV187
p94
aV40-year-old
p95
aV59
p96
aVa
p97
aVacross
p98
aVafternoon
p99
aVaid
p100
aVamatique
p101
aVamong
p102
aVan
p103
aVand
p104
aVanibal
p105
aVare
p106
aVarnal
p107
aVarreola
p108
aVat
p109
aVauthorities
p110
aVbarrios
p111
aVbase
p112
aVbay
p113
aVbeen
p114
aVbeing
p115
aVbesides
p116
aVboat
p117
aVboats
p118
aVbodies
p119
aVbut
p120
aVby
p121
aVcapital
p122
aVcapt
p123
aVcaribbean
p124
aVcitizen
p125
aVcity
p126
aVcoast
p127
aVconfirmed
p128
aVcraft
p129
aVdaudi
p130
aVdaughters
p131
aVdead
p132
aVdetails
p133
aVdevelopment
p134
aVdied
p135
aVdrowned
p136
aVeast
p137
aVeconomic
p138
aVembassy
p139
aVferry
p140
aVfishing
p141
aVfor
p142
aVfrom
p143
aVfuel
p144
aVgaytan
p145
aVgiron
p146
aVguatemala
p147
aVguatemala's
p148
aVhad
p149
aVhave
p150
aVhe
p151
aVhis
p152
aVidentified
p153
aVii
p154
aVimmediately
p155
aVin
p156
aVis
p157
aVit
p158
aVjose
p159
aVjuan
p160
aVjusto
p161
aVknown
p162
aVlivingston
p163
aVmaria
p164
aVmidway
p165
aVmiles
p166
aVmissing
p167
aVmission
p168
aVmorgue
p169
aVnationalities
p170
aVnaval
p171
aVnavy
p172
aVnews
p173
aVno
p174
aVnortheast
p175
aVnot
p176
aVof
p177
aVoff
p178
aVofficial
p179
aVon
p180
aVother
p181
aVout
p182
aVpassenger
p183
aVpatrol
p184
aVpeople
p185
aVport
p186
aVportena
p187
aVprincipal
p188
aVprivate
p189
aVpuerto
p190
aVradio
p191
aVran
p192
aVrecovering
p193
aVregular
p194
aVreported
p195
aVreporter
p196
aVreports
p197
aVrosa
p198
aVrufineo
p199
aVrufino
p200
aVrun
p201
aVsaid
p202
aVsank
p203
aVsearching
p204
aVshipwreck
p205
aVsinking
p206
aVsix
p207
aVson
p208
aVspanish
p209
aVspokesman
p210
aVsunday
p211
aVsurvived
p212
aVsurvivors
p213
aVtechnical
p214
aVtelephone
p215
aVthat
p216
aVthe
p217
aVto
p218
aVtoday
p219
aVtowed
p220
aVtown
p221
aVtugboat
p222
aVtwo
p223
aVvessels
p224
aVvicente
p225
aVvictims
p226
aVwas
p227
aVwere
p228
aVwhile
p229
aVwife
p230
aVwith
p231
aVworking
p232
asS'ct'
p233
g44
(g45
g46
Ntp234
Rp235
(dp236
g50
S'csr'
p237
sg52
(I10
I141
tp238
sg54
g55
(g56
(I0
tp239
g58
tp240
Rp241
(I1
(I11
tp242
g65
I00
S'\x00\x00\x00\x00\x19\x00\x00\x007\x00\x00\x00V\x00\x00\x00c\x00\x00\x00\x83\x00\x00\x00\x94\x00\x00\x00\xaa\x00\x00\x00\xbd\x00\x00\x00\xc6\x00\x00\x00\xd4\x00\x00\x00'
p243
tp244
bsg70
g55
(g56
(I0
tp245
g58
tp246
Rp247
(I1
(I212
tp248
g65
I00
S'\x05\x00\x00\x00[\x00\x00\x000\x00\x00\x00o\x00\x00\x00V\x00\x00\x00}\x00\x00\x00 \x00\x00\x00#\x00\x00\x00\x89\x00\x00\x00\x17\x00\x00\x00\x80\x00\x00\x00~\x00\x00\x00^\x00\x00\x00\x0c\x00\x00\x00\x04\x00\x00\x00]\x00\x00\x00,\x00\x00\x00s\x00\x00\x00\x0e\x00\x00\x00K\x00\x00\x00\x12\x00\x00\x00Q\x00\x00\x00i\x00\x00\x00n\x00\x00\x00\x7f\x00\x00\x00\x05\x00\x00\x000\x00\x00\x00o\x00\x00\x00}\x00\x00\x00\x04\x00\x00\x00]\x00\x00\x00n\x00\x00\x00\x1f\x00\x00\x00\r\x00\x00\x006\x00\x00\x00\x10\x00\x00\x00v\x00\x00\x00\x11\x00\x00\x00b\x00\x00\x00\x13\x00\x00\x00O\x00\x00\x00\x14\x00\x00\x00E\x00\x00\x00l\x00\x00\x00>\x00\x00\x00w\x00\x00\x00\x07\x00\x00\x00@\x00\x00\x00\t\x00\x00\x00\x15\x00\x00\x00;\x00\x00\x00\x1d\x00\x00\x00{\x00\x00\x00|\x00\x00\x00+\x00\x00\x00\x05\x00\x00\x00}\x00\x00\x00~\x00\x00\x00n\x00\x00\x00\x11\x00\x00\x00b\x00\x00\x00\x13\x00\x00\x00E\x00\x00\x00>\x00\x00\x00@\x00\x00\x00\x15\x00\x00\x00D\x00\x00\x00C\x00\x00\x005\x00\x00\x00h\x00\x00\x00c\x00\x00\x00_\x00\x00\x00k\x00\x00\x00d\x00\x00\x00Z\x00\x00\x00U\x00\x00\x004\x00\x00\x00I\x00\x00\x00X\x00\x00\x00f\x00\x00\x00\x01\x00\x00\x00m\x00\x00\x003\x00\x00\x00\x81\x00\x00\x00G\x00\x00\x00\x06\x00\x00\x00\x05\x00\x00\x00o\x00\x00\x00}\x00\x00\x00\x89\x00\x00\x00\x17\x00\x00\x00\x80\x00\x00\x00n\x00\x00\x00\x1d\x00\x00\x005\x00\x00\x00\x19\x00\x00\x00B\x00\x00\x00\x87\x00\x00\x00\x82\x00\x00\x00\x05\x00\x00\x00}\x00\x00\x00\x0c\x00\x00\x00K\x00\x00\x00n\x00\x00\x00@\x00\x00\x00\x87\x00\x00\x00u\x00\x00\x00/\x00\x00\x007\x00\x00\x00"\x00\x00\x00$\x00\x00\x00r\x00\x00\x00\x03\x00\x00\x00!\x00\x00\x00\x85\x00\x00\x00&\x00\x00\x00\n\x00\x00\x00(\x00\x00\x00g\x00\x00\x00<\x00\x00\x00\x8a\x00\x00\x00j\x00\x00\x00H\x00\x00\x00\x0f\x00\x00\x00t\x00\x00\x00x\x00\x00\x00q\x00\x00\x00\x1c\x00\x00\x00\x83\x00\x00\x00\'\x00\x00\x00\x88\x00\x00\x00\x05\x00\x00\x00}\x00\x00\x00\x0c\x00\x00\x00n\x00\x00\x00@\x00\x00\x00\x87\x00\x00\x00u\x00\x00\x00/\x00\x00\x007\x00\x00\x00&\x00\x00\x00\x8c\x00\x00\x00\x8b\x00\x00\x00z\x00\x00\x00\x08\x00\x00\x00.\x00\x00\x00*\x00\x00\x00L\x00\x00\x00}\x00\x00\x00n\x00\x00\x00\x11\x00\x00\x00b\x00\x00\x00\x13\x00\x00\x00U\x00\x00\x00&\x00\x00\x00\x88\x00\x00\x00\x0b\x00\x00\x00W\x00\x00\x00M\x00\x00\x00\x00\x00\x00\x00\x1b\x00\x00\x00:\x00\x00\x00\x16\x00\x00\x00=\x00\x00\x00\x18\x00\x00\x00N\x00\x00\x00\x86\x00\x00\x00T\x00\x00\x00?\x00\x00\x00F\x00\x00\x00}\x00\x00\x00\x0c\x00\x00\x00n\x00\x00\x00\x15\x00\x00\x005\x00\x00\x00\x1b\x00\x00\x00:\x00\x00\x00\x16\x00\x00\x00P\x00\x00\x00\\\x00\x00\x00\x1a\x00\x00\x001\x00\x00\x00\x84\x00\x00\x00a\x00\x00\x00%\x00\x00\x00p\x00\x00\x002\x00\x00\x00y\x00\x00\x00e\x00\x00\x00}\x00\x00\x00n\x00\x00\x00;\x00\x00\x00X\x00\x00\x00q\x00\x00\x009\x00\x00\x00R\x00\x00\x00Y\x00\x00\x00)\x00\x00\x00}\x00\x00\x00#\x00\x00\x00^\x00\x00\x00b\x00\x00\x00\x13\x00\x00\x00U\x00\x00\x00\x02\x00\x00\x00J\x00\x00\x00S\x00\x00\x00\x1e\x00\x00\x00A\x00\x00\x008\x00\x00\x00`\x00\x00\x00-\x00\x00\x00'
p249
tp250
bsg77
I50
sg78
g55
(g56
(I0
tp251
g58
tp252
Rp253
(I1
(I212
tp254
g62
(S'i8'
p255
I0
I1
tp256
Rp257
(I3
S'<'
p258
NNNI-1
I-1
I0
tp259
bI00
S'\x01\x00\x00\x00\x00\x00\x00\x00\x01\x00\x00\x00\x00\x00\x00\x00\x01\x00\x00\x00\x00\x00\x00\x00\x01\x00\x00\x00\x00\x00\x00\x00\x01\x00\x00\x00\x00\x00\x00\x00\x01\x00\x00\x00\x00\x00\x00\x00\x01\x00\x00\x00\x00\x00\x00\x00\x01\x00\x00\x00\x00\x00\x00\x00\x01\x00\x00\x00\x00\x00\x00\x00\x01\x00\x00\x00\x00\x00\x00\x00\x01\x00\x00\x00\x00\x00\x00\x00\x01\x00\x00\x00\x00\x00\x00\x00\x01\x00\x00\x00\x00\x00\x00\x00\x03\x00\x00\x00\x00\x00\x00\x00\x01\x00\x00\x00\x00\x00\x00\x00\x01\x00\x00\x00\x00\x00\x00\x00\x01\x00\x00\x00\x00\x00\x00\x00\x01\x00\x00\x00\x00\x00\x00\x00\x01\x00\x00\x00\x00\x00\x00\x00\x01\x00\x00\x00\x00\x00\x00\x00\x01\x00\x00\x00\x00\x00\x00\x00\x01\x00\x00\x00\x00\x00\x00\x00\x01\x00\x00\x00\x00\x00\x00\x00\x01\x00\x00\x00\x00\x00\x00\x00\x01\x00\x00\x00\x00\x00\x00\x00\x01\x00\x00\x00\x00\x00\x00\x00\x01\x00\x00\x00\x00\x00\x00\x00\x01\x00\x00\x00\x00\x00\x00\x00\x02\x00\x00\x00\x00\x00\x00\x00\x01\x00\x00\x00\x00\x00\x00\x00\x01\x00\x00\x00\x00\x00\x00\x00\x02\x00\x00\x00\x00\x00\x00\x00\x01\x00\x00\x00\x00\x00\x00\x00\x01\x00\x00\x00\x00\x00\x00\x00\x01\x00\x00\x00\x00\x00\x00\x00\x01\x00\x00\x00\x00\x00\x00\x00\x01\x00\x00\x00\x00\x00\x00\x00\x01\x00\x00\x00\x00\x00\x00\x00\x01\x00\x00\x00\x00\x00\x00\x00\x02\x00\x00\x00\x00\x00\x00\x00\x01\x00\x00\x00\x00\x00\x00\x00\x01\x00\x00\x00\x00\x00\x00\x00\x01\x00\x00\x00\x00\x00\x00\x00\x01\x00\x00\x00\x00\x00\x00\x00\x01\x00\x00\x00\x00\x00\x00\x00\x01\x00\x00\x00\x00\x00\x00\x00\x01\x00\x00\x00\x00\x00\x00\x00\x01\x00\x00\x00\x00\x00\x00\x00\x01\x00\x00\x00\x00\x00\x00\x00\x01\x00\x00\x00\x00\x00\x00\x00\x01\x00\x00\x00\x00\x00\x00\x00\x01\x00\x00\x00\x00\x00\x00\x00\x01\x00\x00\x00\x00\x00\x00\x00\x01\x00\x00\x00\x00\x00\x00\x00\x01\x00\x00\x00\x00\x00\x00\x00\x02\x00\x00\x00\x00\x00\x00\x00\x03\x00\x00\x00\x00\x00\x00\x00\x01\x00\x00\x00\x00\x00\x00\x00\x01\x00\x00\x00\x00\x00\x00\x00\x01\x00\x00\x00\x00\x00\x00\x00\x02\x00\x00\x00\x00\x00\x00\x00\x03\x00\x00\x00\x00\x00\x00\x00\x01\x00\x00\x00\x00\x00\x00\x00\x01\x00\x00\x00\x00\x00\x00\x00\x01\x00\x00\x00\x00\x00\x00\x00\x01\x00\x00\x00\x00\x00\x00\x00\x01\x00\x00\x00\x00\x00\x00\x00\x01\x00\x00\x00\x00\x00\x00\x00\x01\x00\x00\x00\x00\x00\x00\x00\x01\x00\x00\x00\x00\x00\x00\x00\x01\x00\x00\x00\x00\x00\x00\x00\x01\x00\x00\x00\x00\x00\x00\x00\x01\x00\x00\x00\x00\x00\x00\x00\x01\x00\x00\x00\x00\x00\x00\x00\x01\x00\x00\x00\x00\x00\x00\x00\x01\x00\x00\x00\x00\x00\x00\x00\x01\x00\x00\x00\x00\x00\x00\x00\x01\x00\x00\x00\x00\x00\x00\x00\x01\x00\x00\x00\x00\x00\x00\x00\x01\x00\x00\x00\x00\x00\x00\x00\x01\x00\x00\x00\x00\x00\x00\x00\x01\x00\x00\x00\x00\x00\x00\x00\x01\x00\x00\x00\x00\x00\x00\x00\x01\x00\x00\x00\x00\x00\x00\x00\x01\x00\x00\x00\x00\x00\x00\x00\x01\x00\x00\x00\x00\x00\x00\x00\x01\x00\x00\x00\x00\x00\x00\x00\x01\x00\x00\x00\x00\x00\x00\x00\x01\x00\x00\x00\x00\x00\x00\x00\x01\x00\x00\x00\x00\x00\x00\x00\x01\x00\x00\x00\x00\x00\x00\x00\x01\x00\x00\x00\x00\x00\x00\x00\x01\x00\x00\x00\x00\x00\x00\x00\x01\x00\x00\x00\x00\x00\x00\x00\x01\x00\x00\x00\x00\x00\x00\x00\x01\x00\x00\x00\x00\x00\x00\x00\x01\x00\x00\x00\x00\x00\x00\x00\x01\x00\x00\x00\x00\x00\x00\x00\x01\x00\x00\x00\x00\x00\x00\x00\x02\x00\x00\x00\x00\x00\x00\x00\x05\x00\x00\x00\x00\x00\x00\x00\x02\x00\x00\x00\x00\x00\x00\x00\x01\x00\x00\x00\x00\x00\x00\x00\x01\x00\x00\x00\x00\x00\x00\x00\x01\x00\x00\x00\x00\x00\x00\x00\x01\x00\x00\x00\x00\x00\x00\x00\x02\x00\x00\x00\x00\x00\x00\x00\x02\x00\x00\x00\x00\x00\x00\x00\x01\x00\x00\x00\x00\x00\x00\x00\x01\x00\x00\x00\x00\x00\x00\x00\x01\x00\x00\x00\x00\x00\x00\x00\x01\x00\x00\x00\x00\x00\x00\x00\x01\x00\x00\x00\x00\x00\x00\x00\x01\x00\x00\x00\x00\x00\x00\x00\x01\x00\x00\x00\x00\x00\x00\x00\x01\x00\x00\x00\x00\x00\x00\x00\x01\x00\x00\x00\x00\x00\x00\x00\x01\x00\x00\x00\x00\x00\x00\x00\x01\x00\x00\x00\x00\x00\x00\x00\x01\x00\x00\x00\x00\x00\x00\x00\x01\x00\x00\x00\x00\x00\x00\x00\x01\x00\x00\x00\x00\x00\x00\x00\x01\x00\x00\x00\x00\x00\x00\x00\x01\x00\x00\x00\x00\x00\x00\x00\x01\x00\x00\x00\x00\x00\x00\x00\x01\x00\x00\x00\x00\x00\x00\x00\x01\x00\x00\x00\x00\x00\x00\x00\x01\x00\x00\x00\x00\x00\x00\x00\x01\x00\x00\x00\x00\x00\x00\x00\x01\x00\x00\x00\x00\x00\x00\x00\x01\x00\x00\x00\x00\x00\x00\x00\x01\x00\x00\x00\x00\x00\x00\x00\x01\x00\x00\x00\x00\x00\x00\x00\x01\x00\x00\x00\x00\x00\x00\x00\x01\x00\x00\x00\x00\x00\x00\x00\x01\x00\x00\x00\x00\x00\x00\x00\x01\x00\x00\x00\x00\x00\x00\x00\x01\x00\x00\x00\x00\x00\x00\x00\x01\x00\x00\x00\x00\x00\x00\x00\x01\x00\x00\x00\x00\x00\x00\x00\x01\x00\x00\x00\x00\x00\x00\x00\x01\x00\x00\x00\x00\x00\x00\x00\x01\x00\x00\x00\x00\x00\x00\x00\x01\x00\x00\x00\x00\x00\x00\x00\x01\x00\x00\x00\x00\x00\x00\x00\x01\x00\x00\x00\x00\x00\x00\x00\x01\x00\x00\x00\x00\x00\x00\x00\x01\x00\x00\x00\x00\x00\x00\x00\x03\x00\x00\x00\x00\x00\x00\x00\x01\x00\x00\x00\x00\x00\x00\x00\x01\x00\x00\x00\x00\x00\x00\x00\x01\x00\x00\x00\x00\x00\x00\x00\x01\x00\x00\x00\x00\x00\x00\x00\x01\x00\x00\x00\x00\x00\x00\x00\x01\x00\x00\x00\x00\x00\x00\x00\x01\x00\x00\x00\x00\x00\x00\x00\x01\x00\x00\x00\x00\x00\x00\x00\x01\x00\x00\x00\x00\x00\x00\x00\x01\x00\x00\x00\x00\x00\x00\x00\x01\x00\x00\x00\x00\x00\x00\x00\x01\x00\x00\x00\x00\x00\x00\x00\x01\x00\x00\x00\x00\x00\x00\x00\x01\x00\x00\x00\x00\x00\x00\x00\x01\x00\x00\x00\x00\x00\x00\x00\x01\x00\x00\x00\x00\x00\x00\x00\x01\x00\x00\x00\x00\x00\x00\x00\x01\x00\x00\x00\x00\x00\x00\x00\x01\x00\x00\x00\x00\x00\x00\x00\x01\x00\x00\x00\x00\x00\x00\x00\x01\x00\x00\x00\x00\x00\x00\x00\x01\x00\x00\x00\x00\x00\x00\x00\x02\x00\x00\x00\x00\x00\x00\x00\x01\x00\x00\x00\x00\x00\x00\x00\x01\x00\x00\x00\x00\x00\x00\x00\x01\x00\x00\x00\x00\x00\x00\x00\x01\x00\x00\x00\x00\x00\x00\x00\x01\x00\x00\x00\x00\x00\x00\x00\x01\x00\x00\x00\x00\x00\x00\x00\x01\x00\x00\x00\x00\x00\x00\x00\x01\x00\x00\x00\x00\x00\x00\x00\x01\x00\x00\x00\x00\x00\x00\x00\x01\x00\x00\x00\x00\x00\x00\x00\x01\x00\x00\x00\x00\x00\x00\x00\x01\x00\x00\x00\x00\x00\x00\x00\x01\x00\x00\x00\x00\x00\x00\x00\x01\x00\x00\x00\x00\x00\x00\x00\x01\x00\x00\x00\x00\x00\x00\x00\x01\x00\x00\x00\x00\x00\x00\x00\x01\x00\x00\x00\x00\x00\x00\x00\x01\x00\x00\x00\x00\x00\x00\x00\x01\x00\x00\x00\x00\x00\x00\x00\x02\x00\x00\x00\x00\x00\x00\x00\x01\x00\x00\x00\x00\x00\x00\x00\x01\x00\x00\x00\x00\x00\x00\x00\x01\x00\x00\x00\x00\x00\x00\x00\x01\x00\x00\x00\x00\x00\x00\x00\x01\x00\x00\x00\x00\x00\x00\x00\x01\x00\x00\x00\x00\x00\x00\x00\x01\x00\x00\x00\x00\x00\x00\x00\x01\x00\x00\x00\x00\x00\x00\x00\x01\x00\x00\x00\x00\x00\x00\x00\x01\x00\x00\x00\x00\x00\x00\x00\x01\x00\x00\x00\x00\x00\x00\x00\x01\x00\x00\x00\x00\x00\x00\x00\x01\x00\x00\x00\x00\x00\x00\x00\x01\x00\x00\x00\x00\x00\x00\x00\x01\x00\x00\x00\x00\x00\x00\x00\x01\x00\x00\x00\x00\x00\x00\x00\x01\x00\x00\x00\x00\x00\x00\x00\x01\x00\x00\x00\x00\x00\x00\x00\x01\x00\x00\x00\x00\x00\x00\x00\x01\x00\x00\x00\x00\x00\x00\x00'
p260
tp261
bsbsbsS'abstract'
p262
g39
sS'p_t'
p263
g44
(g45
g46
Ntp264
Rp265
(dp266
g50
S'csr'
p267
sg52
(I10
I10
tp268
sS'_has_sorted_indices'
p269
I01
sg54
g55
(g56
(I0
tp270
g58
tp271
Rp272
(I1
(I11
tp273
g62
(S'i4'
p274
I0
I1
tp275
Rp276
(I3
S'<'
p277
NNNI-1
I-1
I0
tp278
bI00
S'\x00\x00\x00\x00\x01\x00\x00\x00\x02\x00\x00\x00\x03\x00\x00\x00\x04\x00\x00\x00\x05\x00\x00\x00\x06\x00\x00\x00\x07\x00\x00\x00\x08\x00\x00\x00\t\x00\x00\x00\n\x00\x00\x00'
p279
tp280
bsg70
g55
(g56
(I0
tp281
g58
tp282
Rp283
(I1
(I10
tp284
g276
I00
S'\x00\x00\x00\x00\x01\x00\x00\x00\x02\x00\x00\x00\x03\x00\x00\x00\x04\x00\x00\x00\x05\x00\x00\x00\x06\x00\x00\x00\x07\x00\x00\x00\x08\x00\x00\x00\t\x00\x00\x00'
p285
tp286
bsg77
I50
sg78
g55
(g56
(I0
tp287
g58
tp288
Rp289
(I1
(I10
tp290
g85
I00
S'\x00\x00\x00\x00\x00\x00\xf0?\x00\x00\x00\x00\x00\x00\xf0?\x00\x00\x00\x00\x00\x00\xf0?\x00\x00\x00\x00\x00\x00\xf0?\x00\x00\x00\x00\x00\x00\xf0?\x00\x00\x00\x00\x00\x00\xf0?\x00\x00\x00\x00\x00\x00\xf0?\x00\x00\x00\x00\x00\x00\xf0?\x00\x00\x00\x00\x00\x00\xf0?\x00\x00\x00\x00\x00\x00\xf0?'
p291
tp292
bsbsS'section_id_dict'
p293
(dp294
S'global'
p295
I0
ssS'keycount'
p296
(isxpProcessParaText
sxpTextCount
p297
(dp298
S'total_keywordsize'
p299
I6624
sg296
ccollections
Counter
p300
((dp301
S'raining'
p302
I1
sS'writings'
p303
I1
sS'demand'
p304
I1
sS'sonja'
p305
I1
sS'four'
p306
I1
sS'rocketing'
p307
I1
sS'protest'
p308
I1
sS'clotted'
p309
I1
sS'elegy'
p310
I1
sS'trotman'
p311
I1
sS'railing'
p312
I1
sS'woody'
p313
I1
sS'whose'
p314
I1
sS'buddy'
p315
I1
sS'aug'
p316
I1
sS'marcos'
p317
I1
sS'electricity'
p318
I1
sS'tremors'
p319
I1
sS'quadruple'
p320
I1
sS'presents'
p321
I1
sS'fingernails'
p322
I1
sS'lord'
p323
I1
sS'immature'
p324
I1
sS'burnette'
p325
I1
sS'sinking'
p326
I1
sS'digit'
p327
I1
sS'rescue'
p328
I1
sS'downstream'
p329
I1
sS'communique'
p330
I1
sS'oceans'
p331
I1
sS'raising'
p332
I1
sS'georgia'
p333
I1
sS'foul'
p334
I1
sS'reforms'
p335
I1
sS'affect'
p336
I1
sS'screaming'
p337
I1
sS'chetumal'
p338
I1
sS'sichuan'
p339
I1
sS'prize'
p340
I1
sS'facilities'
p341
I1
sS'wooden'
p342
I1
sS'companies'
p343
I1
sS'wednesday'
p344
I1
sS'fanciers'
p345
I1
sS'persisted'
p346
I1
sS'intensification'
p347
I1
sS'shouting'
p348
I1
sS'cholesterol'
p349
I1
sS'fishzohn'
p350
I1
sS'commented'
p351
I1
sS'guardsmen'
p352
I1
sS'winded'
p353
I1
sS'kuron'
p354
I1
sS'natarajah'
p355
I1
sS'aides'
p356
I1
sS'japanese'
p357
I1
sS'pulse'
p358
I1
sS'budget'
p359
I1
sS'elegant'
p360
I1
sS'second'
p361
I1
sS'attended'
p362
I1
sS'275'
p363
I1
sS'277'
p364
I1
sS'sailed'
p365
I1
sS'even'
p366
I1
sS'spouses'
p367
I1
sS'wreck'
p368
I1
sS'hate'
p369
I1
sS'cooking'
p370
I1
sS'contributed'
p371
I1
sS'asia'
p372
I1
sS'spokesman'
p373
I1
sS'lights'
p374
I1
sS'fossil'
p375
I1
sS'hull'
p376
I1
sS'new'
p377
I1
sS'net'
p378
I1
sS'increasing'
p379
I1
sS'ever'
p380
I1
sS'admiral'
p381
I1
sS'consular'
p382
I1
sS'specialist'
p383
I1
sS'deemed'
p384
I1
sS'barometer'
p385
I1
sS'reporter'
p386
I1
sS'avery'
p387
I1
sS'herb'
p388
I1
sS'error'
p389
I1
sS'here'
p390
I1
sS'reported'
p391
I1
sS'109'
p392
I1
sS'china'
p393
I1
sS'brooks'
p394
I1
sS'active'
p395
I1
sS'100'
p396
I1
sS'101'
p397
I1
sS'tatum'
p398
I1
sS'104'
p399
I1
sS'105'
p400
I1
sS'dry'
p401
I1
sS'yugoslavians'
p402
I1
sS'flatlands'
p403
I1
sS'k'
p404
I1
sS'recordings'
p405
I1
sS'reports'
p406
I1
sS'controversy'
p407
I1
sS'golds'
p408
I1
sS'bayh'
p409
I1
sS'celestum'
p410
I1
sS'katarzyna'
p411
I1
sS'military'
p412
I1
sS'spotty'
p413
I1
sS'brownsville'
p414
I1
sS'golden'
p415
I1
sS'besides'
p416
I1
sS'campaign'
p417
I1
sS'reagan'
p418
I1
sS'lynne'
p419
I1
sS'brought'
p420
I1
sS'ninety'
p421
I1
sS'guests'
p422
I1
sS'jackets'
p423
I1
sS'unit'
p424
I1
sS'opponents'
p425
I1
sS'cheating'
p426
I1
sS'spoke'
p427
I1
sS'army'
p428
I1
sS'keith'
p429
I1
sS'watering'
p430
I1
sS'cents'
p431
I1
sS'symphony'
p432
I1
sS'music'
p433
I1
sS'therefore'
p434
I1
sS'strike'
p435
I1
sS'survive'
p436
I1
sS'type'
p437
I1
sS'until'
p438
I1
sS'preparation'
p439
I1
sS'supporters'
p440
I1
sS'relay'
p441
I1
sS'schroeder'
p442
I1
sS'benefiting'
p443
I1
sS'wars'
p444
I1
sS'hurt'
p445
I1
sS'99'
p446
I1
sS'warm'
p447
I1
sS'adult'
p448
I1
sS'tying'
p449
I1
sS'teaching'
p450
I1
sS'90'
p451
I1
sS'93'
p452
I1
sS'hold'
p453
I1
sS'95'
p454
I1
sS'94'
p455
I1
sS'tastefully'
p456
I1
sS'locked'
p457
I1
sS'room'
p458
I1
sS'rights'
p459
I1
sS'pursue'
p460
I1
sS'famed'
p461
I1
sS'plunged'
p462
I1
sS'roof'
p463
I1
sS'standby'
p464
I1
sS'temperatures'
p465
I1
sS'giron'
p466
I1
sS'example'
p467
I1
sS'triple'
p468
I1
sS'nitrates'
p469
I1
sS'pints'
p470
I1
sS'bisexuality'
p471
I1
sS'household'
p472
I1
sS'organized'
p473
I1
sS'updated'
p474
I1
sS'dragons'
p475
I1
sS'currency'
p476
I1
sS'foods'
p477
I1
sS'want'
p478
I1
sS'legislators'
p479
I1
sS'organizer'
p480
I1
sS'hog'
p481
I1
sS'autonomy'
p482
I1
sS'tchaikovsky'
p483
I1
sS'complaining'
p484
I1
sS'travel'
p485
I1
sS'drying'
p486
I1
sS'damage'
p487
I1
sS'machine'
p488
I1
sS'how'
p489
I1
sS'hot'
p490
I1
sS'erina'
p491
I1
sS'answer'
p492
I1
sS'symposium'
p493
I1
sS'faulty'
p494
I1
sS'aboard'
p495
I1
sS'regional'
p496
I1
sS'minority'
p497
I1
sS'beauty'
p498
I1
sS'outlawed'
p499
I1
sS'schoolchildren'
p500
I1
sS'waterfront'
p501
I1
sS'president'
p502
I1
sS'types'
p503
I1
sS'inactivity'
p504
I1
sS'attempt'
p505
I1
sS'effective'
p506
I1
sS'communities'
p507
I1
sS'youths'
p508
I1
sS'romped'
p509
I1
sS'revolt'
p510
I1
sS'headquarters'
p511
I1
sS'sickening'
p512
I1
sS'18th'
p513
I1
sS'frequent'
p514
I1
sS'keeps'
p515
I1
sS'fairlamb'
p516
I1
sS'democratic'
p517
I1
sS'athletes'
p518
I1
sS'wing'
p519
I1
sS'wind'
p520
I1
sS'stockpiled'
p521
I1
sS'senators'
p522
I1
sS'foresaw'
p523
I1
sS'feedback'
p524
I1
sS'deck'
p525
I1
sS'thousands'
p526
I1
sS'suspend'
p527
I1
sS'budding'
p528
I1
sS'owens'
p529
I1
sS'dreamer'
p530
I1
sS'personal'
p531
I1
sS'bringing'
p532
I1
sS'haylift'
p533
I1
sS'colliery'
p534
I1
sS'intelligentsia'
p535
I1
sS'crew'
p536
I1
sS'survivors'
p537
I1
sS'enlisted'
p538
I1
sS'wales'
p539
I1
sS'weeks'
p540
I1
sS'surcharges'
p541
I1
sS'overcome'
p542
I1
sS'donors'
p543
I1
sS'sailfishes'
p544
I1
sS'combination'
p545
I1
sS'hardships'
p546
I1
sS'peoples'
p547
I1
sS'dequeen'
p548
I1
sS'effects'
p549
I1
sS'schools'
p550
I1
sS'neared'
p551
I1
sS'township'
p552
I1
sS'silver'
p553
I1
sS'bricks'
p554
I1
sS'represents'
p555
I1
sS'grammar'
p556
I1
sS'lillian'
p557
I1
sS'lorena'
p558
I1
sS'debut'
p559
I1
sS'arrested'
p560
I1
sS'skills'
p561
I1
sS'daughters'
p562
I1
sS'addicted'
p563
I1
sS'went'
p564
I1
sS'side'
p565
I1
sS'mean'
p566
I1
sS'expectancy'
p567
I1
sS'financial'
p568
I1
sS'chios'
p569
I1
sS'series'
p570
I1
sS'spanish'
p571
I1
sS'thelma'
p572
I1
sS'carry'
p573
I1
sS'taught'
p574
I1
sS'trading'
p575
I1
sS'doug'
p576
I1
sS'substantially'
p577
I1
sS'temporary'
p578
I1
sS'dawn'
p579
I1
sS'message'
p580
I1
sS'after'
p581
I1
sS'tales'
p582
I1
sS'george'
p583
I1
sS're'
p584
I1
sS'ra'
p585
I1
sS'surprise'
p586
I1
sS'foundation'
p587
I1
sS'customarily'
p588
I1
sS'turning'
p589
I1
sS'sellout'
p590
I1
sS'lanham'
p591
I1
sS'threatened'
p592
I1
sS'revenge'
p593
I1
sS'ramon'
p594
I1
sS'huston'
p595
I1
sS'jennie'
p596
I1
sS'240'
p597
I1
sS'estimate'
p598
I1
sS'enormous'
p599
I1
sS'ate'
p600
I1
sS'logging'
p601
I1
sS'shelves'
p602
I1
sS'starts'
p603
I1
sS'motels'
p604
I1
sS'507'
p605
I1
sS'heading'
p606
I1
sS'shipped'
p607
I1
sS'musicians'
p608
I1
sS'isn'
p609
I1
sS'1970s'
p610
I1
sS'kingdom'
p611
I1
sS'arrived'
p612
I1
sS'symbolize'
p613
I1
sS'features'
p614
I1
sS'economists'
p615
I1
sS'steroids'
p616
I1
sS'grade'
p617
I1
sS'wash'
p618
I1
sS'spinning'
p619
I1
sS'floors'
p620
I1
sS'179'
p621
I1
sS'wasn'
p622
I1
sS'hear'
p623
I1
sS'force'
p624
I1
sS'175'
p625
I1
sS'elms'
p626
I1
sS'172'
p627
I1
sS'leaders'
p628
I1
sS'bitten'
p629
I1
sS'innundating'
p630
I1
sS'basketball'
p631
I1
sS'renovated'
p632
I1
sS'service'
p633
I1
sS'influence'
p634
I1
sS'painist'
p635
I1
sS'recruiting'
p636
I1
sS'needed'
p637
I1
sS'master'
p638
I1
sS'listed'
p639
I1
sS'gilbert'
p640
I1
sS'bitter'
p641
I1
sS'ranging'
p642
I1
sS'listen'
p643
I1
sS'collapse'
p644
I1
sS'villages'
p645
I1
sS'somewhat'
p646
I1
sS'gambler'
p647
I1
sS'begins'
p648
I1
sS'anxiety'
p649
I1
sS'showed'
p650
I1
sS'princeton'
p651
I1
sS'kenji'
p652
I1
sS'coward'
p653
I1
sS'tree'
p654
I1
sS'likely'
p655
I1
sS'nations'
p656
I1
sS'project'
p657
I1
sS'matter'
p658
I1
sS'street'
p659
I1
sS'wiesel'
p660
I1
sS'gives'
p661
I1
sS'sills'
p662
I1
sS'acclaim'
p663
I1
sS'sees'
p664
I1
sS'willingness'
p665
I1
sS'hue'
p666
I1
sS'runner'
p667
I1
sS'boston'
p668
I1
sS'modern'
p669
I1
sS'mind'
p670
I1
sS'mine'
p671
I1
sS'anybody'
p672
I1
sS'antagonistic'
p673
I1
sS'shrubs'
p674
I1
sS'emphasizing'
p675
I1
sS'seen'
p676
I1
sS'seek'
p677
I1
sS'tells'
p678
I1
sS'alive'
p679
I1
sS'dozen'
p680
I1
sS'affairs'
p681
I1
sS'biographies'
p682
I1
sS'paramedics'
p683
I1
sS'60th'
p684
I1
sS'responsible'
p685
I1
sS'mcallen'
p686
I1
sS'recommended'
p687
I1
sS'causing'
p688
I1
sS'doors'
p689
I1
sS'responsibly'
p690
I1
sS'worsening'
p691
I1
sS'kremlin'
p692
I1
sS'irrigated'
p693
I1
sS'clapton'
p694
I1
sS'cassettes'
p695
I1
sS'victoria'
p696
I1
sS'kelly'
p697
I1
sS'regular'
p698
I1
sS'mouth'
p699
I1
sS'letter'
p700
I1
sS'conceded'
p701
I1
sS'drought'
p702
I1
sS'maria'
p703
I1
sS'zealand'
p704
I1
sS'dummy'
p705
I1
sS'episode'
p706
I1
sS'professor'
p707
I1
sS'camp'
p708
I1
sS'detectors'
p709
I1
sS'dog'
p710
I1
sS'competitors'
p711
I1
sS'definitely'
p712
I1
sS'dov'
p713
I1
sS'dow'
p714
I1
sS'came'
p715
I1
sS'saying'
p716
I1
sS'beaten'
p717
I1
sS'bomb'
p718
I1
sS'hunger'
p719
I1
sS'orchestra'
p720
I1
sS'bonnie'
p721
I1
sS'nominated'
p722
I1
sS'ending'
p723
I1
sS'padded'
p724
I1
sS'attempts'
p725
I1
sS'gauge'
p726
I1
sS'hungary'
p727
I1
sS'psara'
p728
I1
sS'nevada'
p729
I1
sS'orleans'
p730
I1
sS'judges'
p731
I1
sS'northeast'
p732
I1
sS'advanced'
p733
I1
sS'milica'
p734
I1
sS'weekends'
p735
I1
sS'bust'
p736
I1
sS'rico'
p737
I1
sS'bush'
p738
I1
sS'touched'
p739
I1
sS'rich'
p740
I1
sS'eugene'
p741
I1
sS'rice'
p742
I1
sS'jailed'
p743
I1
sS'wearing'
p744
I1
sS'plate'
p745
I1
sS'strip'
p746
I1
sS'colorful'
p747
I1
sS'guthrie'
p748
I1
sS'stop'
p749
I1
sS'psychiatric'
p750
I1
sS'coast'
p751
I1
sS'pocket'
p752
I1
sS'12'
p753
I1
sS'dorris'
p754
I1
sS'mention'
p755
I1
sS'14'
p756
I1
sS'earn'
p757
I1
sS'bar'
p758
I1
sS'sailing'
p759
I1
sS'flour'
p760
I1
sS'fields'
p761
I1
sS'lavalle'
p762
I1
sS'patch'
p763
I1
sS'bad'
p764
I1
sS'disney'
p765
I1
sS'18'
p766
I1
sS'release'
p767
I1
sS'boarded'
p768
I1
sS'mintz'
p769
I1
sS'saul'
p770
I1
sS'respond'
p771
I1
sS'blew'
p772
I1
sS'mandatory'
p773
I1
sS'disaster'
p774
I1
sS'fair'
p775
I1
sS'job'
p776
I1
sS'fluffy'
p777
I1
sS'testing'
p778
I1
sS'unexpectedly'
p779
I1
sS'decided'
p780
I1
sS'result'
p781
I1
sS'fail'
p782
I1
sS'interruptions'
p783
I1
sS'best'
p784
I1
sS'pete'
p785
I1
sS'oceanic'
p786
I1
sS'said'
p787
I1
sS'06'
p788
I1
sS'07'
p789
I1
sS'peto'
p790
I1
sS'09'
p791
I1
sS'injuries'
p792
I1
sS'narrates'
p793
I1
sS'score'
p794
I1
sS'olympics'
p795
I1
sS'kersee'
p796
I1
sS'pirate'
p797
I1
sS'preserve'
p798
I1
sS'biratnagar'
p799
I1
sS'felons'
p800
I1
sS'parallels'
p801
I1
sS'debi'
p802
I1
sS'tables'
p803
I1
sS'rolled'
p804
I1
sS'physicist'
p805
I1
sS'flagged'
p806
I1
sS'380'
p807
I1
sS'cards'
p808
I1
sS'loading'
p809
I1
sS'drew'
p810
I1
sS'extent'
p811
I1
sS'carbon'
p812
I1
sS'excavate'
p813
I1
sS'suggested'
p814
I1
sS'accident'
p815
I1
sS'veer'
p816
I1
sS'met'
p817
I1
sS'conch'
p818
I1
sS'country'
p819
I1
sS'himalayas'
p820
I1
sS'uncertainty'
p821
I1
sS'edgar'
p822
I1
sS'amazing'
p823
I1
sS'und'
p824
I1
sS'planned'
p825
I1
sS'himalayan'
p826
I1
sS'ernst'
p827
I1
sS'asked'
p828
I1
sS'uno'
p829
I1
sS'mangan'
p830
I1
sS'untruths'
p831
I1
sS'winnie'
p832
I1
sS'sheds'
p833
I1
sS'uttar'
p834
I1
sS'jamaicans'
p835
I1
sS'height'
p836
I1
sS'offerings'
p837
I1
sS'102'
p838
I1
sS'uttam'
p839
I1
sS'tetulia'
p840
I1
sS'250'
p841
I1
sS'256'
p842
I1
sS'257'
p843
I1
sS'rainer'
p844
I1
sS'contestants'
p845
I1
sS'burton'
p846
I1
sS'proceeded'
p847
I1
sS'sam'
p848
I1
sS'billing'
p849
I1
sS'eager'
p850
I1
sS'union'
p851
I1
sS'anc'
p852
I1
sS'three'
p853
I1
sS'tiny'
p854
I1
sS'commission'
p855
I1
sS'much'
p856
I1
sS'stadium'
p857
I1
sS'basic'
p858
I1
sS'entered'
p859
I1
sS'yadaw'
p860
I1
sS'idol'
p861
I1
sS'threw'
p862
I1
sS'life'
p863
I1
sS'crying'
p864
I1
sS'eastern'
p865
I1
sS'hospitalized'
p866
I1
sS'turned'
p867
I1
sS'sunshine'
p868
I1
sS'worker'
p869
I1
sS'irving'
p870
I1
sS'shattering'
p871
I1
sS'dave'
p872
I1
sS'lift'
p873
I1
sS'tolled'
p874
I1
sS'aviation'
p875
I1
sS'worked'
p876
I1
sS'160'
p877
I1
sS'sikkim'
p878
I1
sS'chill'
p879
I1
sS'presidency'
p880
I1
sS'winding'
p881
I1
sS'oboist'
p882
I1
sS'neal'
p883
I1
sS'calcium'
p884
I1
sS'near'
p885
I1
sS'decapitated'
p886
I1
sS'suppose'
p887
I1
sS'misquotes'
p888
I1
sS'reconnaissance'
p889
I1
sS'balance'
p890
I1
sS'flooding'
p891
I1
sS'study'
p892
I1
sS'mesquite'
p893
I1
sS'seven'
p894
I1
sS'existence'
p895
I1
sS'played'
p896
I1
sS'equator'
p897
I1
sS'carlson'
p898
I1
sS'is'
p899
I1
sS'it'
p900
I1
sS'defeated'
p901
I1
sS'ii'
p902
I1
sS'player'
p903
I1
sS'il'
p904
I1
sS'granma'
p905
I1
sS'in'
p906
I1
sS'violin'
p907
I1
sS'seattle'
p908
I1
sS'shailendra'
p909
I1
sS'if'
p910
I1
sS'grown'
p911
I1
sS'damaged'
p912
I1
sS'taped'
p913
I1
sS'things'
p914
I1
sS'make'
p915
I1
sS'bottled'
p916
I1
sS'split'
p917
I1
sS'babies'
p918
I1
sS'leader'
p919
I1
sS'european'
p920
I1
sS'fairly'
p921
I1
sS'dennert'
p922
I1
sS'mujeres'
p923
I1
sS'napoletano'
p924
I1
sS'tops'
p925
I1
sS'marched'
p926
I1
sS'scale'
p927
I1
sS'novels'
p928
I1
sS'vibrated'
p929
I1
sS'tuna'
p930
I1
sS'nurtured'
p931
I1
sS'thoughts'
p932
I1
sS'programs'
p933
I1
sS'changes'
p934
I1
sS'academic'
p935
I1
sS'practices'
p936
I1
sS'claims'
p937
I1
sS'800'
p938
I1
sS'left'
p939
I1
sS'rancorous'
p940
I1
sS'capitol'
p941
I1
sS'alluded'
p942
I1
sS'decreasing'
p943
I1
sS'sporting'
p944
I1
sS'unfair'
p945
I1
sS'assigned'
p946
I1
sS'fighters'
p947
I1
sS'identify'
p948
I1
sS'human'
p949
I1
sS'plight'
p950
I1
sS'32'
p951
I1
sS'rushing'
p952
I1
sS'proofing'
p953
I1
sS'previous'
p954
I1
sS'buyers'
p955
I1
sS'enters'
p956
I1
sS'hal'
p957
I1
sS'ham'
p958
I1
sS'candidate'
p959
I1
sS'sciences'
p960
I1
sS'gennip'
p961
I1
sS'ease'
p962
I1
sS'had'
p963
I1
sS'about'
p964
I1
sS'hay'
p965
I1
sS'potential'
p966
I1
sS'ikeda'
p967
I1
sS'easy'
p968
I1
sS'prison'
p969
I1
sS'east'
p970
I1
sS'egan'
p971
I1
sS'survival'
p972
I1
sS'posed'
p973
I1
sS'possible'
p974
I1
sS'possibly'
p975
I1
sS'discreet'
p976
I1
sS'birth'
p977
I1
sS'performance'
p978
I1
sS'unique'
p979
I1
sS'dreams'
p980
I1
sS'wreckage'
p981
I1
sS'afire'
p982
I1
sS'county'
p983
I1
sS'performing'
p984
I1
sS'alice'
p985
I1
sS'steps'
p986
I1
sS'malnutrition'
p987
I1
sS'yerevan'
p988
I1
sS'ola'
p989
I1
sS'attorney'
p990
I1
sS'right'
p991
I1
sS'old'
p992
I1
sS'creek'
p993
I1
sS'crowd'
p994
I1
sS'people'
p995
I1
sS'landfall'
p996
I1
sS'crown'
p997
I1
sS'begin'
p998
I1
sS'dead'
p999
I1
sS'jupiter'
p1000
I1
sS'winds'
p1001
I1
sS'insistence'
p1002
I1
sS'billboard'
p1003
I1
sS'amiable'
p1004
I1
sS'manifest'
p1005
I1
sS'consensus'
p1006
I1
sS'tracked'
p1007
I1
sS'for'
p1008
I1
sS'bottom'
p1009
I1
sS'soto'
p1010
I1
sS'arthur'
p1011
I1
sS'creative'
p1012
I1
sS'treadmill'
p1013
I1
sS'surging'
p1014
I1
sS'completly'
p1015
I1
sS'loudspeakers'
p1016
I1
sS'particular'
p1017
I1
sS'shakes'
p1018
I1
sS'statue'
p1019
I1
sS'bold'
p1020
I1
sS'energy'
p1021
I1
sS'diltiazem'
p1022
I1
sS'burn'
p1023
I1
sS'losing'
p1024
I1
sS'yoko'
p1025
I1
sS'boycotts'
p1026
I1
sS'unstable'
p1027
I1
sS'dollars'
p1028
I1
sS'citizens'
p1029
I1
sS'words'
p1030
I1
sS'beta'
p1031
I1
sS'o'
p1032
I1
sS'essential'
p1033
I1
sS'bicentennial'
p1034
I1
sS'magazine'
p1035
I1
sS'afternoon'
p1036
I1
sS'162'
p1037
I1
sS'islands'
p1038
I1
sS'lacked'
p1039
I1
sS'slightly'
p1040
I1
sS'nixon'
p1041
I1
sS'raised'
p1042
I1
sS'statements'
p1043
I1
sS'marshall'
p1044
I1
sS'ghagara'
p1045
I1
sS'son'
p1046
I1
sS'down'
p1047
I1
sS'thankful'
p1048
I1
sS'raises'
p1049
I1
sS'reducing'
p1050
I1
sS'soon'
p1051
I1
sS'murderers'
p1052
I1
sS'communists'
p1053
I1
sS'weathered'
p1054
I1
sS'support'
p1055
I1
sS'tennis'
p1056
I1
sS'chevalier'
p1057
I1
sS'waitz'
p1058
I1
sS'bolshoi'
p1059
I1
sS'splendid'
p1060
I1
sS'joseph'
p1061
I1
sS'authorized'
p1062
I1
sS'call'
p1063
I1
sS'thalberg'
p1064
I1
sS'happy'
p1065
I1
sS'offering'
p1066
I1
sS'offer'
p1067
I1
sS'fireworks'
p1068
I1
sS'cuban'
p1069
I1
sS'ford'
p1070
I1
sS'failure'
p1071
I1
sS'hemisphere'
p1072
I1
sS'sagar'
p1073
I1
sS'justify'
p1074
I1
sS'225'
p1075
I1
sS'safeguard'
p1076
I1
sS'otter'
p1077
I1
sS'tampico'
p1078
I1
sS'understood'
p1079
I1
sS'assessment'
p1080
I1
sS'inside'
p1081
I1
sS'milligrams'
p1082
I1
sS'attached'
p1083
I1
sS'tell'
p1084
I1
sS'economic'
p1085
I1
sS'complications'
p1086
I1
sS'smashed'
p1087
I1
sS'stages'
p1088
I1
sS'generals'
p1089
I1
sS'750'
p1090
I1
sS'150'
p1091
I1
sS'later'
p1092
I1
sS'disgrace'
p1093
I1
sS'sticks'
p1094
I1
sS'157'
p1095
I1
sS'156'
p1096
I1
sS'implications'
p1097
I1
sS'arnal'
p1098
I1
sS'proven'
p1099
I1
sS'sale'
p1100
I1
sS'floating'
p1101
I1
sS'dealer'
p1102
I1
sS'negotiations'
p1103
I1
sS'marking'
p1104
I1
sS'protested'
p1105
I1
sS'zapata'
p1106
I1
sS'floor'
p1107
I1
sS'skirted'
p1108
I1
sS'generally'
p1109
I1
sS'actor'
p1110
I1
sS'rally'
p1111
I1
sS'flood'
p1112
I1
sS'role'
p1113
I1
sS'overturning'
p1114
I1
sS'oscar'
p1115
I1
sS'ameland'
p1116
I1
sS'roll'
p1117
I1
sS'steamship'
p1118
I1
sS'exporter'
p1119
I1
sS'garland'
p1120
I1
sS'faction'
p1121
I1
sS'dies'
p1122
I1
sS'why'
p1123
I1
sS'felt'
p1124
I1
sS'utilities'
p1125
I1
sS'diet'
p1126
I1
sS'fell'
p1127
I1
sS'intent'
p1128
I1
sS'variable'
p1129
I1
sS'weekend'
p1130
I1
sS'died'
p1131
I1
sS'jones'
p1132
I1
sS'meteorologist'
p1133
I1
sS'shootout'
p1134
I1
sS'domingo'
p1135
I1
sS'apology'
p1136
I1
sS'assume'
p1137
I1
sS'proposed'
p1138
I1
sS'coastlines'
p1139
I1
sS'daily'
p1140
I1
sS'sakya'
p1141
I1
sS'time'
p1142
I1
sS'banners'
p1143
I1
sS'timi'
p1144
I1
sS'debate'
p1145
I1
sS'restored'
p1146
I1
sS'managed'
p1147
I1
sS'shelters'
p1148
I1
sS'chain'
p1149
I1
sS'morgues'
p1150
I1
sS'umbrage'
p1151
I1
sS'mild'
p1152
I1
sS'mile'
p1153
I1
sS'covered'
p1154
I1
sS'mill'
p1155
I1
sS'ward'
p1156
I1
sS'ballet'
p1157
I1
sS'92'
p1158
I1
sS'makaziwe'
p1159
I1
sS'rousing'
p1160
I1
sS'technique'
p1161
I1
sS'father'
p1162
I1
sS'editors'
p1163
I1
sS'0'
p1164
I1
sS'finally'
p1165
I1
sS'praised'
p1166
I1
sS'burlington'
p1167
I1
sS'skirting'
p1168
I1
sS'stabilizing'
p1169
I1
sS'suffered'
p1170
I1
sS'veterans'
p1171
I1
sS'816'
p1172
I1
sS'adviser'
p1173
I1
sS'string'
p1174
I1
sS'kumar'
p1175
I1
sS'allegations'
p1176
I1
sS'tends'
p1177
I1
sS'spate'
p1178
I1
sS'choice'
p1179
I1
sS'stays'
p1180
I1
sS'join'
p1181
I1
sS'exact'
p1182
I1
sS'minute'
p1183
I1
sS'governments'
p1184
I1
sS'dim'
p1185
I1
sS'cautioned'
p1186
I1
sS'banished'
p1187
I1
sS'did'
p1188
I1
sS'die'
p1189
I1
sS'proposals'
p1190
I1
sS'democrat'
p1191
I1
sS'mahe'
p1192
I1
sS'leave'
p1193
I1
sS'depositors'
p1194
I1
sS'reclusive'
p1195
I1
sS'team'
p1196
I1
sS'speculation'
p1197
I1
sS'prevent'
p1198
I1
sS'olympic'
p1199
I1
sS'talked'
p1200
I1
sS'findings'
p1201
I1
sS'trails'
p1202
I1
sS'literature'
p1203
I1
sS'bulldozed'
p1204
I1
sS'shirts'
p1205
I1
sS'eating'
p1206
I1
sS'afghanistan'
p1207
I1
sS'corazon'
p1208
I1
sS'jeopardy'
p1209
I1
sS'celebrated'
p1210
I1
sS'landslides'
p1211
I1
sS'current'
p1212
I1
sS'300'
p1213
I1
sS'health'
p1214
I1
sS'lennon'
p1215
I1
sS'handed'
p1216
I1
sS'brookings'
p1217
I1
sS'international'
p1218
I1
sS'falling'
p1219
I1
sS'filled'
p1220
I1
sS'transportation'
p1221
I1
sS'ms'
p1222
I1
sS'funeral'
p1223
I1
sS'subsided'
p1224
I1
sS'french'
p1225
I1
sS'corporation'
p1226
I1
sS'zhavoronkov'
p1227
I1
sS'sorry'
p1228
I1
sS'yards'
p1229
I1
sS'congestion'
p1230
I1
sS'alone'
p1231
I1
sS'along'
p1232
I1
sS'withdrawals'
p1233
I1
sS'earthquake'
p1234
I1
sS'benson'
p1235
I1
sS'box'
p1236
I1
sS'passengers'
p1237
I1
sS'canadian'
p1238
I1
sS'brilliant'
p1239
I1
sS'shift'
p1240
I1
sS'studied'
p1241
I1
sS'wherever'
p1242
I1
sS'commonly'
p1243
I1
sS'bow'
p1244
I1
sS'accomplished'
p1245
I1
sS'crumbled'
p1246
I1
sS'suggestion'
p1247
I1
sS'bob'
p1248
I1
sS'myers'
p1249
I1
sS'studies'
p1250
I1
sS'carpets'
p1251
I1
sS'breathtaking'
p1252
I1
sS'dick'
p1253
I1
sS'love'
p1254
I1
sS'statewide'
p1255
I1
sS'storms'
p1256
I1
sS'prefer'
p1257
I1
sS'ailing'
p1258
I1
sS'hotels'
p1259
I1
sS'monterrey'
p1260
I1
sS'crammed'
p1261
I1
sS'capsized'
p1262
I1
sS'working'
p1263
I1
sS'tanglewood'
p1264
I1
sS'positive'
p1265
I1
sS'angry'
p1266
I1
sS'give'
p1267
I1
sS'visit'
p1268
I1
sS'predictions'
p1269
I1
sS'france'
p1270
I1
sS'bazar'
p1271
I1
sS'opposed'
p1272
I1
sS'wondering'
p1273
I1
sS'films'
p1274
I1
sS'yusef'
p1275
I1
sS'familar'
p1276
I1
sS'prosecutor'
p1277
I1
sS'aspirin'
p1278
I1
sS'against'
p1279
I1
sS'rodzinski'
p1280
I1
sS'freestyle'
p1281
I1
sS'beholder'
p1282
I1
sS'apparent'
p1283
I1
sS'distribution'
p1284
I1
sS'oregon'
p1285
I1
sS'downtown'
p1286
I1
sS'thompson'
p1287
I1
sS'downing'
p1288
I1
sS'everywhere'
p1289
I1
sS'scratches'
p1290
I1
sS'archaeologists'
p1291
I1
sS'given'
p1292
I1
sS'effort'
p1293
I1
sS'behalf'
p1294
I1
sS'bushels'
p1295
I1
sS'demolish'
p1296
I1
sS'pageant'
p1297
I1
sS'avoiding'
p1298
I1
sS'quoting'
p1299
I1
sS'overloaded'
p1300
I1
sS'believer'
p1301
I1
sS'believes'
p1302
I1
sS'soup'
p1303
I1
sS'hopsitals'
p1304
I1
sS'believed'
p1305
I1
sS'making'
p1306
I1
sS'arrive'
p1307
I1
sS'parishes'
p1308
I1
sS'predict'
p1309
I1
sS'awesome'
p1310
I1
sS'catheters'
p1311
I1
sS'agent'
p1312
I1
sS'pointedly'
p1313
I1
sS'groucho'
p1314
I1
sS'battered'
p1315
I1
sS'unanticipated'
p1316
I1
sS'allowed'
p1317
I1
sS'lubitsch'
p1318
I1
sS'237'
p1319
I1
sS'stole'
p1320
I1
sS'ferdinand'
p1321
I1
sS'skated'
p1322
I1
sS'monitoring'
p1323
I1
sS'winter'
p1324
I1
sS'nonchalant'
p1325
I1
sS'divided'
p1326
I1
sS'sunday'
p1327
I1
sS'hydrologist'
p1328
I1
sS'pure'
p1329
I1
sS'swore'
p1330
I1
sS'significant'
p1331
I1
sS'concertmaster'
p1332
I1
sS'147'
p1333
I1
sS'staying'
p1334
I1
sS'designer'
p1335
I1
sS'landmark'
p1336
I1
sS'custer'
p1337
I1
sS'provincial'
p1338
I1
sS'strokes'
p1339
I1
sS'liverpool'
p1340
I1
sS'spot'
p1341
I1
sS'fueled'
p1342
I1
sS'mac'
p1343
I1
sS'explored'
p1344
I1
sS'upadhyaya'
p1345
I1
sS'date'
p1346
I1
sS'such'
p1347
I1
sS'blankers'
p1348
I1
sS'truly'
p1349
I1
sS'data'
p1350
I1
sS'man'
p1351
I1
sS'stress'
p1352
I1
sS'natural'
p1353
I1
sS'neck'
p1354
I1
sS'johnson'
p1355
I1
sS'conscious'
p1356
I1
sS'maybe'
p1357
I1
sS'st'
p1358
I1
sS'inhabitants'
p1359
I1
sS'so'
p1360
I1
sS'deposit'
p1361
I1
sS'swollen'
p1362
I1
sS'tall'
p1363
I1
sS'pulled'
p1364
I1
sS'serge'
p1365
I1
sS'lsd'
p1366
I1
sS'shoes'
p1367
I1
sS'seeing'
p1368
I1
sS'pointed'
p1369
I1
sS'residence'
p1370
I1
sS'years'
p1371
I1
sS'blustered'
p1372
I1
sS'fatalities'
p1373
I1
sS'shake'
p1374
I1
sS'caucasus'
p1375
I1
sS'constituted'
p1376
I1
sS'police'
p1377
I1
sS'monitor'
p1378
I1
sS'faults'
p1379
I1
sS'paraded'
p1380
I1
sS'jim'
p1381
I1
sS'louisville'
p1382
I1
sS'137'
p1383
I1
sS'yorkshire'
p1384
I1
sS'aviv'
p1385
I1
sS'engraved'
p1386
I1
sS'policy'
p1387
I1
sS'decreased'
p1388
I1
sS'troubled'
p1389
I1
sS'style'
p1390
I1
sS'parades'
p1391
I1
sS'texas'
p1392
I1
sS'modestly'
p1393
I1
sS'rishnychok'
p1394
I1
sS'recipients'
p1395
I1
sS'civilian'
p1396
I1
sS'enclave'
p1397
I1
sS'killer'
p1398
I1
sS'shatter'
p1399
I1
sS'sooner'
p1400
I1
sS'nation'
p1401
I1
sS'tucker'
p1402
I1
sS'records'
p1403
I1
sS'touching'
p1404
I1
sS'arriving'
p1405
I1
sS'biographer'
p1406
I1
sS'killed'
p1407
I1
sS'runners'
p1408
I1
sS'fla'
p1409
I1
sS'shouted'
p1410
I1
sS'materialized'
p1411
I1
sS'didn'
p1412
I1
sS'pealing'
p1413
I1
sS'flown'
p1414
I1
sS'establishing'
p1415
I1
sS'rock'
p1416
I1
sS'quarter'
p1417
I1
sS'820'
p1418
I1
sS'cbs'
p1419
I1
sS'whitewashing'
p1420
I1
sS'square'
p1421
I1
sS'honduras'
p1422
I1
sS'abnormal'
p1423
I1
sS'manifesto'
p1424
I1
sS'entering'
p1425
I1
sS'sexually'
p1426
I1
sS'girl'
p1427
I1
sS'summary'
p1428
I1
sS'turkeys'
p1429
I1
sS'gonzalez'
p1430
I1
sS'living'
p1431
I1
sS'barometric'
p1432
I1
sS'undergoing'
p1433
I1
sS'greeks'
p1434
I1
sS'abide'
p1435
I1
sS'valdez'
p1436
I1
sS'seriously'
p1437
I1
sS'investigation'
p1438
I1
sS'emerged'
p1439
I1
sS'dioxide'
p1440
I1
sS'squares'
p1441
I1
sS'assurance'
p1442
I1
sS'bordering'
p1443
I1
sS'creating'
p1444
I1
sS'complimented'
p1445
I1
sS'mercantile'
p1446
I1
sS'million'
p1447
I1
sS'seventh'
p1448
I1
sS'pumping'
p1449
I1
sS'possibility'
p1450
I1
sS'quite'
p1451
I1
sS'rashtriya'
p1452
I1
sS'rows'
p1453
I1
sS'california'
p1454
I1
sS'demanding'
p1455
I1
sS'plea'
p1456
I1
sS'ore'
p1457
I1
sS'remainder'
p1458
I1
sS'advance'
p1459
I1
sS'training'
p1460
I1
sS'ministry'
p1461
I1
sS'waiter'
p1462
I1
sS'collapsing'
p1463
I1
sS'spending'
p1464
I1
sS'livingston'
p1465
I1
sS'massive'
p1466
I1
sS'thurmond'
p1467
I1
sS'plasminogen'
p1468
I1
sS'think'
p1469
I1
sS'waited'
p1470
I1
sS'first'
p1471
I1
sS'exotic'
p1472
I1
sS'saving'
p1473
I1
sS'ono'
p1474
I1
sS'fleeing'
p1475
I1
sS'spoken'
p1476
I1
sS'discharges'
p1477
I1
sS'one'
p1478
I1
sS'conscientiously'
p1479
I1
sS'opec'
p1480
I1
sS'shipyard'
p1481
I1
sS'americans'
p1482
I1
sS'long'
p1483
I1
sS'suspended'
p1484
I1
sS'habitation'
p1485
I1
sS'vote'
p1486
I1
sS'sounds'
p1487
I1
sS'open'
p1488
I1
sS'discharged'
p1489
I1
sS'city'
p1490
I1
sS'little'
p1491
I1
sS'keoti'
p1492
I1
sS'gunther'
p1493
I1
sS'anyone'
p1494
I1
sS'seas'
p1495
I1
sS'2'
p1496
I1
sS'stuffed'
p1497
I1
sS'rebuttal'
p1498
I1
sS'participated'
p1499
I1
sS'cite'
p1500
I1
sS'williams'
p1501
I1
sS'allegedly'
p1502
I1
sS'memo'
p1503
I1
sS'continuous'
p1504
I1
sS'accurately'
p1505
I1
sS'broadcast'
p1506
I1
sS'eyed'
p1507
I1
sS'peninusula'
p1508
I1
sS'review'
p1509
I1
sS'surged'
p1510
I1
sS'boyfriend'
p1511
I1
sS'11'
p1512
I1
sS'10'
p1513
I1
sS'13'
p1514
I1
sS'spawning'
p1515
I1
sS'15'
p1516
I1
sS'third'
p1517
I1
sS'17'
p1518
I1
sS'16'
p1519
I1
sS'19'
p1520
I1
sS'favors'
p1521
I1
sS'61st'
p1522
I1
sS'midtown'
p1523
I1
sS'future'
p1524
I1
sS'venture'
p1525
I1
sS'were'
p1526
I1
sS'college'
p1527
I1
sS'prospect'
p1528
I1
sS'gathering'
p1529
I1
sS'illness'
p1530
I1
sS'capsize'
p1531
I1
sS'san'
p1532
I1
sS'nicer'
p1533
I1
sS'mountains'
p1534
I1
sS'topics'
p1535
I1
sS'parking'
p1536
I1
sS'greyhound'
p1537
I1
sS'locations'
p1538
I1
sS'dash'
p1539
I1
sS'prestigious'
p1540
I1
sS'say'
p1541
I1
sS'comedian'
p1542
I1
sS'buried'
p1543
I1
sS'voiced'
p1544
I1
sS'allen'
p1545
I1
sS'turner'
p1546
I1
sS'themselves'
p1547
I1
sS'saw'
p1548
I1
sS'calendar'
p1549
I1
sS'warsaw'
p1550
I1
sS'speakers'
p1551
I1
sS'pounded'
p1552
I1
sS'thapa'
p1553
I1
sS'efficient'
p1554
I1
sS'plenary'
p1555
I1
sS'isolate'
p1556
I1
sS'shocked'
p1557
I1
sS'note'
p1558
I1
sS'goodman'
p1559
I1
sS'jefferson'
p1560
I1
sS'take'
p1561
I1
sS'interior'
p1562
I1
sS'destroy'
p1563
I1
sS'mayer'
p1564
I1
sS'atop'
p1565
I1
sS'channel'
p1566
I1
sS'200'
p1567
I1
sS'handing'
p1568
I1
sS'altered'
p1569
I1
sS'norman'
p1570
I1
sS'trace'
p1571
I1
sS'normal'
p1572
I1
sS'track'
p1573
I1
sS'knew'
p1574
I1
sS'fails'
p1575
I1
sS'rehearsal'
p1576
I1
sS'assault'
p1577
I1
sS'printed'
p1578
I1
sS'sheets'
p1579
I1
sS'tract'
p1580
I1
sS'contrasts'
p1581
I1
sS'tracy'
p1582
I1
sS'coveted'
p1583
I1
sS'pages'
p1584
I1
sS'lawn'
p1585
I1
sS'operate'
p1586
I1
sS'beachfront'
p1587
I1
sS'especially'
p1588
I1
sS'saddledome'
p1589
I1
sS'lenny'
p1590
I1
sS'average'
p1591
I1
sS'herndon'
p1592
I1
sS'drive'
p1593
I1
sS'exhorted'
p1594
I1
sS'ways'
p1595
I1
sS'yucatan'
p1596
I1
sS'dhaubanjar'
p1597
I1
sS'salt'
p1598
I1
sS'fascinated'
p1599
I1
sS'forecasters'
p1600
I1
sS'laws'
p1601
I1
sS'shop'
p1602
I1
sS'operations'
p1603
I1
sS'madison'
p1604
I1
sS'medalist'
p1605
I1
sS'shot'
p1606
I1
sS'surplus'
p1607
I1
sS'show'
p1608
I1
sS'lotus'
p1609
I1
sS'filed'
p1610
I1
sS'sites'
p1611
I1
sS'honeymooner'
p1612
I1
sS'legalization'
p1613
I1
sS'bright'
p1614
I1
sS'cortina'
p1615
I1
sS'subsidiary'
p1616
I1
sS'threshold'
p1617
I1
sS'corner'
p1618
I1
sS'soviets'
p1619
I1
sS'lauder'
p1620
I1
sS'feltsman'
p1621
I1
sS'treasure'
p1622
I1
sS'cheeseburger'
p1623
I1
sS'behind'
p1624
I1
sS'junior'
p1625
I1
sS'liberation'
p1626
I1
sS'tears'
p1627
I1
sS'going'
p1628
I1
sS'black'
p1629
I1
sS'hockey'
p1630
I1
sS'enthusiasm'
p1631
I1
sS'caroline'
p1632
I1
sS'congressional'
p1633
I1
sS'dispute'
p1634
I1
sS'beatles'
p1635
I1
sS'hungarian'
p1636
I1
sS'get'
p1637
I1
sS'assistant'
p1638
I1
sS'surfaced'
p1639
I1
sS'balconies'
p1640
I1
sS'countered'
p1641
I1
sS'expects'
p1642
I1
sS'grave'
p1643
I1
sS'outlet'
p1644
I1
sS'yvonne'
p1645
I1
sS'gen'
p1646
I1
sS'prime'
p1647
I1
sS'krishna'
p1648
I1
sS'reading'
p1649
I1
sS'artist'
p1650
I1
sS'yield'
p1651
I1
sS'worried'
p1652
I1
sS'soloist'
p1653
I1
sS'stupid'
p1654
I1
sS'roger'
p1655
I1
sS'bombs'
p1656
I1
sS'where'
p1657
I1
sS'vision'
p1658
I1
sS'staff'
p1659
I1
sS'declared'
p1660
I1
sS'raged'
p1661
I1
sS'fries'
p1662
I1
sS'dived'
p1663
I1
sS'seat'
p1664
I1
sS'relative'
p1665
I1
sS'sean'
p1666
I1
sS'eliminating'
p1667
I1
sS'seal'
p1668
I1
sS'stigma'
p1669
I1
sS'surgery'
p1670
I1
sS'diver'
p1671
I1
sS'wonder'
p1672
I1
sS'mecca'
p1673
I1
sS'registering'
p1674
I1
sS'jumped'
p1675
I1
sS'ruptures'
p1676
I1
sS'boy'
p1677
I1
sS'representatives'
p1678
I1
sS'forecast'
p1679
I1
sS'limbed'
p1680
I1
sS'enough'
p1681
I1
sS'torpe'
p1682
I1
sS'bureau'
p1683
I1
sS'before'
p1684
I1
sS'snorted'
p1685
I1
sS'across'
p1686
I1
sS'jumper'
p1687
I1
sS'notimex'
p1688
I1
sS'jobs'
p1689
I1
sS'august'
p1690
I1
sS'useful'
p1691
I1
sS'paciorkowski'
p1692
I1
sS'dome'
p1693
I1
sS'jr'
p1694
I1
sS'killing'
p1695
I1
sS'spare'
p1696
I1
sS'shahi'
p1697
I1
sS'jastrzebie'
p1698
I1
sS'cedric'
p1699
I1
sS'koop'
p1700
I1
sS'undermine'
p1701
I1
sS'785'
p1702
I1
sS'circumference'
p1703
I1
sS'780'
p1704
I1
sS'many'
p1705
I1
sS'according'
p1706
I1
sS's'
p1707
I1
sS'candlestick'
p1708
I1
sS'unflattering'
p1709
I1
sS'awards'
p1710
I1
sS'torrential'
p1711
I1
sS'nonentity'
p1712
I1
sS'yearly'
p1713
I1
sS'among'
p1714
I1
sS'forecasting'
p1715
I1
sS'cancer'
p1716
I1
sS'chac'
p1717
I1
sS'moscow'
p1718
I1
sS'venues'
p1719
I1
sS'mccain'
p1720
I1
sS'twin'
p1721
I1
sS'anti'
p1722
I1
sS'blackened'
p1723
I1
sS'unassuming'
p1724
I1
sS'associated'
p1725
I1
sS'prasad'
p1726
I1
sS'considers'
p1727
I1
sS'seeding'
p1728
I1
sS'better'
p1729
I1
sS'unusual'
p1730
I1
sS'caricature'
p1731
I1
sS'novedades'
p1732
I1
sS'mettle'
p1733
I1
sS'capable'
p1734
I1
sS'west'
p1735
I1
sS'locally'
p1736
I1
sS'vacation'
p1737
I1
sS'mark'
p1738
I1
sS'combined'
p1739
I1
sS'acre'
p1740
I1
sS'marx'
p1741
I1
sS'mary'
p1742
I1
sS'wants'
p1743
I1
sS'enable'
p1744
I1
sS'lanes'
p1745
I1
sS'precautions'
p1746
I1
sS'deadliest'
p1747
I1
sS'thousand'
p1748
I1
sS'formed'
p1749
I1
sS'readings'
p1750
I1
sS'tightened'
p1751
I1
sS'declaration'
p1752
I1
sS'gish'
p1753
I1
sS'yugoslav'
p1754
I1
sS'former'
p1755
I1
sS'those'
p1756
I1
sS'sound'
p1757
I1
sS'consultant'
p1758
I1
sS'polls'
p1759
I1
sS'consulted'
p1760
I1
sS'associates'
p1761
I1
sS'ongoing'
p1762
I1
sS'policies'
p1763
I1
sS'udayapur'
p1764
I1
sS'newspaper'
p1765
I1
sS'situation'
p1766
I1
sS'408'
p1767
I1
sS'rajiv'
p1768
I1
sS'wroclaw'
p1769
I1
sS'eventually'
p1770
I1
sS'attackers'
p1771
I1
sS'mandeville'
p1772
I1
sS'sincere'
p1773
I1
sS'surveying'
p1774
I1
sS'engaged'
p1775
I1
sS'speedway'
p1776
I1
sS'sleeping'
p1777
I1
sS'middle'
p1778
I1
sS'dangerously'
p1779
I1
sS'12th'
p1780
I1
sS'iowa'
p1781
I1
sS'demolition'
p1782
I1
sS'fame'
p1783
I1
sS'movements'
p1784
I1
sS'pap'
p1785
I1
sS'bags'
p1786
I1
sS'different'
p1787
I1
sS'pat'
p1788
I1
sS'doctor'
p1789
I1
sS'pay'
p1790
I1
sS'preparatory'
p1791
I1
sS'tour'
p1792
I1
sS'same'
p1793
I1
sS'compiling'
p1794
I1
sS'coconuts'
p1795
I1
sS'otto'
p1796
I1
sS'plaster'
p1797
I1
sS'wimbledon'
p1798
I1
sS'disappointment'
p1799
I1
sS'illywhacker'
p1800
I1
sS'exhaust'
p1801
I1
sS'rodenhuis'
p1802
I1
sS'deluged'
p1803
I1
sS'faculty'
p1804
I1
sS'maeda'
p1805
I1
sS'boosted'
p1806
I1
sS'assist'
p1807
I1
sS'munch'
p1808
I1
sS'cheers'
p1809
I1
sS'running'
p1810
I1
sS'intended'
p1811
I1
sS'totally'
p1812
I1
sS'six'
p1813
I1
sS'supports'
p1814
I1
sS'largely'
p1815
I1
sS'methane'
p1816
I1
sS'know'
p1817
I1
sS'rains'
p1818
I1
sS'costs'
p1819
I1
sS'alfredo'
p1820
I1
sS'republicans'
p1821
I1
sS'uncomplicated'
p1822
I1
sS'overcrowding'
p1823
I1
sS'summer'
p1824
I1
sS'outdoor'
p1825
I1
sS'delhi'
p1826
I1
sS'being'
p1827
I1
sS'fears'
p1828
I1
sS'218'
p1829
I1
sS'file'
p1830
I1
sS'omissions'
p1831
I1
sS'akihito'
p1832
I1
sS'tenflod'
p1833
I1
sS'barbados'
p1834
I1
sS'weekly'
p1835
I1
sS'temblor'
p1836
I1
sS'mcdonald'
p1837
I1
sS'tourism'
p1838
I1
sS'geological'
p1839
I1
sS'eisenhower'
p1840
I1
sS'forecaster'
p1841
I1
sS'4'
p1842
I1
sS'overthrow'
p1843
I1
sS'extensive'
p1844
I1
sS'heavier'
p1845
I1
sS'skies'
p1846
I1
sS'starving'
p1847
I1
sS'aspects'
p1848
I1
sS'around'
p1849
I1
sS'anglers'
p1850
I1
sS'sportsmanship'
p1851
I1
sS'docks'
p1852
I1
sS'dark'
p1853
I1
sS'fizzling'
p1854
I1
sS'traffic'
p1855
I1
sS'braunwald'
p1856
I1
sS'secrecy'
p1857
I1
sS'world'
p1858
I1
sS'boycotted'
p1859
I1
sS'parachutists'
p1860
I1
sS'blankets'
p1861
I1
sS'sensational'
p1862
I1
sS'stranger'
p1863
I1
sS'achieve'
p1864
I1
sS'maintained'
p1865
I1
sS'manhattan'
p1866
I1
sS'gimme'
p1867
I1
sS'either'
p1868
I1
sS'clay'
p1869
I1
sS'beverly'
p1870
I1
sS'served'
p1871
I1
sS'inter'
p1872
I1
sS'robbers'
p1873
I1
sS'kennel'
p1874
I1
sS'auditorium'
p1875
I1
sS'brushing'
p1876
I1
sS'superintendent'
p1877
I1
sS'66'
p1878
I1
sS'leveled'
p1879
I1
sS'moving'
p1880
I1
sS'dole'
p1881
I1
sS'polo'
p1882
I1
sS'moreover'
p1883
I1
sS'diving'
p1884
I1
sS'racial'
p1885
I1
sS'bhootahi'
p1886
I1
sS'thinks'
p1887
I1
sS'scandals'
p1888
I1
sS'poorly'
p1889
I1
sS'drenched'
p1890
I1
sS'noon'
p1891
I1
sS'flow'
p1892
I1
sS'pioneer'
p1893
I1
sS'critical'
p1894
I1
sS'boat'
p1895
I1
sS'restoring'
p1896
I1
sS'measuring'
p1897
I1
sS'scientific'
p1898
I1
sS'power'
p1899
I1
sS'seconds'
p1900
I1
sS'manufactured'
p1901
I1
sS'arts'
p1902
I1
sS'notably'
p1903
I1
sS'broken'
p1904
I1
sS'leadership'
p1905
I1
sS'arreola'
p1906
I1
sS'seismologoical'
p1907
I1
sS'prepared'
p1908
I1
sS'airlifted'
p1909
I1
sS'stone'
p1910
I1
sS'package'
p1911
I1
sS'island'
p1912
I1
sS'industry'
p1913
I1
sS'joyner'
p1914
I1
sS'generated'
p1915
I1
sS'meal'
p1916
I1
sS'oscarcast'
p1917
I1
sS'hirohito'
p1918
I1
sS'neighbor'
p1919
I1
sS'act'
p1920
I1
sS'luck'
p1921
I1
sS'tripura'
p1922
I1
sS'organizers'
p1923
I1
sS'lands'
p1924
I1
sS'burning'
p1925
I1
sS'image'
p1926
I1
sS'mungar'
p1927
I1
sS'references'
p1928
I1
sS'homeless'
p1929
I1
sS'parties'
p1930
I1
sS'portrayal'
p1931
I1
sS'pastures'
p1932
I1
sS'her'
p1933
I1
sS'shells'
p1934
I1
sS'downed'
p1935
I1
sS'philadelphia'
p1936
I1
sS'lounging'
p1937
I1
sS'myths'
p1938
I1
sS'patna'
p1939
I1
sS'springboard'
p1940
I1
sS'witt'
p1941
I1
sS'saris'
p1942
I1
sS'complete'
p1943
I1
sS'strikes'
p1944
I1
sS'queensboro'
p1945
I1
sS'suffers'
p1946
I1
sS'survived'
p1947
I1
sS'outweighed'
p1948
I1
sS'elimination'
p1949
I1
sS'unreliable'
p1950
I1
sS'aide'
p1951
I1
sS'with'
p1952
I1
sS'extend'
p1953
I1
sS'pull'
p1954
I1
sS'rush'
p1955
I1
sS'october'
p1956
I1
sS'monopoly'
p1957
I1
sS'stokley'
p1958
I1
sS'hispaniola'
p1959
I1
sS'jamaican'
p1960
I1
sS'enraptured'
p1961
I1
sS'trips'
p1962
I1
sS'darker'
p1963
I1
sS'aa'
p1964
I1
sS'gone'
p1965
I1
sS'money'
p1966
I1
sS'ad'
p1967
I1
sS'johnny'
p1968
I1
sS'pinpointed'
p1969
I1
sS'certain'
p1970
I1
sS'stealing'
p1971
I1
sS'am'
p1972
I1
sS'al'
p1973
I1
sS'deep'
p1974
I1
sS'an'
p1975
I1
sS'ap'
p1976
I1
sS'as'
p1977
I1
sS'ensuing'
p1978
I1
sS'at'
p1979
I1
sS'planets'
p1980
I1
sS'importing'
p1981
I1
sS'watched'
p1982
I1
sS'film'
p1983
I1
sS'again'
p1984
I1
sS'assessing'
p1985
I1
sS'minstry'
p1986
I1
sS'retiring'
p1987
I1
sS'personnel'
p1988
I1
sS'drivers'
p1989
I1
sS'novice'
p1990
I1
sS'graduate'
p1991
I1
sS'tight'
p1992
I1
sS'offered'
p1993
I1
sS'brando'
p1994
I1
sS'congress'
p1995
I1
sS'students'
p1996
I1
sS'accosted'
p1997
I1
sS'm'
p1998
I1
sS'seriousness'
p1999
I1
sS'important'
p2000
I1
sS'tiwary'
p2001
I1
sS'accounts'
p2002
I1
sS'shipping'
p2003
I1
sS'carrillos'
p2004
I1
sS'havana'
p2005
I1
sS'remote'
p2006
I1
sS'assets'
p2007
I1
sS'snagged'
p2008
I1
sS'passed'
p2009
I1
sS'mass'
p2010
I1
sS'nelson'
p2011
I1
sS'remarkable'
p2012
I1
sS'starting'
p2013
I1
sS'original'
p2014
I1
sS'consider'
p2015
I1
sS'founder'
p2016
I1
sS'caused'
p2017
I1
sS'forbidden'
p2018
I1
sS'dollar'
p2019
I1
sS'founded'
p2020
I1
sS'sunk'
p2021
I1
sS'debris'
p2022
I1
sS'vessels'
p2023
I1
sS'welfare'
p2024
I1
sS'talks'
p2025
I1
sS'children'
p2026
I1
sS'causes'
p2027
I1
sS'reluctant'
p2028
I1
sS'taxicab'
p2029
I1
sS'tv'
p2030
I1
sS'to'
p2031
I1
sS'tail'
p2032
I1
sS'alberto'
p2033
I1
sS'dressing'
p2034
I1
sS'midwest'
p2035
I1
sS'norm'
p2036
I1
sS'mandela'
p2037
I1
sS'bevy'
p2038
I1
sS'returned'
p2039
I1
sS'returning'
p2040
I1
sS'hughes'
p2041
I1
sS'documentaries'
p2042
I1
sS'baton'
p2043
I1
sS'borynia'
p2044
I1
sS'fall'
p2045
I1
sS'labor'
p2046
I1
sS'24th'
p2047
I1
sS'difference'
p2048
I1
sS'condition'
p2049
I1
sS'pre'
p2050
I1
sS'washing'
p2051
I1
sS'cable'
p2052
I1
sS'accompanying'
p2053
I1
sS'celebrity'
p2054
I1
sS'joined'
p2055
I1
sS'large'
p2056
I1
sS'sang'
p2057
I1
sS'sand'
p2058
I1
sS'swirling'
p2059
I1
sS'small'
p2060
I1
sS'sank'
p2061
I1
sS'hoped'
p2062
I1
sS'titled'
p2063
I1
sS'portable'
p2064
I1
sS'penalties'
p2065
I1
sS'196'
p2066
I1
sS'healed'
p2067
I1
sS'past'
p2068
I1
sS'strung'
p2069
I1
sS'lawyer'
p2070
I1
sS'pass'
p2071
I1
sS'further'
p2072
I1
sS'ribbon'
p2073
I1
sS'dial'
p2074
I1
sS'abc'
p2075
I1
sS'stood'
p2076
I1
sS'richard'
p2077
I1
sS'clock'
p2078
I1
sS'disruptions'
p2079
I1
sS'section'
p2080
I1
sS'resume'
p2081
I1
sS'caffeine'
p2082
I1
sS'scientists'
p2083
I1
sS'public'
p2084
I1
sS'contrast'
p2085
I1
sS'movement'
p2086
I1
sS'hotbed'
p2087
I1
sS'undeterminable'
p2088
I1
sS'hasn'
p2089
I1
sS'full'
p2090
I1
sS'unreported'
p2091
I1
sS'christi'
p2092
I1
sS'gregory'
p2093
I1
sS'leaping'
p2094
I1
sS'portrays'
p2095
I1
sS'vomiting'
p2096
I1
sS'hours'
p2097
I1
sS'vacations'
p2098
I1
sS'operating'
p2099
I1
sS'investigating'
p2100
I1
sS'legend'
p2101
I1
sS'campaigns'
p2102
I1
sS'900'
p2103
I1
sS'leveling'
p2104
I1
sS'marijuana'
p2105
I1
sS'stretching'
p2106
I1
sS'fergus'
p2107
I1
sS'jackie'
p2108
I1
sS'experience'
p2109
I1
sS'prior'
p2110
I1
sS'airport'
p2111
I1
sS'pick'
p2112
I1
sS'action'
p2113
I1
sS'skepticism'
p2114
I1
sS'struggle'
p2115
I1
sS'via'
p2116
I1
sS'followed'
p2117
I1
sS'buses'
p2118
I1
sS'africa'
p2119
I1
sS'vim'
p2120
I1
sS'indoors'
p2121
I1
sS'catarina'
p2122
I1
sS'armed'
p2123
I1
sS'legislator'
p2124
I1
sS'poor'
p2125
I1
sS'languages'
p2126
I1
sS'eye'
p2127
I1
sS'britannia'
p2128
I1
sS'wiped'
p2129
I1
sS'destination'
p2130
I1
sS'petroleum'
p2131
I1
sS'two'
p2132
I1
sS'comparing'
p2133
I1
sS'wavering'
p2134
I1
sS'6'
p2135
I1
sS'jive'
p2136
I1
sS'furor'
p2137
I1
sS'more'
p2138
I1
sS'bulgarian'
p2139
I1
sS'fellow'
p2140
I1
sS'substances'
p2141
I1
sS'rammed'
p2142
I1
sS'company'
p2143
I1
sS'leonard'
p2144
I1
sS'tested'
p2145
I1
sS'snaking'
p2146
I1
sS'rudeness'
p2147
I1
sS'objections'
p2148
I1
sS'town'
p2149
I1
sS'keeping'
p2150
I1
sS'hour'
p2151
I1
sS'strain'
p2152
I1
sS'science'
p2153
I1
sS'created'
p2154
I1
sS'installing'
p2155
I1
sS'shrestha'
p2156
I1
sS'dramatically'
p2157
I1
sS'remain'
p2158
I1
sS'del'
p2159
I1
sS'resources'
p2160
I1
sS'evolved'
p2161
I1
sS'knocked'
p2162
I1
sS'male'
p2163
I1
sS'seismological'
p2164
I1
sS'stubborn'
p2165
I1
sS'hamburger'
p2166
I1
sS'impacts'
p2167
I1
sS'onslaught'
p2168
I1
sS'scab'
p2169
I1
sS'suggestions'
p2170
I1
sS'accept'
p2171
I1
sS'states'
p2172
I1
sS'numbers'
p2173
I1
sS'sense'
p2174
I1
sS'sharp'
p2175
I1
sS'robinson'
p2176
I1
sS'steffi'
p2177
I1
sS'biography'
p2178
I1
sS'huge'
p2179
I1
sS'respective'
p2180
I1
sS'imminent'
p2181
I1
sS'rye'
p2182
I1
sS'disturbed'
p2183
I1
sS'csx'
p2184
I1
sS'hugs'
p2185
I1
sS'impending'
p2186
I1
sS'curfman'
p2187
I1
sS'stir'
p2188
I1
sS'plant'
p2189
I1
sS'plans'
p2190
I1
sS'countryside'
p2191
I1
sS'uprising'
p2192
I1
sS'blacken'
p2193
I1
sS'treatments'
p2194
I1
sS'soundtrack'
p2195
I1
sS'plane'
p2196
I1
sS'director'
p2197
I1
sS'blood'
p2198
I1
sS'countering'
p2199
I1
sS'waves'
p2200
I1
sS'acreage'
p2201
I1
sS'gdansk'
p2202
I1
sS'response'
p2203
I1
sS'entry'
p2204
I1
sS'crowded'
p2205
I1
sS'leroy'
p2206
I1
sS'hauling'
p2207
I1
sS'volleyball'
p2208
I1
sS'coal'
p2209
I1
sS'broadcasting'
p2210
I1
sS'pleasure'
p2211
I1
sS'playing'
p2212
I1
sS'nichols'
p2213
I1
sS'replied'
p2214
I1
sS'serenade'
p2215
I1
sS'rifles'
p2216
I1
sS'mexican'
p2217
I1
sS'azerbaijan'
p2218
I1
sS'trade'
p2219
I1
sS'resorts'
p2220
I1
sS'paper'
p2221
I1
sS'scott'
p2222
I1
sS'signs'
p2223
I1
sS'bulldozers'
p2224
I1
sS'broadway'
p2225
I1
sS'497'
p2226
I1
sS'its'
p2227
I1
sS'woolf'
p2228
I1
sS'24'
p2229
I1
sS'25'
p2230
I1
sS'26'
p2231
I1
sS'arteries'
p2232
I1
sS'20'
p2233
I1
sS'21'
p2234
I1
sS'22'
p2235
I1
sS'23'
p2236
I1
sS'gerald'
p2237
I1
sS'gerrish'
p2238
I1
sS'28'
p2239
I1
sS'29'
p2240
I1
sS'symptoms'
p2241
I1
sS'quarterfinals'
p2242
I1
sS'laces'
p2243
I1
sS'speech'
p2244
I1
sS'colleague'
p2245
I1
sS'good'
p2246
I1
sS'seeking'
p2247
I1
sS'motley'
p2248
I1
sS'subtitled'
p2249
I1
sS'milosevic'
p2250
I1
sS'slight'
p2251
I1
sS'idols'
p2252
I1
sS'democrats'
p2253
I1
sS'association'
p2254
I1
sS'mystery'
p2255
I1
sS'coursed'
p2256
I1
sS'pregnant'
p2257
I1
sS'always'
p2258
I1
sS'stiff'
p2259
I1
sS'featured'
p2260
I1
sS'events'
p2261
I1
sS'graceland'
p2262
I1
sS'habits'
p2263
I1
sS'monsoon'
p2264
I1
sS'found'
p2265
I1
sS'ports'
p2266
I1
sS'week'
p2267
I1
sS'harm'
p2268
I1
sS'everyone'
p2269
I1
sS'england'
p2270
I1
sS'rans'
p2271
I1
sS'house'
p2272
I1
sS'contiguous'
p2273
I1
sS'quayles'
p2274
I1
sS'reduce'
p2275
I1
sS'beret'
p2276
I1
sS'engaging'
p2277
I1
sS'oil'
p2278
I1
sS'countrymen'
p2279
I1
sS'endearment'
p2280
I1
sS'operation'
p2281
I1
sS'thing'
p2282
I1
sS'insurance'
p2283
I1
sS'really'
p2284
I1
sS'worshipers'
p2285
I1
sS'try'
p2286
I1
sS'louganis'
p2287
I1
sS'missed'
p2288
I1
sS'blacks'
p2289
I1
sS'sparingly'
p2290
I1
sS'projected'
p2291
I1
sS'research'
p2292
I1
sS'acting'
p2293
I1
sS'longtime'
p2294
I1
sS'cyclone'
p2295
I1
sS'bihar'
p2296
I1
sS'highway'
p2297
I1
sS'shaheen'
p2298
I1
sS'barges'
p2299
I1
sS'sparked'
p2300
I1
sS'mikhail'
p2301
I1
sS'extraordinary'
p2302
I1
sS'abnormally'
p2303
I1
sS'members'
p2304
I1
sS'goldwyn'
p2305
I1
sS'beginning'
p2306
I1
sS'producers'
p2307
I1
sS'pairs'
p2308
I1
sS'benefits'
p2309
I1
sS'debby'
p2310
I1
sS'finland'
p2311
I1
sS'conducted'
p2312
I1
sS'w'
p2313
I1
sS'anecdote'
p2314
I1
sS'trickle'
p2315
I1
sS'copper'
p2316
I1
sS'major'
p2317
I1
sS'hawks'
p2318
I1
sS'precautionary'
p2319
I1
sS'wilder'
p2320
I1
sS'number'
p2321
I1
sS'feeder'
p2322
I1
sS'seimaz'
p2323
I1
sS'utilized'
p2324
I1
sS'done'
p2325
I1
sS'jazz'
p2326
I1
sS'anonymity'
p2327
I1
sS'wages'
p2328
I1
sS'burigandak'
p2329
I1
sS'razor'
p2330
I1
sS'guess'
p2331
I1
sS'heads'
p2332
I1
sS'guest'
p2333
I1
sS'jet'
p2334
I1
sS'divorce'
p2335
I1
sS'mankiewicz'
p2336
I1
sS'jetty'
p2337
I1
sS'least'
p2338
I1
sS'183'
p2339
I1
sS'bedridden'
p2340
I1
sS'added'
p2341
I1
sS'187'
p2342
I1
sS'erupted'
p2343
I1
sS'185'
p2344
I1
sS'ton'
p2345
I1
sS'too'
p2346
I1
sS'warmly'
p2347
I1
sS'relationship'
p2348
I1
sS'ilisha'
p2349
I1
sS'park'
p2350
I1
sS'interviewed'
p2351
I1
sS'immediate'
p2352
I1
sS'sensation'
p2353
I1
sS'draped'
p2354
I1
sS'part'
p2355
I1
sS'colo'
p2356
I1
sS'crop'
p2357
I1
sS'doctors'
p2358
I1
sS'velikhov'
p2359
I1
sS'believe'
p2360
I1
sS'hollywood'
p2361
I1
sS'868'
p2362
I1
sS'reverential'
p2363
I1
sS'observatory'
p2364
I1
sS'gotten'
p2365
I1
sS'vocal'
p2366
I1
sS'defends'
p2367
I1
sS'minimize'
p2368
I1
sS'determined'
p2369
I1
sS'yang'
p2370
I1
sS'supposed'
p2371
I1
sS'fishermen'
p2372
I1
sS'treated'
p2373
I1
sS'declare'
p2374
I1
sS'hembrick'
p2375
I1
sS'nominee'
p2376
I1
sS'urban'
p2377
I1
sS'mensch'
p2378
I1
sS'canceling'
p2379
I1
sS'philippine'
p2380
I1
sS'wyler'
p2381
I1
sS'blond'
p2382
I1
sS'seljami'
p2383
I1
sS'sell'
p2384
I1
sS'mountain'
p2385
I1
sS'shrivel'
p2386
I1
sS'silvers'
p2387
I1
sS'refute'
p2388
I1
sS'self'
p2389
I1
sS'reliance'
p2390
I1
sS'onset'
p2391
I1
sS'also'
p2392
I1
sS'internal'
p2393
I1
sS'equaled'
p2394
I1
sS'build'
p2395
I1
sS'province'
p2396
I1
sS'play'
p2397
I1
sS'singles'
p2398
I1
sS'serve'
p2399
I1
sS'guitar'
p2400
I1
sS'vigils'
p2401
I1
sS'depths'
p2402
I1
sS'most'
p2403
I1
sS'brooklyn'
p2404
I1
sS'plan'
p2405
I1
sS'minn'
p2406
I1
sS'services'
p2407
I1
sS'extremely'
p2408
I1
sS'comden'
p2409
I1
sS'galway'
p2410
I1
sS'tpa'
p2411
I1
sS'sometimes'
p2412
I1
sS'cover'
p2413
I1
sS'barred'
p2414
I1
sS'mammoth'
p2415
I1
sS'clements'
p2416
I1
sS'barrel'
p2417
I1
sS'charged'
p2418
I1
sS'dragged'
p2419
I1
sS'joining'
p2420
I1
sS'thomas'
p2421
I1
sS'golf'
p2422
I1
sS'gold'
p2423
I1
sS'disturbances'
p2424
I1
sS'scattered'
p2425
I1
sS'midwestern'
p2426
I1
sS'defended'
p2427
I1
sS'session'
p2428
I1
sS'freight'
p2429
I1
sS'carefully'
p2430
I1
sS'fine'
p2431
I1
sS'find'
p2432
I1
sS'occupation'
p2433
I1
sS'impact'
p2434
I1
sS'giant'
p2435
I1
sS'depended'
p2436
I1
sS'consistently'
p2437
I1
sS'writes'
p2438
I1
sS'writer'
p2439
I1
sS'distributed'
p2440
I1
sS'waiting'
p2441
I1
sS'failed'
p2442
I1
sS'wayne'
p2443
I1
sS'factor'
p2444
I1
sS'poles'
p2445
I1
sS'bernstein'
p2446
I1
sS'giants'
p2447
I1
sS'boarding'
p2448
I1
sS'downpour'
p2449
I1
sS'banned'
p2450
I1
sS'ceasing'
p2451
I1
sS'sunny'
p2452
I1
sS'resent'
p2453
I1
sS'upholstery'
p2454
I1
sS'sweltered'
p2455
I1
sS'ninth'
p2456
I1
sS'closely'
p2457
I1
sS'reporters'
p2458
I1
sS'mauceri'
p2459
I1
sS'banner'
p2460
I1
sS'judged'
p2461
I1
sS'bulletins'
p2462
I1
sS'emden'
p2463
I1
sS'tournaments'
p2464
I1
sS'cry'
p2465
I1
sS'doubled'
p2466
I1
sS'beller'
p2467
I1
sS'banking'
p2468
I1
sS'common'
p2469
I1
sS'49'
p2470
I1
sS'replanting'
p2471
I1
sS'tanker'
p2472
I1
sS'severing'
p2473
I1
sS'approaching'
p2474
I1
sS'insane'
p2475
I1
sS'set'
p2476
I1
sS'autumn'
p2477
I1
sS'excavation'
p2478
I1
sS'opposing'
p2479
I1
sS'310'
p2480
I1
sS'tended'
p2481
I1
sS'tip'
p2482
I1
sS'see'
p2483
I1
sS'individual'
p2484
I1
sS'sea'
p2485
I1
sS'overboard'
p2486
I1
sS'sen'
p2487
I1
sS'aberdeen'
p2488
I1
sS'outward'
p2489
I1
sS'feared'
p2490
I1
sS'knees'
p2491
I1
sS'wyndham'
p2492
I1
sS'designed'
p2493
I1
sS'expert'
p2494
I1
sS'seconded'
p2495
I1
sS'movie'
p2496
I1
sS'50th'
p2497
I1
sS'please'
p2498
I1
sS'pickup'
p2499
I1
sS'smallest'
p2500
I1
sS'palovich'
p2501
I1
sS'transfered'
p2502
I1
sS'available'
p2503
I1
sS'tristan'
p2504
I1
sS'sparsely'
p2505
I1
sS'commercial'
p2506
I1
sS'arises'
p2507
I1
sS'pathak'
p2508
I1
sS'incident'
p2509
I1
sS'hooted'
p2510
I1
sS'guantanamo'
p2511
I1
sS'delivering'
p2512
I1
sS'marilyn'
p2513
I1
sS'legislature'
p2514
I1
sS'prospects'
p2515
I1
sS'improved'
p2516
I1
sS'restaurant'
p2517
I1
sS'carelessness'
p2518
I1
sS'barely'
p2519
I1
sS'slogans'
p2520
I1
sS'auden'
p2521
I1
sS'foreign'
p2522
I1
sS'improves'
p2523
I1
sS'collect'
p2524
I1
sS'lash'
p2525
I1
sS'whole'
p2526
I1
sS'upgraded'
p2527
I1
sS'elliot'
p2528
I1
sS'guangxi'
p2529
I1
sS'drunk'
p2530
I1
sS'simple'
p2531
I1
sS'loan'
p2532
I1
sS'northeastern'
p2533
I1
sS'smashing'
p2534
I1
sS'allegiance'
p2535
I1
sS'community'
p2536
I1
sS'rosa'
p2537
I1
sS'thrombolysis'
p2538
I1
sS'dances'
p2539
I1
sS'tennessee'
p2540
I1
sS'agents'
p2541
I1
sS'church'
p2542
I1
sS'cosentino'
p2543
I1
sS'ravaged'
p2544
I1
sS'suppressing'
p2545
I1
sS'expensive'
p2546
I1
sS'headaches'
p2547
I1
sS'palace'
p2548
I1
sS'monthly'
p2549
I1
sS'meteorologists'
p2550
I1
sS'acceptance'
p2551
I1
sS'hitting'
p2552
I1
sS'rivals'
p2553
I1
sS'secret'
p2554
I1
sS'dropping'
p2555
I1
sS'whitcomb'
p2556
I1
sS'meeting'
p2557
I1
sS'rosy'
p2558
I1
sS'resting'
p2559
I1
sS'sleeved'
p2560
I1
sS'raced'
p2561
I1
sS'champion'
p2562
I1
sS'monsoons'
p2563
I1
sS'fire'
p2564
I1
sS'honorary'
p2565
I1
sS'39'
p2566
I1
sS'fund'
p2567
I1
sS'awake'
p2568
I1
sS'representative'
p2569
I1
sS'prices'
p2570
I1
sS'towns'
p2571
I1
sS'consulate'
p2572
I1
sS'increaase'
p2573
I1
sS'hitchcock'
p2574
I1
sS'survivor'
p2575
I1
sS'grains'
p2576
I1
sS'solid'
p2577
I1
sS'judicial'
p2578
I1
sS'straight'
p2579
I1
sS'expanded'
p2580
I1
sS'holocaust'
p2581
I1
sS'receive'
p2582
I1
sS'replaced'
p2583
I1
sS'careers'
p2584
I1
sS'leaning'
p2585
I1
sS'real'
p2586
I1
sS'pound'
p2587
I1
sS'hoping'
p2588
I1
sS'century'
p2589
I1
sS'backing'
p2590
I1
sS'37'
p2591
I1
sS'von'
p2592
I1
sS'decline'
p2593
I1
sS'encountered'
p2594
I1
sS'sardi'
p2595
I1
sS'itself'
p2596
I1
sS'owes'
p2597
I1
sS'leaving'
p2598
I1
sS'chase'
p2599
I1
sS'disillusioning'
p2600
I1
sS'raiders'
p2601
I1
sS'italy'
p2602
I1
sS'shorter'
p2603
I1
sS'read'
p2604
I1
sS'complaints'
p2605
I1
sS'virtually'
p2606
I1
sS'renounces'
p2607
I1
sS'survey'
p2608
I1
sS'proved'
p2609
I1
sS'relatively'
p2610
I1
sS'development'
p2611
I1
sS'sophisticated'
p2612
I1
sS'currencies'
p2613
I1
sS'neuroses'
p2614
I1
sS'gorky'
p2615
I1
sS'flooded'
p2616
I1
sS'submerged'
p2617
I1
sS'yesterday'
p2618
I1
sS'alert'
p2619
I1
sS'moment'
p2620
I1
sS'levels'
p2621
I1
sS'purpose'
p2622
I1
sS'koch'
p2623
I1
sS'attractive'
p2624
I1
sS'1968'
p2625
I1
sS'climb'
p2626
I1
sS'recent'
p2627
I1
sS'canned'
p2628
I1
sS'task'
p2629
I1
sS'barry'
p2630
I1
sS'abusive'
p2631
I1
sS'spent'
p2632
I1
sS'picks'
p2633
I1
sS'morrow'
p2634
I1
sS'person'
p2635
I1
sS'1965'
p2636
I1
sS'swiss'
p2637
I1
sS'organization'
p2638
I1
sS'tass'
p2639
I1
sS'spend'
p2640
I1
sS'rufineo'
p2641
I1
sS'md'
p2642
I1
sS'telegram'
p2643
I1
sS'salve'
p2644
I1
sS'bodysuits'
p2645
I1
sS'arrests'
p2646
I1
sS'shape'
p2647
I1
sS'plagued'
p2648
I1
sS'bernards'
p2649
I1
sS'alternative'
p2650
I1
sS'bengal'
p2651
I1
sS'railroad'
p2652
I1
sS'timber'
p2653
I1
sS'wage'
p2654
I1
sS'impetus'
p2655
I1
sS'cut'
p2656
I1
sS'readers'
p2657
I1
sS'marrying'
p2658
I1
sS'deputy'
p2659
I1
sS'fitting'
p2660
I1
sS'source'
p2661
I1
sS'parents'
p2662
I1
sS'sydney'
p2663
I1
sS'administrative'
p2664
I1
sS'excited'
p2665
I1
sS'surprised'
p2666
I1
sS'jutting'
p2667
I1
sS'australia'
p2668
I1
sS'victims'
p2669
I1
sS'emergency'
p2670
I1
sS'demands'
p2671
I1
sS'big'
p2672
I1
sS'couple'
p2673
I1
sS'matters'
p2674
I1
sS'suffering'
p2675
I1
sS'bleck'
p2676
I1
sS'bit'
p2677
I1
sS'bir'
p2678
I1
sS'projects'
p2679
I1
sS'formal'
p2680
I1
sS'knock'
p2681
I1
sS'imposed'
p2682
I1
sS'd'
p2683
I1
sS'sakharov'
p2684
I1
sS'follows'
p2685
I1
sS'kennedy'
p2686
I1
sS'austria'
p2687
I1
sS'chorus'
p2688
I1
sS'communications'
p2689
I1
sS'continue'
p2690
I1
sS'indication'
p2691
I1
sS'wrecked'
p2692
I1
sS'jolted'
p2693
I1
sS'disorder'
p2694
I1
sS'valleys'
p2695
I1
sS'often'
p2696
I1
sS'senate'
p2697
I1
sS'spring'
p2698
I1
sS'back'
p2699
I1
sS'bounce'
p2700
I1
sS'delegation'
p2701
I1
sS'martial'
p2702
I1
sS'strongest'
p2703
I1
sS'examples'
p2704
I1
sS'sprint'
p2705
I1
sS'lightning'
p2706
I1
sS'brent'
p2707
I1
sS'beachside'
p2708
I1
sS'abandon'
p2709
I1
sS'atsuko'
p2710
I1
sS'sharma'
p2711
I1
sS'decision'
p2712
I1
sS'audience'
p2713
I1
sS'per'
p2714
I1
sS'religion'
p2715
I1
sS'discharge'
p2716
I1
sS'sick'
p2717
I1
sS'seabed'
p2718
I1
sS'eliminate'
p2719
I1
sS'temple'
p2720
I1
sS'be'
p2721
I1
sS'remembered'
p2722
I1
sS'continuing'
p2723
I1
sS'agreement'
p2724
I1
sS'erected'
p2725
I1
sS'bested'
p2726
I1
sS'santa'
p2727
I1
sS'santo'
p2728
I1
sS'lottery'
p2729
I1
sS'by'
p2730
I1
sS'wildlife'
p2731
I1
sS'passionate'
p2732
I1
sS'usa'
p2733
I1
sS'anything'
p2734
I1
sS'exaggerated'
p2735
I1
sS'justo'
p2736
I1
sS'truck'
p2737
I1
sS'intestinal'
p2738
I1
sS'melbourne'
p2739
I1
sS'bso'
p2740
I1
sS'illegal'
p2741
I1
sS'benefactors'
p2742
I1
sS'farmers'
p2743
I1
sS'plenty'
p2744
I1
sS'into'
p2745
I1
sS'lagartos'
p2746
I1
sS'awaited'
p2747
I1
sS'uprooting'
p2748
I1
sS'controversies'
p2749
I1
sS'primarily'
p2750
I1
sS'steven'
p2751
I1
sS'lesson'
p2752
I1
sS'nobel'
p2753
I1
sS'morning'
p2754
I1
sS'criticisms'
p2755
I1
sS'signifies'
p2756
I1
sS'span'
p2757
I1
sS'mythic'
p2758
I1
sS'gases'
p2759
I1
sS'custom'
p2760
I1
sS'crackdown'
p2761
I1
sS'prensa'
p2762
I1
sS'homemade'
p2763
I1
sS'suit'
p2764
I1
sS'forward'
p2765
I1
sS'opens'
p2766
I1
sS'blueprint'
p2767
I1
sS'elsewhere'
p2768
I1
sS'inches'
p2769
I1
sS'relaxed'
p2770
I1
sS'bitterly'
p2771
I1
sS'slums'
p2772
I1
sS'boys'
p2773
I1
sS'atlantic'
p2774
I1
sS'pacific'
p2775
I1
sS'sinner'
p2776
I1
sS'hopes'
p2777
I1
sS'don'
p2778
I1
sS'line'
p2779
I1
sS'pain'
p2780
I1
sS'considerable'
p2781
I1
sS'posted'
p2782
I1
sS'directed'
p2783
I1
sS'blockage'
p2784
I1
sS'requesting'
p2785
I1
sS'up'
p2786
I1
sS'us'
p2787
I1
sS'planet'
p2788
I1
sS'lipcowy'
p2789
I1
sS'faded'
p2790
I1
sS'autonomous'
p2791
I1
sS'weightlifing'
p2792
I1
sS'alarm'
p2793
I1
sS'storing'
p2794
I1
sS'aerial'
p2795
I1
sS'nationalist'
p2796
I1
sS'fans'
p2797
I1
sS'raging'
p2798
I1
sS'stripped'
p2799
I1
sS'flocked'
p2800
I1
sS'unsafe'
p2801
I1
sS'dga'
p2802
I1
sS'spoonfuls'
p2803
I1
sS'gamefish'
p2804
I1
sS'nautical'
p2805
I1
sS'nepal'
p2806
I1
sS'950'
p2807
I1
sS'trainers'
p2808
I1
sS'preventing'
p2809
I1
sS'excuses'
p2810
I1
sS'points'
p2811
I1
sS'actors'
p2812
I1
sS'freighter'
p2813
I1
sS'ferried'
p2814
I1
sS'elements'
p2815
I1
sS'provided'
p2816
I1
sS'prosecution'
p2817
I1
sS'luxurious'
p2818
I1
sS'ferries'
p2819
I1
sS'stoppages'
p2820
I1
sS'depicting'
p2821
I1
sS'missile'
p2822
I1
sS'meals'
p2823
I1
sS'ago'
p2824
I1
sS'worsened'
p2825
I1
sS'land'
p2826
I1
sS'overlooking'
p2827
I1
sS'consumer'
p2828
I1
sS'rescued'
p2829
I1
sS'handcock'
p2830
I1
sS'wards'
p2831
I1
sS'walked'
p2832
I1
sS'federally'
p2833
I1
sS'presenting'
p2834
I1
sS'rallies'
p2835
I1
sS'kentuky'
p2836
I1
sS'fresh'
p2837
I1
sS'having'
p2838
I1
sS'advisory'
p2839
I1
sS'cynthia'
p2840
I1
sS'results'
p2841
I1
sS'highways'
p2842
I1
sS'conducting'
p2843
I1
sS'pooches'
p2844
I1
sS'westwood'
p2845
I1
sS'centers'
p2846
I1
sS'seemed'
p2847
I1
sS'graves'
p2848
I1
sS'marveled'
p2849
I1
sS'turkish'
p2850
I1
sS'concerned'
p2851
I1
sS'nhuchhe'
p2852
I1
sS'young'
p2853
I1
sS'send'
p2854
I1
sS'intensive'
p2855
I1
sS'citing'
p2856
I1
sS'outlooks'
p2857
I1
sS'blaze'
p2858
I1
sS'late'
p2859
I1
sS'tremor'
p2860
I1
sS'fatal'
p2861
I1
sS'indicating'
p2862
I1
sS'garden'
p2863
I1
sS'outside'
p2864
I1
sS'continues'
p2865
I1
sS'depauw'
p2866
I1
sS'huddled'
p2867
I1
sS'assam'
p2868
I1
sS'putting'
p2869
I1
sS'surgeon'
p2870
I1
sS'continued'
p2871
I1
sS'categories'
p2872
I1
sS'arrange'
p2873
I1
sS'entire'
p2874
I1
sS'courage'
p2875
I1
sS'respectful'
p2876
I1
sS'experiencing'
p2877
I1
sS'marry'
p2878
I1
sS'shock'
p2879
I1
sS'eve'
p2880
I1
sS'fewer'
p2881
I1
sS'racy'
p2882
I1
sS'yevgeny'
p2883
I1
sS'race'
p2884
I1
sS'pledge'
p2885
I1
sS'bleeding'
p2886
I1
sS'demonstrations'
p2887
I1
sS'rivers'
p2888
I1
sS'imply'
p2889
I1
sS'flanigan'
p2890
I1
sS'earth'
p2891
I1
sS'licenses'
p2892
I1
sS'wheat'
p2893
I1
sS'depression'
p2894
I1
sS'index'
p2895
I1
sS'staffers'
p2896
I1
sS'chicago'
p2897
I1
sS'giving'
p2898
I1
sS'anthem'
p2899
I1
sS'harvests'
p2900
I1
sS'fat'
p2901
I1
sS'expressed'
p2902
I1
sS'access'
p2903
I1
sS'laurence'
p2904
I1
sS'aground'
p2905
I1
sS'flowing'
p2906
I1
sS'nails'
p2907
I1
sS'exercise'
p2908
I1
sS'body'
p2909
I1
sS'led'
p2910
I1
sS'exchange'
p2911
I1
sS'gathered'
p2912
I1
sS'punch'
p2913
I1
sS'leo'
p2914
I1
sS'dressed'
p2915
I1
sS'dharan'
p2916
I1
sS'objects'
p2917
I1
sS'let'
p2918
I1
sS'others'
p2919
I1
sS'consideration'
p2920
I1
sS'fifteen'
p2921
I1
sS'extreme'
p2922
I1
sS'great'
p2923
I1
sS'38'
p2924
I1
sS'coped'
p2925
I1
sS'involved'
p2926
I1
sS'31'
p2927
I1
sS'30'
p2928
I1
sS'barahona'
p2929
I1
sS'36'
p2930
I1
sS'35'
p2931
I1
sS'34'
p2932
I1
sS'resulting'
p2933
I1
sS'opinion'
p2934
I1
sS'residents'
p2935
I1
sS'makes'
p2936
I1
sS'evacuating'
p2937
I1
sS'named'
p2938
I1
sS'hectic'
p2939
I1
sS'slain'
p2940
I1
sS'gusting'
p2941
I1
sS'sgt'
p2942
I1
sS'private'
p2943
I1
sS'gordon'
p2944
I1
sS'names'
p2945
I1
sS'composer'
p2946
I1
sS'scandal'
p2947
I1
sS'tools'
p2948
I1
sS'standing'
p2949
I1
sS'cheered'
p2950
I1
sS'links'
p2951
I1
sS'215th'
p2952
I1
sS'archbishop'
p2953
I1
sS'whipping'
p2954
I1
sS'ministers'
p2955
I1
sS'next'
p2956
I1
sS'doubt'
p2957
I1
sS'beaches'
p2958
I1
sS'binges'
p2959
I1
sS'toy'
p2960
I1
sS'doubling'
p2961
I1
sS'midday'
p2962
I1
sS'rick'
p2963
I1
sS'debauched'
p2964
I1
sS'shipwreck'
p2965
I1
sS'comparison'
p2966
I1
sS'zimmer'
p2967
I1
sS'capitalizing'
p2968
I1
sS'occurred'
p2969
I1
sS'thatch'
p2970
I1
sS'trail'
p2971
I1
sS'carrying'
p2972
I1
sS'bullhorn'
p2973
I1
sS'sharply'
p2974
I1
sS'baby'
p2975
I1
sS'ok'
p2976
I1
sS'billed'
p2977
I1
sS'tearing'
p2978
I1
sS'harvest'
p2979
I1
sS'charity'
p2980
I1
sS'account'
p2981
I1
sS'balls'
p2982
I1
sS'practicing'
p2983
I1
sS'f'
p2984
I1
sS'this'
p2985
I1
sS'athlete'
p2986
I1
sS'stations'
p2987
I1
sS'insists'
p2988
I1
sS'oct'
p2989
I1
sS'tempers'
p2990
I1
sS'industrial'
p2991
I1
sS'closing'
p2992
I1
sS'institute'
p2993
I1
sS'slid'
p2994
I1
sS'violence'
p2995
I1
sS'bent'
p2996
I1
sS'pawn'
p2997
I1
sS'process'
p2998
I1
sS'discussed'
p2999
I1
sS'saloojee'
p3000
I1
sS'high'
p3001
I1
sS'reserves'
p3002
I1
sS'employs'
p3003
I1
sS'zhuang'
p3004
I1
sS'bones'
p3005
I1
sS'contempt'
p3006
I1
sS'weaken'
p3007
I1
sS'educational'
p3008
I1
sS'destroying'
p3009
I1
sS'boxing'
p3010
I1
sS'delay'
p3011
I1
sS'winners'
p3012
I1
sS'pair'
p3013
I1
sS'forest'
p3014
I1
sS'comedy'
p3015
I1
sS'establishment'
p3016
I1
sS'kindling'
p3017
I1
sS'borrego'
p3018
I1
sS'buildings'
p3019
I1
sS'blocks'
p3020
I1
sS'y'
p3021
I1
sS'aspiring'
p3022
I1
sS'waters'
p3023
I1
sS'tied'
p3024
I1
sS'fits'
p3025
I1
sS'cabbage'
p3026
I1
sS'referring'
p3027
I1
sS'solidarity'
p3028
I1
sS'ambiguous'
p3029
I1
sS'bombers'
p3030
I1
sS'lucinda'
p3031
I1
sS'nickel'
p3032
I1
sS'counter'
p3033
I1
sS'lines'
p3034
I1
sS'guatemala'
p3035
I1
sS'element'
p3036
I1
sS'sendak'
p3037
I1
sS'likud'
p3038
I1
sS'laurie'
p3039
I1
sS'road'
p3040
I1
sS'allow'
p3041
I1
sS'subsequently'
p3042
I1
sS'volunteers'
p3043
I1
sS'rudna'
p3044
I1
sS'ignite'
p3045
I1
sS'anibal'
p3046
I1
sS'holds'
p3047
I1
sS'aging'
p3048
I1
sS'producer'
p3049
I1
sS'move'
p3050
I1
sS'outlook'
p3051
I1
sS'meter'
p3052
I1
sS'produced'
p3053
I1
sS'report'
p3054
I1
sS'statuette'
p3055
I1
sS'111'
p3056
I1
sS'warren'
p3057
I1
sS'perfect'
p3058
I1
sS'regions'
p3059
I1
sS'la'
p3060
I1
sS'll'
p3061
I1
sS'winning'
p3062
I1
sS'age'
p3063
I1
sS'lt'
p3064
I1
sS'willing'
p3065
I1
sS'degrees'
p3066
I1
sS'ls'
p3067
I1
sS'latitude'
p3068
I1
sS'hobby'
p3069
I1
sS'criminal'
p3070
I1
sS'revolutionaries'
p3071
I1
sS'dad'
p3072
I1
sS'heptathlon'
p3073
I1
sS'junction'
p3074
I1
sS'greater'
p3075
I1
sS'dam'
p3076
I1
sS'outlined'
p3077
I1
sS'spell'
p3078
I1
sS'newman'
p3079
I1
sS'disrupted'
p3080
I1
sS'cutting'
p3081
I1
sS'rotation'
p3082
I1
sS'day'
p3083
I1
sS'presidential'
p3084
I1
sS'redford'
p3085
I1
sS'february'
p3086
I1
sS'airports'
p3087
I1
sS'undertaking'
p3088
I1
sS'traced'
p3089
I1
sS'identified'
p3090
I1
sS'sniffing'
p3091
I1
sS'betty'
p3092
I1
sS'truth'
p3093
I1
sS'shortage'
p3094
I1
sS'accompanied'
p3095
I1
sS'beneath'
p3096
I1
sS'stock'
p3097
I1
sS'warner'
p3098
I1
sS'exacerbated'
p3099
I1
sS'vintondale'
p3100
I1
sS'belgrade'
p3101
I1
sS'tents'
p3102
I1
sS'doing'
p3103
I1
sS'poppins'
p3104
I1
sS'bums'
p3105
I1
sS'society'
p3106
I1
sS'books'
p3107
I1
sS'deteriorate'
p3108
I1
sS'huntington'
p3109
I1
sS'bay'
p3110
I1
sS'agriculture'
p3111
I1
sS'matt'
p3112
I1
sS'kids'
p3113
I1
sS'defend'
p3114
I1
sS'danic'
p3115
I1
sS'hinojosa'
p3116
I1
sS'mate'
p3117
I1
sS'arkansas'
p3118
I1
sS'barley'
p3119
I1
sS'evacuation'
p3120
I1
sS'unprepared'
p3121
I1
sS'primped'
p3122
I1
sS'highs'
p3123
I1
sS'red'
p3124
I1
sS'harold'
p3125
I1
sS'approached'
p3126
I1
sS'incalculable'
p3127
I1
sS'ban'
p3128
I1
sS'surely'
p3129
I1
sS'thrust'
p3130
I1
sS'likelihood'
p3131
I1
sS'afterward'
p3132
I1
sS'shortest'
p3133
I1
sS'backless'
p3134
I1
sS'mainland'
p3135
I1
sS'rumbled'
p3136
I1
sS'gallons'
p3137
I1
sS'could'
p3138
I1
sS'backwater'
p3139
I1
sS'david'
p3140
I1
sS'length'
p3141
I1
sS'camaguey'
p3142
I1
sS'scarf'
p3143
I1
sS'kostecki'
p3144
I1
sS'blown'
p3145
I1
sS'450'
p3146
I1
sS'mittal'
p3147
I1
sS'scene'
p3148
I1
sS'owned'
p3149
I1
sS'autographed'
p3150
I1
sS'improvements'
p3151
I1
sS'owner'
p3152
I1
sS'reached'
p3153
I1
sS'legislative'
p3154
I1
sS'ancient'
p3155
I1
sS'reference'
p3156
I1
sS'start'
p3157
I1
sS'ordering'
p3158
I1
sS'pots'
p3159
I1
sS'system'
p3160
I1
sS'unspecified'
p3161
I1
sS'percussion'
p3162
I1
sS'intermediate'
p3163
I1
sS'painful'
p3164
I1
sS'evacuated'
p3165
I1
sS'interests'
p3166
I1
sS'enforcement'
p3167
I1
sS'vigorous'
p3168
I1
sS'lot'
p3169
I1
sS'explanation'
p3170
I1
sS'unoccupied'
p3171
I1
sS'haven'
p3172
I1
sS'coughed'
p3173
I1
sS'steel'
p3174
I1
sS'loved'
p3175
I1
sS'colleagues'
p3176
I1
sS'bother'
p3177
I1
sS'extraordinarily'
p3178
I1
sS'listeners'
p3179
I1
sS'darbhanga'
p3180
I1
sS'orchestrated'
p3181
I1
sS'reproduction'
p3182
I1
sS'visited'
p3183
I1
sS'abolished'
p3184
I1
sS'steep'
p3185
I1
sS'aquino'
p3186
I1
sS'false'
p3187
I1
sS'vicente'
p3188
I1
sS'judo'
p3189
I1
sS'bisexual'
p3190
I1
sS'partnership'
p3191
I1
sS'andrzejczak'
p3192
I1
sS'tonight'
p3193
I1
sS'poduim'
p3194
I1
sS'bettering'
p3195
I1
sS'receptionist'
p3196
I1
sS'have'
p3197
I1
sS'941'
p3198
I1
sS'demonstration'
p3199
I1
sS'cecil'
p3200
I1
sS'viewed'
p3201
I1
sS'she'
p3202
I1
sS'mountainous'
p3203
I1
sS'swam'
p3204
I1
sS'dishes'
p3205
I1
sS'min'
p3206
I1
sS'mills'
p3207
I1
sS'chief'
p3208
I1
sS'concerns'
p3209
I1
sS'demolished'
p3210
I1
sS'latina'
p3211
I1
sS'ashore'
p3212
I1
sS'ganges'
p3213
I1
sS'korean'
p3214
I1
sS'mooring'
p3215
I1
sS'worldwide'
p3216
I1
sS'02'
p3217
I1
sS'unless'
p3218
I1
sS'voyage'
p3219
I1
sS'courtesy'
p3220
I1
sS'eight'
p3221
I1
sS'preliminary'
p3222
I1
sS'phyllis'
p3223
I1
sS'boychoir'
p3224
I1
sS'medal'
p3225
I1
sS'herman'
p3226
I1
sS'szczecin'
p3227
I1
sS'death'
p3228
I1
sS'lined'
p3229
I1
sS'frederica'
p3230
I1
sS'stranded'
p3231
I1
sS'request'
p3232
I1
sS'disease'
p3233
I1
sS'face'
p3234
I1
sS'denouncing'
p3235
I1
sS'wounded'
p3236
I1
sS'painting'
p3237
I1
sS'fact'
p3238
I1
sS'galveston'
p3239
I1
sS'atmosphere'
p3240
I1
sS'selection'
p3241
I1
sS'hurricanes'
p3242
I1
sS'text'
p3243
I1
sS'supported'
p3244
I1
sS'rotating'
p3245
I1
sS'bring'
p3246
I1
sS'traitor'
p3247
I1
sS'greenhouse'
p3248
I1
sS'sahel'
p3249
I1
sS'rough'
p3250
I1
sS'longer'
p3251
I1
sS'supporter'
p3252
I1
sS'decade'
p3253
I1
sS'principal'
p3254
I1
sS'communism'
p3255
I1
sS'keys'
p3256
I1
sS'knowledge'
p3257
I1
sS'sparks'
p3258
I1
sS'hydroelectric'
p3259
I1
sS'should'
p3260
I1
sS'jan'
p3261
I1
sS'tape'
p3262
I1
sS'notes'
p3263
I1
sS'riding'
p3264
I1
sS'communist'
p3265
I1
sS'biondi'
p3266
I1
sS'preliminaries'
p3267
I1
sS'hope'
p3268
I1
sS'meant'
p3269
I1
sS'means'
p3270
I1
sS'beat'
p3271
I1
sS'familiar'
p3272
I1
sS'intefadeh'
p3273
I1
sS'bear'
p3274
I1
sS'dharbhanga'
p3275
I1
sS'reputations'
p3276
I1
sS'perfection'
p3277
I1
sS'katharine'
p3278
I1
sS'moneymakers'
p3279
I1
sS'dominican'
p3280
I1
sS'committees'
p3281
I1
sS'unauthorized'
p3282
I1
sS'h'
p3283
I1
sS'taxes'
p3284
I1
sS'teams'
p3285
I1
sS'midori'
p3286
I1
sS'ohio'
p3287
I1
sS'discovery'
p3288
I1
sS'strengthened'
p3289
I1
sS'madan'
p3290
I1
sS'temporarily'
p3291
I1
sS'exists'
p3292
I1
sS'catastrophic'
p3293
I1
sS'national'
p3294
I1
sS'benigno'
p3295
I1
sS'edition'
p3296
I1
sS'intensity'
p3297
I1
sS'subcommittee'
p3298
I1
sS'agricultural'
p3299
I1
sS'packed'
p3300
I1
sS'phases'
p3301
I1
sS'wire'
p3302
I1
sS'helipads'
p3303
I1
sS'reform'
p3304
I1
sS'nuclear'
p3305
I1
sS'partisan'
p3306
I1
sS'brunt'
p3307
I1
sS'44th'
p3308
I1
sS'bruno'
p3309
I1
sS'nominees'
p3310
I1
sS'progress'
p3311
I1
sS'bunch'
p3312
I1
sS'cleaner'
p3313
I1
sS'ends'
p3314
I1
sS'janet'
p3315
I1
sS'bridges'
p3316
I1
sS'sorrow'
p3317
I1
sS'deliver'
p3318
I1
sS'historians'
p3319
I1
sS'nightfall'
p3320
I1
sS'climatologists'
p3321
I1
sS'lawsuit'
p3322
I1
sS'restrictions'
p3323
I1
sS'commenting'
p3324
I1
sS'revoked'
p3325
I1
sS'joke'
p3326
I1
sS'invited'
p3327
I1
sS'equal'
p3328
I1
sS'drug'
p3329
I1
sS'followup'
p3330
I1
sS'marth'
p3331
I1
sS'figures'
p3332
I1
sS'passing'
p3333
I1
sS'placebo'
p3334
I1
sS'terriers'
p3335
I1
sS'chest'
p3336
I1
sS'comment'
p3337
I1
sS'detailed'
p3338
I1
sS'english'
p3339
I1
sS'co'
p3340
I1
sS'brook'
p3341
I1
sS'brennan'
p3342
I1
sS'acres'
p3343
I1
sS'rosenker'
p3344
I1
sS'instigators'
p3345
I1
sS'deliberation'
p3346
I1
sS'powered'
p3347
I1
sS'tremendous'
p3348
I1
sS'muddy'
p3349
I1
sS'copies'
p3350
I1
sS'poured'
p3351
I1
sS'gaza'
p3352
I1
sS'marsh'
p3353
I1
sS'1928'
p3354
I1
sS'recurring'
p3355
I1
sS'trinity'
p3356
I1
sS'pravda'
p3357
I1
sS'homosexual'
p3358
I1
sS'marita'
p3359
I1
sS'466'
p3360
I1
sS'climate'
p3361
I1
sS'ridden'
p3362
I1
sS'finished'
p3363
I1
sS'tense'
p3364
I1
sS'puerto'
p3365
I1
sS'atlanta'
p3366
I1
sS'general'
p3367
I1
sS'volunteer'
p3368
I1
sS'homer'
p3369
I1
sS'homes'
p3370
I1
sS'plaid'
p3371
I1
sS'atmospheric'
p3372
I1
sS'irregular'
p3373
I1
sS'imagination'
p3374
I1
sS'plain'
p3375
I1
sS'value'
p3376
I1
sS'promoted'
p3377
I1
sS'handwriting'
p3378
I1
sS'hampering'
p3379
I1
sS'apatheid'
p3380
I1
sS've'
p3381
I1
sS'almost'
p3382
I1
sS'surprisingly'
p3383
I1
sS'respected'
p3384
I1
sS'hainan'
p3385
I1
sS'optimistic'
p3386
I1
sS'lifetime'
p3387
I1
sS'claimed'
p3388
I1
sS'arabic'
p3389
I1
sS'sits'
p3390
I1
sS'barreled'
p3391
I1
sS'portray'
p3392
I1
sS'watchful'
p3393
I1
sS'sympathizer'
p3394
I1
sS'juan'
p3395
I1
sS'administration'
p3396
I1
sS'dakotas'
p3397
I1
sS'coronary'
p3398
I1
sS'romance'
p3399
I1
sS'hare'
p3400
I1
sS'slammed'
p3401
I1
sS'casualty'
p3402
I1
sS'digging'
p3403
I1
sS'infarction'
p3404
I1
sS'hendricks'
p3405
I1
sS'terrorism'
p3406
I1
sS'dan'
p3407
I1
sS'injured'
p3408
I1
sS'practice'
p3409
I1
sS'bhoothai'
p3410
I1
sS'dusk'
p3411
I1
sS'quarterfinal'
p3412
I1
sS'drink'
p3413
I1
sS'upon'
p3414
I1
sS'nationally'
p3415
I1
sS'blockers'
p3416
I1
sS'strikers'
p3417
I1
sS'never'
p3418
I1
sS'dust'
p3419
I1
sS'scholars'
p3420
I1
sS'off'
p3421
I1
sS'center'
p3422
I1
sS'retardant'
p3423
I1
sS'chandpur'
p3424
I1
sS'nevertheless'
p3425
I1
sS'overcast'
p3426
I1
sS'southeastern'
p3427
I1
sS'thought'
p3428
I1
sS'1'
p3429
I1
sS'350'
p3430
I1
sS'yangtze'
p3431
I1
sS'publicize'
p3432
I1
sS'muscle'
p3433
I1
sS'soviet'
p3434
I1
sS'floored'
p3435
I1
sS'latest'
p3436
I1
sS'newest'
p3437
I1
sS'barking'
p3438
I1
sS'less'
p3439
I1
sS'moments'
p3440
I1
sS'kramer'
p3441
I1
sS'executive'
p3442
I1
sS'domestic'
p3443
I1
sS'traitors'
p3444
I1
sS'neale'
p3445
I1
sS'stored'
p3446
I1
sS'voltage'
p3447
I1
sS'seats'
p3448
I1
sS'dakota'
p3449
I1
sS'tone'
p3450
I1
sS'paul'
p3451
I1
sS'narcotics'
p3452
I1
sS'griffith'
p3453
I1
sS'reduced'
p3454
I1
sS'warship'
p3455
I1
sS'republican'
p3456
I1
sS'ads'
p3457
I1
sS'field'
p3458
I1
sS'residential'
p3459
I1
sS'mahananada'
p3460
I1
sS'recommending'
p3461
I1
sS'fled'
p3462
I1
sS'geraldine'
p3463
I1
sS'wet'
p3464
I1
sS'crops'
p3465
I1
sS'villagers'
p3466
I1
sS'match'
p3467
I1
sS'landings'
p3468
I1
sS'tests'
p3469
I1
sS'increased'
p3470
I1
sS'government'
p3471
I1
sS'checking'
p3472
I1
sS'fairies'
p3473
I1
sS'wendell'
p3474
I1
sS'cruz'
p3475
I1
sS'five'
p3476
I1
sS'deployment'
p3477
I1
sS'belgium'
p3478
I1
sS'blockages'
p3479
I1
sS'tick'
p3480
I1
sS'talkative'
p3481
I1
sS'like'
p3482
I1
sS'finnish'
p3483
I1
sS'chairs'
p3484
I1
sS'journalism'
p3485
I1
sS'admitted'
p3486
I1
sS'journalist'
p3487
I1
sS'heed'
p3488
I1
sS'warned'
p3489
I1
sS'become'
p3490
I1
sS'works'
p3491
I1
sS'soft'
p3492
I1
sS'accessible'
p3493
I1
sS'climatologist'
p3494
I1
sS'classical'
p3495
I1
sS'polar'
p3496
I1
sS'underwent'
p3497
I1
sS'footage'
p3498
I1
sS'hail'
p3499
I1
sS'hair'
p3500
I1
sS'brian'
p3501
I1
sS'gymnastics'
p3502
I1
sS'choosing'
p3503
I1
sS'loaded'
p3504
I1
sS'hissing'
p3505
I1
sS'transport'
p3506
I1
sS'happens'
p3507
I1
sS'wetter'
p3508
I1
sS'chichester'
p3509
I1
sS'avoid'
p3510
I1
sS'hurricane'
p3511
I1
sS'salaries'
p3512
I1
sS'apprehended'
p3513
I1
sS'shelter'
p3514
I1
sS'does'
p3515
I1
sS'blowing'
p3516
I1
sS'pomeranian'
p3517
I1
sS'schedule'
p3518
I1
sS'pressure'
p3519
I1
sS'vacchiano'
p3520
I1
sS'kristin'
p3521
I1
sS'although'
p3522
I1
sS'r'
p3523
I1
sS'loans'
p3524
I1
sS'michaels'
p3525
I1
sS'counties'
p3526
I1
sS'hiding'
p3527
I1
sS'sister'
p3528
I1
sS'puts'
p3529
I1
sS'withdrew'
p3530
I1
sS'basis'
p3531
I1
sS'angeles'
p3532
I1
sS'introduced'
p3533
I1
sS'documentary'
p3534
I1
sS'massachusetts'
p3535
I1
sS'moschitta'
p3536
I1
sS'letters'
p3537
I1
sS'suited'
p3538
I1
sS'billions'
p3539
I1
sS'rufino'
p3540
I1
sS'assess'
p3541
I1
sS'guard'
p3542
I1
sS'cultivated'
p3543
I1
sS'roads'
p3544
I1
sS'swimmers'
p3545
I1
sS'1986'
p3546
I1
sS'1987'
p3547
I1
sS'1984'
p3548
I1
sS'1985'
p3549
I1
sS'1983'
p3550
I1
sS'1980'
p3551
I1
sS'1981'
p3552
I1
sS'housing'
p3553
I1
sS'1988'
p3554
I1
sS'watchman'
p3555
I1
sS'joaquin'
p3556
I1
sS'trigger'
p3557
I1
sS'frustration'
p3558
I1
sS'biggest'
p3559
I1
sS'naturally'
p3560
I1
sS'function'
p3561
I1
sS'funnel'
p3562
I1
sS'buy'
p3563
I1
sS'interest'
p3564
I1
sS'chatting'
p3565
I1
sS'560'
p3566
I1
sS'bus'
p3567
I1
sS'562'
p3568
I1
sS'but'
p3569
I1
sS'delivery'
p3570
I1
sS'insured'
p3571
I1
sS'repeated'
p3572
I1
sS'bun'
p3573
I1
sS'convergence'
p3574
I1
sS'candidacy'
p3575
I1
sS'memphis'
p3576
I1
sS'rebutting'
p3577
I1
sS'count'
p3578
I1
sS'places'
p3579
I1
sS'lyng'
p3580
I1
sS'flit'
p3581
I1
sS'frugally'
p3582
I1
sS'official'
p3583
I1
sS'triumphant'
p3584
I1
sS'placed'
p3585
I1
sS'garbo'
p3586
I1
sS'89'
p3587
I1
sS'problem'
p3588
I1
sS'minutes'
p3589
I1
sS'skating'
p3590
I1
sS'bearing'
p3591
I1
sS'irish'
p3592
I1
sS'pio'
p3593
I1
sS'kingston'
p3594
I1
sS'consumed'
p3595
I1
sS'periods'
p3596
I1
sS'our'
p3597
I1
sS'ind'
p3598
I1
sS'inf'
p3599
I1
sS'openness'
p3600
I1
sS'campus'
p3601
I1
sS'inc'
p3602
I1
sS'compared'
p3603
I1
sS'48'
p3604
I1
sS'chubb'
p3605
I1
sS'46'
p3606
I1
sS'deadly'
p3607
I1
sS'44'
p3608
I1
sS'45'
p3609
I1
sS'42'
p3610
I1
sS'forests'
p3611
I1
sS'40'
p3612
I1
sS'41'
p3613
I1
sS'oat'
p3614
I1
sS'compares'
p3615
I1
sS'details'
p3616
I1
sS'u'
p3617
I1
sS'adam'
p3618
I1
sS'repeat'
p3619
I1
sS'monday'
p3620
I1
sS'respects'
p3621
I1
sS'tides'
p3622
I1
sS'outlets'
p3623
I1
sS'chance'
p3624
I1
sS'inspiration'
p3625
I1
sS'sentiment'
p3626
I1
sS'lasted'
p3627
I1
sS'rule'
p3628
I1
sS'hikes'
p3629
I1
sS'confinement'
p3630
I1
sS'compete'
p3631
I1
sS'pupil'
p3632
I1
sS'searched'
p3633
I1
sS'pump'
p3634
I1
sS'478'
p3635
I1
sS'accidents'
p3636
I1
sS'thunderstorms'
p3637
I1
sS'limited'
p3638
I1
sS'demanded'
p3639
I1
sS'sleep'
p3640
I1
sS'controversial'
p3641
I1
sS'oldest'
p3642
I1
sS'saved'
p3643
I1
sS'carolinas'
p3644
I1
sS'votes'
p3645
I1
sS'wolper'
p3646
I1
sS'poorest'
p3647
I1
sS'edward'
p3648
I1
sS'voted'
p3649
I1
sS'under'
p3650
I1
sS'oriental'
p3651
I1
sS'worth'
p3652
I1
sS'climax'
p3653
I1
sS'stanton'
p3654
I1
sS'risk'
p3655
I1
sS'geology'
p3656
I1
sS'rise'
p3657
I1
sS'every'
p3658
I1
sS'anemia'
p3659
I1
sS'tickets'
p3660
I1
sS'school'
p3661
I1
sS'investigator'
p3662
I1
sS'calif'
p3663
I1
sS'cannery'
p3664
I1
sS'humidity'
p3665
I1
sS'honor'
p3666
I1
sS'announced'
p3667
I1
sS'barracks'
p3668
I1
sS'cloudiness'
p3669
I1
sS'triumph'
p3670
I1
sS'291'
p3671
I1
sS'enjoy'
p3672
I1
sS'jamaica'
p3673
I1
sS'pandy'
p3674
I1
sS'campeche'
p3675
I1
sS'estimates'
p3676
I1
sS'ornstein'
p3677
I1
sS'horn'
p3678
I1
sS'surrounding'
p3679
I1
sS'electricians'
p3680
I1
sS'louder'
p3681
I1
sS'estimated'
p3682
I1
sS'intravenously'
p3683
I1
sS'shining'
p3684
I1
sS'blue'
p3685
I1
sS'established'
p3686
I1
sS'fidelio'
p3687
I1
sS'ruben'
p3688
I1
sS'clocked'
p3689
I1
sS'selected'
p3690
I1
sS'above'
p3691
I1
sS'toll'
p3692
I1
sS'supplies'
p3693
I1
sS'jaundice'
p3694
I1
sS'consisting'
p3695
I1
sS'seeks'
p3696
I1
sS'told'
p3697
I1
sS'kicked'
p3698
I1
sS'shattered'
p3699
I1
sS'feisty'
p3700
I1
sS'stared'
p3701
I1
sS'hundreds'
p3702
I1
sS'protection'
p3703
I1
sS'studio'
p3704
I1
sS'path'
p3705
I1
sS'growing'
p3706
I1
sS'celebration'
p3707
I1
sS'watchers'
p3708
I1
sS'daughter'
p3709
I1
sS'auction'
p3710
I1
sS'items'
p3711
I1
sS'employees'
p3712
I1
sS'changed'
p3713
I1
sS'jogging'
p3714
I1
sS'procedure'
p3715
I1
sS'smoke'
p3716
I1
sS'stressed'
p3717
I1
sS'postponed'
p3718
I1
sS'settled'
p3719
I1
sS'midway'
p3720
I1
sS'manipur'
p3721
I1
sS'prints'
p3722
I1
sS'ambulances'
p3723
I1
sS'secure'
p3724
I1
sS'julia'
p3725
I1
sS'highly'
p3726
I1
sS'visible'
p3727
I1
sS'fournier'
p3728
I1
sS'actions'
p3729
I1
sS'total'
p3730
I1
sS'752'
p3731
I1
sS'sarah'
p3732
I1
sS'devastation'
p3733
I1
sS'swings'
p3734
I1
sS'would'
p3735
I1
sS'palestinian'
p3736
I1
sS'compensation'
p3737
I1
sS'hospital'
p3738
I1
sS'dostanic'
p3739
I1
sS'compositions'
p3740
I1
sS'distributing'
p3741
I1
sS'program'
p3742
I1
sS'asset'
p3743
I1
sS'raids'
p3744
I1
sS'indiana'
p3745
I1
sS'limousine'
p3746
I1
sS'separated'
p3747
I1
sS'main'
p3748
I1
sS'cardiology'
p3749
I1
sS'naive'
p3750
I1
sS'pancreatic'
p3751
I1
sS'award'
p3752
I1
sS'phone'
p3753
I1
sS'allies'
p3754
I1
sS'vijapur'
p3755
I1
sS'casualties'
p3756
I1
sS'blocking'
p3757
I1
sS'must'
p3758
I1
sS'me'
p3759
I1
sS'irvin'
p3760
I1
sS'stade'
p3761
I1
sS'1992'
p3762
I1
sS'word'
p3763
I1
sS'wore'
p3764
I1
sS'divorced'
p3765
I1
sS'work'
p3766
I1
sS'advocacy'
p3767
I1
sS'spoden'
p3768
I1
sS'tinder'
p3769
I1
sS'era'
p3770
I1
sS'merida'
p3771
I1
sS'mr'
p3772
I1
sS'criticizing'
p3773
I1
sS'crackers'
p3774
I1
sS'my'
p3775
I1
sS'scripting'
p3776
I1
sS'szezecin'
p3777
I1
sS'indicated'
p3778
I1
sS'cited'
p3779
I1
sS'india'
p3780
I1
sS'550'
p3781
I1
sS'indicates'
p3782
I1
sS'authorities'
p3783
I1
sS'mohan'
p3784
I1
sS'keep'
p3785
I1
sS'cites'
p3786
I1
sS'totaled'
p3787
I1
sS'parcel'
p3788
I1
sS'ceremony'
p3789
I1
sS'tornadoes'
p3790
I1
sS'strom'
p3791
I1
sS'end'
p3792
I1
sS'recovery'
p3793
I1
sS'provide'
p3794
I1
sS'sitting'
p3795
I1
sS'id'
p3796
I1
sS'matamoros'
p3797
I1
sS'far'
p3798
I1
sS'interview'
p3799
I1
sS'widespread'
p3800
I1
sS'beach'
p3801
I1
sS'sunfishes'
p3802
I1
sS'offshore'
p3803
I1
sS'badly'
p3804
I1
sS'elizabeth'
p3805
I1
sS'mess'
p3806
I1
sS'1948'
p3807
I1
sS'earlier'
p3808
I1
sS'memorial'
p3809
I1
sS'lab'
p3810
I1
sS'customs'
p3811
I1
sS'jumping'
p3812
I1
sS'lay'
p3813
I1
sS'water'
p3814
I1
sS'law'
p3815
I1
sS'lap'
p3816
I1
sS'stronghold'
p3817
I1
sS'pemex'
p3818
I1
sS'padre'
p3819
I1
sS'amid'
p3820
I1
sS'homeowners'
p3821
I1
sS'appreciate'
p3822
I1
sS'exhibition'
p3823
I1
sS'greek'
p3824
I1
sS'green'
p3825
I1
sS'south'
p3826
I1
sS'parish'
p3827
I1
sS'roused'
p3828
I1
sS'worst'
p3829
I1
sS'timbers'
p3830
I1
sS'order'
p3831
I1
sS'triggering'
p3832
I1
sS'amir'
p3833
I1
sS'office'
p3834
I1
sS'defenders'
p3835
I1
sS'over'
p3836
I1
sS'satisfied'
p3837
I1
sS'london'
p3838
I1
sS'thesis'
p3839
I1
sS'japan'
p3840
I1
sS'nets'
p3841
I1
sS'mayor'
p3842
I1
sS'destroyer'
p3843
I1
sS'highlights'
p3844
I1
sS'recreational'
p3845
I1
sS'writing'
p3846
I1
sS'destroyed'
p3847
I1
sS'production'
p3848
I1
sS'embankments'
p3849
I1
sS'400'
p3850
I1
sS'stifling'
p3851
I1
sS'damages'
p3852
I1
sS'versus'
p3853
I1
sS'then'
p3854
I1
sS'them'
p3855
I1
sS'affected'
p3856
I1
sS'tourist'
p3857
I1
sS'prevented'
p3858
I1
sS'locusts'
p3859
I1
sS'safe'
p3860
I1
sS'bouts'
p3861
I1
sS'break'
p3862
I1
sS'bang'
p3863
I1
sS'reaches'
p3864
I1
sS'they'
p3865
I1
sS'rental'
p3866
I1
sS'bank'
p3867
I1
sS'bread'
p3868
I1
sS'netherlands'
p3869
I1
sS'oxygen'
p3870
I1
sS'regularly'
p3871
I1
sS'potatoes'
p3872
I1
sS'classified'
p3873
I1
sS'l'
p3874
I1
sS'choir'
p3875
I1
sS'districts'
p3876
I1
sS'therth'
p3877
I1
sS'affiliate'
p3878
I1
sS'victory'
p3879
I1
sS'each'
p3880
I1
sS'370'
p3881
I1
sS'feeds'
p3882
I1
sS'entitled'
p3883
I1
sS'excavations'
p3884
I1
sS'gayther'
p3885
I1
sS'signing'
p3886
I1
sS'diana'
p3887
I1
sS'dumping'
p3888
I1
sS'train'
p3889
I1
sS'january'
p3890
I1
sS'group'
p3891
I1
sS'gatherings'
p3892
I1
sS'railed'
p3893
I1
sS'afield'
p3894
I1
sS'grandfather'
p3895
I1
sS'saturday'
p3896
I1
sS'hostel'
p3897
I1
sS'islanders'
p3898
I1
sS'network'
p3899
I1
sS'driving'
p3900
I1
sS'god'
p3901
I1
sS'hooked'
p3902
I1
sS'forty'
p3903
I1
sS'giaquinta'
p3904
I1
sS'trumpeted'
p3905
I1
sS'laid'
p3906
I1
sS'daniel'
p3907
I1
sS'banning'
p3908
I1
sS'medicine'
p3909
I1
sS'got'
p3910
I1
sS'gov'
p3911
I1
sS'forth'
p3912
I1
sS'gop'
p3913
I1
sS'independence'
p3914
I1
sS'arizona'
p3915
I1
sS'disputed'
p3916
I1
sS'associate'
p3917
I1
sS'hang'
p3918
I1
sS'free'
p3919
I1
sS'fred'
p3920
I1
sS'admits'
p3921
I1
sS'disputes'
p3922
I1
sS'formation'
p3923
I1
sS'phillippi'
p3924
I1
sS'forcibly'
p3925
I1
sS'wanted'
p3926
I1
sS'reinstatement'
p3927
I1
sS'borkum'
p3928
I1
sS'recovering'
p3929
I1
sS'photographers'
p3930
I1
sS'argument'
p3931
I1
sS'days'
p3932
I1
sS'festival'
p3933
I1
sS'oppose'
p3934
I1
sS'incorporated'
p3935
I1
sS'baltic'
p3936
I1
sS'onto'
p3937
I1
sS'appeals'
p3938
I1
sS'daunting'
p3939
I1
sS'sobel'
p3940
I1
sS'dukakis'
p3941
I1
sS'lohman'
p3942
I1
sS'primary'
p3943
I1
sS'restrict'
p3944
I1
sS'adopted'
p3945
I1
sS'another'
p3946
I1
sS'mervyn'
p3947
I1
sS'ingmar'
p3948
I1
sS'mercury'
p3949
I1
sS'timothy'
p3950
I1
sS'rated'
p3951
I1
sS'koen'
p3952
I1
sS'explosives'
p3953
I1
sS'top'
p3954
I1
sS'fiction'
p3955
I1
sS'pradesh'
p3956
I1
sS'rates'
p3957
I1
sS'nearly'
p3958
I1
sS'corpus'
p3959
I1
sS'john'
p3960
I1
sS'dogs'
p3961
I1
sS'damaging'
p3962
I1
sS'chanted'
p3963
I1
sS'rushlaw'
p3964
I1
sS'murder'
p3965
I1
sS'centered'
p3966
I1
sS'luncheon'
p3967
I1
sS'albert'
p3968
I1
sS'took'
p3969
I1
sS'rejected'
p3970
I1
sS'weightlifting'
p3971
I1
sS'western'
p3972
I1
sS'cereal'
p3973
I1
sS'shortly'
p3974
I1
sS'character'
p3975
I1
sS'toronto'
p3976
I1
sS'guild'
p3977
I1
sS'target'
p3978
I1
sS'rampage'
p3979
I1
sS'hitachi'
p3980
I1
sS'nominate'
p3981
I1
sS'meteorology'
p3982
I1
sS'final'
p3983
I1
sS'precocious'
p3984
I1
sS'historical'
p3985
I1
sS'charlie'
p3986
I1
sS'minus'
p3987
I1
sS'bridge'
p3988
I1
sS'1974'
p3989
I1
sS'encumbered'
p3990
I1
sS'sonali'
p3991
I1
sS'ran'
p3992
I1
sS'astaire'
p3993
I1
sS'ram'
p3994
I1
sS'raj'
p3995
I1
sS'talking'
p3996
I1
sS'ocean'
p3997
I1
sS'gear'
p3998
I1
sS'forced'
p3999
I1
sS'strength'
p4000
I1
sS'genuine'
p4001
I1
sS'1969'
p4002
I1
sS'harmless'
p4003
I1
sS'laden'
p4004
I1
sS'1964'
p4005
I1
sS'thoroughly'
p4006
I1
sS'bacall'
p4007
I1
sS'1960'
p4008
I1
sS'isolated'
p4009
I1
sS'pashupati'
p4010
I1
sS'morristown'
p4011
I1
sS'pulliam'
p4012
I1
sS'luxury'
p4013
I1
sS'forces'
p4014
I1
sS'punish'
p4015
I1
sS'curfew'
p4016
I1
sS'completed'
p4017
I1
sS'circles'
p4018
I1
sS'spencer'
p4019
I1
sS'nobody'
p4020
I1
sS'soared'
p4021
I1
sS'maiden'
p4022
I1
sS'though'
p4023
I1
sS'bruce'
p4024
I1
sS'extending'
p4025
I1
sS'involving'
p4026
I1
sS'germany'
p4027
I1
sS'gidon'
p4028
I1
sS'phase'
p4029
I1
sS'doglovers'
p4030
I1
sS'jean'
p4031
I1
sS'parting'
p4032
I1
sS'promotions'
p4033
I1
sS'elections'
p4034
I1
sS'devastating'
p4035
I1
sS'metal'
p4036
I1
sS'treaty'
p4037
I1
sS'demoralized'
p4038
I1
sS'enterprise'
p4039
I1
sS'agnew'
p4040
I1
sS'responded'
p4041
I1
sS'docter'
p4042
I1
sS'contacted'
p4043
I1
sS'teetering'
p4044
I1
sS'lewis'
p4045
I1
sS'anniversary'
p4046
I1
sS'pops'
p4047
I1
sS'radio'
p4048
I1
sS'bouffard'
p4049
I1
sS'endowment'
p4050
I1
sS'enjoyed'
p4051
I1
sS'greencastle'
p4052
I1
sS'resemblance'
p4053
I1
sS'just'
p4054
I1
sS'symphonic'
p4055
I1
sS'minnesota'
p4056
I1
sS'glasnost'
p4057
I1
sS'546'
p4058
I1
sS'deepest'
p4059
I1
sS'photo'
p4060
I1
sS'adequate'
p4061
I1
sS'549'
p4062
I1
sS'warmest'
p4063
I1
sS'mascots'
p4064
I1
sS'predecessor'
p4065
I1
sS'do'
p4066
I1
sS'hostility'
p4067
I1
sS'de'
p4068
I1
sS'watch'
p4069
I1
sS'clots'
p4070
I1
sS'criticized'
p4071
I1
sS'watson'
p4072
I1
sS'tuberculosis'
p4073
I1
sS'despite'
p4074
I1
sS'defending'
p4075
I1
sS'policymakers'
p4076
I1
sS'haiti'
p4077
I1
sS'dr'
p4078
I1
sS'runs'
p4079
I1
sS'countries'
p4080
I1
sS'plush'
p4081
I1
sS'twice'
p4082
I1
sS'analytical'
p4083
I1
sS'ruins'
p4084
I1
sS'steam'
p4085
I1
sS'secretary'
p4086
I1
sS'swept'
p4087
I1
sS'habit'
p4088
I1
sS'1960s'
p4089
I1
sS'depends'
p4090
I1
sS'cattle'
p4091
I1
sS'corrupt'
p4092
I1
sS'yes'
p4093
I1
sS'pastel'
p4094
I1
sS'combustion'
p4095
I1
sS'capacity'
p4096
I1
sS'mitch'
p4097
I1
sS'away'
p4098
I1
sS'interviewing'
p4099
I1
sS'caved'
p4100
I1
sS'calamity'
p4101
I1
sS'plummeting'
p4102
I1
sS'portrayed'
p4103
I1
sS'mud'
p4104
I1
sS'unable'
p4105
I1
sS'tainted'
p4106
I1
sS'toland'
p4107
I1
sS'cooperation'
p4108
I1
sS'cellist'
p4109
I1
sS'drawn'
p4110
I1
sS'approach'
p4111
I1
sS'handwritten'
p4112
I1
sS'clued'
p4113
I1
sS'we'
p4114
I1
sS'terms'
p4115
I1
sS'loves'
p4116
I1
sS'adding'
p4117
I1
sS'however'
p4118
I1
sS'nightmares'
p4119
I1
sS'southeast'
p4120
I1
sS'outages'
p4121
I1
sS'news'
p4122
I1
sS'downgraded'
p4123
I1
sS'forceful'
p4124
I1
sS'faced'
p4125
I1
sS'received'
p4126
I1
sS'cos'
p4127
I1
sS'unicef'
p4128
I1
sS'ill'
p4129
I1
sS'paralyzing'
p4130
I1
sS'critics'
p4131
I1
sS'games'
p4132
I1
sS'receives'
p4133
I1
sS'brad'
p4134
I1
sS'looters'
p4135
I1
sS'peacefully'
p4136
I1
sS'suggest'
p4137
I1
sS'tough'
p4138
I1
sS'royal'
p4139
I1
sS'tons'
p4140
I1
sS'tony'
p4141
I1
sS'oblivious'
p4142
I1
sS'trust'
p4143
I1
sS'katarina'
p4144
I1
sS'panel'
p4145
I1
sS'speak'
p4146
I1
sS'conference'
p4147
I1
sS'engines'
p4148
I1
sS'germans'
p4149
I1
sS'exceeded'
p4150
I1
sS'selloff'
p4151
I1
sS'been'
p4152
I1
sS'quickly'
p4153
I1
sS'beer'
p4154
I1
sS'belongs'
p4155
I1
sS'beet'
p4156
I1
sS'noel'
p4157
I1
sS'expected'
p4158
I1
sS'captives'
p4159
I1
sS'dozens'
p4160
I1
sS'walters'
p4161
I1
sS'duties'
p4162
I1
sS'refuted'
p4163
I1
sS'families'
p4164
I1
sS'attacked'
p4165
I1
sS'drugs'
p4166
I1
sS'concerning'
p4167
I1
sS'glided'
p4168
I1
sS'search'
p4169
I1
sS'meterologist'
p4170
I1
sS'craft'
p4171
I1
sS'catch'
p4172
I1
sS'naval'
p4173
I1
sS'applied'
p4174
I1
sS'physician'
p4175
I1
sS'srivastava'
p4176
I1
sS'has'
p4177
I1
sS'psalms'
p4178
I1
sS'heartland'
p4179
I1
sS'pljeskavica'
p4180
I1
sS'kentucky'
p4181
I1
sS'air'
p4182
I1
sS'aim'
p4183
I1
sS'tillson'
p4184
I1
sS'teachers'
p4185
I1
sS'leaves'
p4186
I1
sS'aid'
p4187
I1
sS'cracked'
p4188
I1
sS'voice'
p4189
I1
sS'launched'
p4190
I1
sS'mistake'
p4191
I1
sS'precipitation'
p4192
I1
sS'909'
p4193
I1
sS'allows'
p4194
I1
sS'dumped'
p4195
I1
sS'tissue'
p4196
I1
sS'experts'
p4197
I1
sS'exile'
p4198
I1
sS'confirmed'
p4199
I1
sS'sofas'
p4200
I1
sS'perform'
p4201
I1
sS'apparently'
p4202
I1
sS'wound'
p4203
I1
sS'jerry'
p4204
I1
sS'puranman'
p4205
I1
sS'complex'
p4206
I1
sS'sheltered'
p4207
I1
sS'advances'
p4208
I1
sS'monarch'
p4209
I1
sS'several'
p4210
I1
sS'convictions'
p4211
I1
sS'independent'
p4212
I1
sS'leftist'
p4213
I1
sS'mastino'
p4214
I1
sS'theodore'
p4215
I1
sS'everett'
p4216
I1
sS'balkan'
p4217
I1
sS'rail'
p4218
I1
sS'rain'
p4219
I1
sS'hand'
p4220
I1
sS'fuse'
p4221
I1
sS'characters'
p4222
I1
sS'insisted'
p4223
I1
sS'blamed'
p4224
I1
sS'dhaka'
p4225
I1
sS'prescribed'
p4226
I1
sS'kept'
p4227
I1
sS'piazza'
p4228
I1
sS'1979'
p4229
I1
sS'1977'
p4230
I1
sS'1976'
p4231
I1
sS'1975'
p4232
I1
sS'humble'
p4233
I1
sS'1973'
p4234
I1
sS'1972'
p4235
I1
sS'1971'
p4236
I1
sS'1970'
p4237
I1
sS'savings'
p4238
I1
sS'contact'
p4239
I1
sS'greatest'
p4240
I1
sS'detained'
p4241
I1
sS'mother'
p4242
I1
sS'hearts'
p4243
I1
sS'the'
p4244
I1
sS'musical'
p4245
I1
sS'seasonal'
p4246
I1
sS'appease'
p4247
I1
sS'background'
p4248
I1
sS'quoted'
p4249
I1
sS'gods'
p4250
I1
sS'mid'
p4251
I1
sS'quotes'
p4252
I1
sS'thanks'
p4253
I1
sS'salvage'
p4254
I1
sS'barisal'
p4255
I1
sS'vices'
p4256
I1
sS'jose'
p4257
I1
sS'admittance'
p4258
I1
sS'depicts'
p4259
I1
sS'brigham'
p4260
I1
sS'flutist'
p4261
I1
sS'occupants'
p4262
I1
sS'wright'
p4263
I1
sS'spread'
p4264
I1
sS'board'
p4265
I1
sS'belly'
p4266
I1
sS'humanity'
p4267
I1
sS'trashed'
p4268
I1
sS'gave'
p4269
I1
sS'insensitive'
p4270
I1
sS'gregg'
p4271
I1
sS'capt'
p4272
I1
sS'bands'
p4273
I1
sS'northwestward'
p4274
I1
sS'capp'
p4275
I1
sS'caps'
p4276
I1
sS'boxer'
p4277
I1
sS'injuring'
p4278
I1
sS'consisted'
p4279
I1
sS'judge'
p4280
I1
sS'appearing'
p4281
I1
sS'burns'
p4282
I1
sS'retreat'
p4283
I1
sS'apart'
p4284
I1
sS'nikolic'
p4285
I1
sS'melting'
p4286
I1
sS'martha'
p4287
I1
sS'59'
p4288
I1
sS'58'
p4289
I1
sS'cooler'
p4290
I1
sS'54'
p4291
I1
sS'57'
p4292
I1
sS'56'
p4293
I1
sS'51'
p4294
I1
sS'50'
p4295
I1
sS'53'
p4296
I1
sS'52'
p4297
I1
sS'specific'
p4298
I1
sS'55'
p4299
I1
sS'535'
p4300
I1
sS'gandhi'
p4301
I1
sS'531'
p4302
I1
sS'night'
p4303
I1
sS'hung'
p4304
I1
sS'security'
p4305
I1
sS'honored'
p4306
I1
sS'zabrze'
p4307
I1
sS'shook'
p4308
I1
sS'understand'
p4309
I1
sS'excerpt'
p4310
I1
sS'unnecessary'
p4311
I1
sS'lashed'
p4312
I1
sS'meters'
p4313
I1
sS'election'
p4314
I1
sS'roamed'
p4315
I1
sS'specialities'
p4316
I1
sS'kanaris'
p4317
I1
sS'extended'
p4318
I1
sS'contests'
p4319
I1
sS'drowned'
p4320
I1
sS'youthful'
p4321
I1
sS'humor'
p4322
I1
sS'combat'
p4323
I1
sS'purple'
p4324
I1
sS'judy'
p4325
I1
sS'comments'
p4326
I1
sS'violinist'
p4327
I1
sS'everything'
p4328
I1
sS'squeeze'
p4329
I1
sS'trustees'
p4330
I1
sS'denied'
p4331
I1
sS'beating'
p4332
I1
sS'christmas'
p4333
I1
sS'participation'
p4334
I1
sS'officer'
p4335
I1
sS'columbus'
p4336
I1
sS'who'
p4337
I1
sS'posh'
p4338
I1
sS'sadik'
p4339
I1
sS'corn'
p4340
I1
sS'pose'
p4341
I1
sS'disappeared'
p4342
I1
sS'restructuring'
p4343
I1
sS'corp'
p4344
I1
sS'graduated'
p4345
I1
sS'rafi'
p4346
I1
sS'isolde'
p4347
I1
sS'trophy'
p4348
I1
sS'attacks'
p4349
I1
sS'coral'
p4350
I1
sS'months'
p4351
I1
sS'plying'
p4352
I1
sS'barns'
p4353
I1
sS'sizzling'
p4354
I1
sS'dinner'
p4355
I1
sS'speedier'
p4356
I1
sS'plus'
p4357
I1
sS'horizon'
p4358
I1
sS'logistical'
p4359
I1
sS'own'
p4360
I1
sS'efforts'
p4361
I1
sS'curry'
p4362
I1
sS'jacques'
p4363
I1
sS'unabashedly'
p4364
I1
sS'civil'
p4365
I1
sS'prisoners'
p4366
I1
sS'peppered'
p4367
I1
sS'bound'
p4368
I1
sS'gearing'
p4369
I1
sS'accomplishments'
p4370
I1
sS'donated'
p4371
I1
sS'coastal'
p4372
I1
sS'delve'
p4373
I1
sS'electorate'
p4374
I1
sS'dean'
p4375
I1
sS'emigrate'
p4376
I1
sS'anorexic'
p4377
I1
sS'anorexia'
p4378
I1
sS'strangely'
p4379
I1
sS'deal'
p4380
I1
sS'segment'
p4381
I1
sS'legislation'
p4382
I1
sS'transform'
p4383
I1
sS'diseases'
p4384
I1
sS'fight'
p4385
I1
sS'virgin'
p4386
I1
sS'conservation'
p4387
I1
sS'towing'
p4388
I1
sS'way'
p4389
I1
sS'crews'
p4390
I1
sS'editions'
p4391
I1
sS'gil'
p4392
I1
sS'was'
p4393
I1
sS'war'
p4394
I1
sS'moro'
p4395
I1
sS'lowest'
p4396
I1
sS'became'
p4397
I1
sS'head'
p4398
I1
sS'washed'
p4399
I1
sS'amateur'
p4400
I1
sS'attempted'
p4401
I1
sS'becoming'
p4402
I1
sS'differences'
p4403
I1
sS'vitality'
p4404
I1
sS'somehow'
p4405
I1
sS'peninsula'
p4406
I1
sS'taken'
p4407
I1
sS'observances'
p4408
I1
sS'uncle'
p4409
I1
sS'elderly'
p4410
I1
sS'sustained'
p4411
I1
sS'removed'
p4412
I1
sS'true'
p4413
I1
sS'trud'
p4414
I1
sS'nationwide'
p4415
I1
sS'born'
p4416
I1
sS'invincible'
p4417
I1
sS'maximum'
p4418
I1
sS'veterinarian'
p4419
I1
sS'michiko'
p4420
I1
sS'vacationers'
p4421
I1
sS'southernmost'
p4422
I1
sS'krakow'
p4423
I1
sS'hotter'
p4424
I1
sS'moore'
p4425
I1
sS'estonia'
p4426
I1
sS'frederick'
p4427
I1
sS'rumored'
p4428
I1
sS'evidence'
p4429
I1
sS'howling'
p4430
I1
sS'expertise'
p4431
I1
sS'acclaimed'
p4432
I1
sS'indirect'
p4433
I1
sS'weakened'
p4434
I1
sS'no'
p4435
I1
sS'when'
p4436
I1
sS'topped'
p4437
I1
sS'reality'
p4438
I1
sS'vesna'
p4439
I1
sS'tin'
p4440
I1
sS'shrine'
p4441
I1
sS'holding'
p4442
I1
sS'staggering'
p4443
I1
sS'tie'
p4444
I1
sS'vanished'
p4445
I1
sS'panchayat'
p4446
I1
sS'operators'
p4447
I1
sS'picture'
p4448
I1
sS'brothers'
p4449
I1
sS'preceding'
p4450
I1
sS'scores'
p4451
I1
sS'troupe'
p4452
I1
sS'funerals'
p4453
I1
sS'juiced'
p4454
I1
sS'tugboat'
p4455
I1
sS'faster'
p4456
I1
sS'normally'
p4457
I1
sS'together'
p4458
I1
sS'uncovered'
p4459
I1
sS'loyal'
p4460
I1
sS'vietnam'
p4461
I1
sS'classmate'
p4462
I1
sS'already'
p4463
I1
sS'serious'
p4464
I1
sS'songs'
p4465
I1
sS'neighbors'
p4466
I1
sS'concept'
p4467
I1
sS'ron'
p4468
I1
sS'roo'
p4469
I1
sS'consul'
p4470
I1
sS'global'
p4471
I1
sS'focus'
p4472
I1
sS'sympathetic'
p4473
I1
sS'roy'
p4474
I1
sS'moisture'
p4475
I1
sS'marion'
p4476
I1
sS'ice'
p4477
I1
sS'dalton'
p4478
I1
sS'row'
p4479
I1
sS'devoted'
p4480
I1
sS'certainly'
p4481
I1
sS'1949'
p4482
I1
sS'zone'
p4483
I1
sS'honoring'
p4484
I1
sS'1943'
p4485
I1
sS'1940'
p4486
I1
sS'flash'
p4487
I1
sS'1947'
p4488
I1
sS'1944'
p4489
I1
sS'charge'
p4490
I1
sS'asking'
p4491
I1
sS'promoting'
p4492
I1
sS'weakening'
p4493
I1
sS'explode'
p4494
I1
sS'sing'
p4495
I1
sS'saharan'
p4496
I1
sS'southwest'
p4497
I1
sS'brown'
p4498
I1
sS'charles'
p4499
I1
sS'flagrant'
p4500
I1
sS'federation'
p4501
I1
sS'moderator'
p4502
I1
sS'none'
p4503
I1
sS'anonymous'
p4504
I1
sS'entries'
p4505
I1
sS'cook'
p4506
I1
sS'trouble'
p4507
I1
sS'blast'
p4508
I1
sS'perceived'
p4509
I1
sS'clouds'
p4510
I1
sS'vladimir'
p4511
I1
sS'presented'
p4512
I1
sS'turns'
p4513
I1
sS'philippines'
p4514
I1
sS'fragile'
p4515
I1
sS'registered'
p4516
I1
sS'hawaii'
p4517
I1
sS'standards'
p4518
I1
sS'p'
p4519
I1
sS'guy'
p4520
I1
sS'tenths'
p4521
I1
sS'lloyd'
p4522
I1
sS'upper'
p4523
I1
sS'pork'
p4524
I1
sS'demille'
p4525
I1
sS'says'
p4526
I1
sS'plummer'
p4527
I1
sS'tougher'
p4528
I1
sS'trend'
p4529
I1
sS'agitate'
p4530
I1
sS'inland'
p4531
I1
sS'cost'
p4532
I1
sS'roosevelt'
p4533
I1
sS'ottoman'
p4534
I1
sS'bales'
p4535
I1
sS'port'
p4536
I1
sS'drinks'
p4537
I1
sS'cargo'
p4538
I1
sS'gibbons'
p4539
I1
sS'boats'
p4540
I1
sS'appear'
p4541
I1
sS'spiro'
p4542
I1
sS'feat'
p4543
I1
sS'assistance'
p4544
I1
sS'contracted'
p4545
I1
sS'shares'
p4546
I1
sS'uniform'
p4547
I1
sS'summers'
p4548
I1
sS'hungry'
p4549
I1
sS'goes'
p4550
I1
sS'marketing'
p4551
I1
sS'ketrzynska'
p4552
I1
sS'appeal'
p4553
I1
sS'scripted'
p4554
I1
sS'genex'
p4555
I1
sS'supporting'
p4556
I1
sS'predicting'
p4557
I1
sS'explosion'
p4558
I1
sS'morgan'
p4559
I1
sS'peeled'
p4560
I1
sS'standiford'
p4561
I1
sS'pioneered'
p4562
I1
sS'filmed'
p4563
I1
sS'catapulted'
p4564
I1
sS'groups'
p4565
I1
sS'teacher'
p4566
I1
sS'change'
p4567
I1
sS'sending'
p4568
I1
sS'unidentified'
p4569
I1
sS'dec'
p4570
I1
sS'thirty'
p4571
I1
sS'healthy'
p4572
I1
sS'ravaging'
p4573
I1
sS'publisher'
p4574
I1
sS'roared'
p4575
I1
sS'trial'
p4576
I1
sS'usually'
p4577
I1
sS'idolized'
p4578
I1
sS'navigation'
p4579
I1
sS'montreal'
p4580
I1
sS'beautiful'
p4581
I1
sS'leanings'
p4582
I1
sS'retired'
p4583
I1
sS'extra'
p4584
I1
sS'soybeans'
p4585
I1
sS'marked'
p4586
I1
sS'1966'
p4587
I1
sS'controls'
p4588
I1
sS'nepalese'
p4589
I1
sS'illumination'
p4590
I1
sS'katihar'
p4591
I1
sS'rarely'
p4592
I1
sS'crisis'
p4593
I1
sS'market'
p4594
I1
sS'archaeology'
p4595
I1
sS'margolies'
p4596
I1
sS'handled'
p4597
I1
sS'driest'
p4598
I1
sS'sports'
p4599
I1
sS'live'
p4600
I1
sS'memory'
p4601
I1
sS'australian'
p4602
I1
sS'bill'
p4603
I1
sS'harp'
p4604
I1
sS'today'
p4605
I1
sS'rainfall'
p4606
I1
sS'commissioner'
p4607
I1
sS'conductor'
p4608
I1
sS'sessions'
p4609
I1
sS'club'
p4610
I1
sS'share'
p4611
I1
sS'deoghar'
p4612
I1
sS'fuel'
p4613
I1
sS'emille'
p4614
I1
sS'organizations'
p4615
I1
sS'skaters'
p4616
I1
sS'pushed'
p4617
I1
sS'car'
p4618
I1
sS'posthumous'
p4619
I1
sS'longitude'
p4620
I1
sS'decker'
p4621
I1
sS'hardest'
p4622
I1
sS'can'
p4623
I1
sS'ferry'
p4624
I1
sS'newspapers'
p4625
I1
sS'breeds'
p4626
I1
sS'spy'
p4627
I1
sS'dedicated'
p4628
I1
sS'performer'
p4629
I1
sS'figure'
p4630
I1
sS'krystian'
p4631
I1
sS'garbled'
p4632
I1
sS'december'
p4633
I1
sS'topic'
p4634
I1
sS'heard'
p4635
I1
sS'paragragh'
p4636
I1
sS'chin'
p4637
I1
sS'performed'
p4638
I1
sS'gaytan'
p4639
I1
sS'samaranch'
p4640
I1
sS'hydrogen'
p4641
I1
sS'occur'
p4642
I1
sS'parliamentary'
p4643
I1
sS'domenici'
p4644
I1
sS'swung'
p4645
I1
sS'requirements'
p4646
I1
sS'sailboat'
p4647
I1
sS'discussion'
p4648
I1
sS'watching'
p4649
I1
sS'trophies'
p4650
I1
sS'write'
p4651
I1
sS'vital'
p4652
I1
sS'fourth'
p4653
I1
sS'defame'
p4654
I1
sS'ensure'
p4655
I1
sS'economy'
p4656
I1
sS'spielberg'
p4657
I1
sS'information'
p4658
I1
sS'use'
p4659
I1
sS'southern'
p4660
I1
sS'needs'
p4661
I1
sS'islamic'
p4662
I1
sS'produce'
p4663
I1
sS'commit'
p4664
I1
sS'nomination'
p4665
I1
sS'marshak'
p4666
I1
sS'lifting'
p4667
I1
sS'branches'
p4668
I1
sS'remember'
p4669
I1
sS'succeeded'
p4670
I1
sS'whenever'
p4671
I1
sS'sept'
p4672
I1
sS'meghna'
p4673
I1
sS'futures'
p4674
I1
sS'sun'
p4675
I1
sS'yonkers'
p4676
I1
sS'crept'
p4677
I1
sS'repubic'
p4678
I1
sS'typical'
p4679
I1
sS'serving'
p4680
I1
sS'checkpoints'
p4681
I1
sS'indeed'
p4682
I1
sS'presley'
p4683
I1
sS'midnight'
p4684
I1
sS'ended'
p4685
I1
sS'statistical'
p4686
I1
sS'cold'
p4687
I1
sS'still'
p4688
I1
sS'worship'
p4689
I1
sS'statuettes'
p4690
I1
sS'blocked'
p4691
I1
sS'forma'
p4692
I1
sS'wallace'
p4693
I1
sS'acknowledge'
p4694
I1
sS'vicinity'
p4695
I1
sS'inflicted'
p4696
I1
sS'chalice'
p4697
I1
sS'platform'
p4698
I1
sS'window'
p4699
I1
sS'offers'
p4700
I1
sS'farmer'
p4701
I1
sS'areas'
p4702
I1
sS'norway'
p4703
I1
sS'happened'
p4704
I1
sS'non'
p4705
I1
sS'halt'
p4706
I1
sS'devastated'
p4707
I1
sS'radicals'
p4708
I1
sS'speeding'
p4709
I1
sS'1955'
p4710
I1
sS'1954'
p4711
I1
sS'1956'
p4712
I1
sS'hamilton'
p4713
I1
sS'1950'
p4714
I1
sS'1953'
p4715
I1
sS'wealthy'
p4716
I1
sS'not'
p4717
I1
sS'nov'
p4718
I1
sS'now'
p4719
I1
sS'1959'
p4720
I1
sS'hall'
p4721
I1
sS'nor'
p4722
I1
sS'accommodate'
p4723
I1
sS'term'
p4724
I1
sS'polish'
p4725
I1
sS'name'
p4726
I1
sS'lies'
p4727
I1
sS'servant'
p4728
I1
sS'james'
p4729
I1
sS'drop'
p4730
I1
sS'prosperi'
p4731
I1
sS'1990'
p4732
I1
sS'possibilities'
p4733
I1
sS'kremer'
p4734
I1
sS'entirely'
p4735
I1
sS'semifinal'
p4736
I1
sS'el'
p4737
I1
sS'en'
p4738
I1
sS'significantly'
p4739
I1
sS'populated'
p4740
I1
sS'kane'
p4741
I1
sS'directing'
p4742
I1
sS'challenges'
p4743
I1
sS'fires'
p4744
I1
sS'catching'
p4745
I1
sS'haul'
p4746
I1
sS'ex'
p4747
I1
sS'begun'
p4748
I1
sS'year'
p4749
I1
sS'happen'
p4750
I1
sS'calling'
p4751
I1
sS'monitors'
p4752
I1
sS'seoul'
p4753
I1
sS'album'
p4754
I1
sS'constitution'
p4755
I1
sS'shown'
p4756
I1
sS'opened'
p4757
I1
sS'space'
p4758
I1
sS'frightened'
p4759
I1
sS'oklahoma'
p4760
I1
sS'factory'
p4761
I1
sS'increase'
p4762
I1
sS'attracted'
p4763
I1
sS'fargo'
p4764
I1
sS'receiving'
p4765
I1
sS'shows'
p4766
I1
sS'rebuilding'
p4767
I1
sS'cabinet'
p4768
I1
sS'cary'
p4769
I1
sS'strengthens'
p4770
I1
sS'philharmonic'
p4771
I1
sS'cars'
p4772
I1
sS'queries'
p4773
I1
sS'adhikari'
p4774
I1
sS'blizzards'
p4775
I1
sS'carl'
p4776
I1
sS'marina'
p4777
I1
sS'marine'
p4778
I1
sS'care'
p4779
I1
sS'lennons'
p4780
I1
sS'couldn'
p4781
I1
sS'impose'
p4782
I1
sS'calories'
p4783
I1
sS'british'
p4784
I1
sS'honest'
p4785
I1
sS'motion'
p4786
I1
sS'gusts'
p4787
I1
sS'lindsey'
p4788
I1
sS'place'
p4789
I1
sS'generations'
p4790
I1
sS'view'
p4791
I1
sS'discontinued'
p4792
I1
sS'origin'
p4793
I1
sS'sanchez'
p4794
I1
sS'romania'
p4795
I1
sS'initial'
p4796
I1
sS'merrill'
p4797
I1
sS'626'
p4798
I1
sS'striking'
p4799
I1
sS'coming'
p4800
I1
sS'commissioners'
p4801
I1
sS'directly'
p4802
I1
sS'impossible'
p4803
I1
sS'ring'
p4804
I1
sS'drove'
p4805
I1
sS'tomorrow'
p4806
I1
sS'size'
p4807
I1
sS'surveys'
p4808
I1
sS'silent'
p4809
I1
sS'district'
p4810
I1
sS'caught'
p4811
I1
sS'yin'
p4812
I1
sS'ucaltepen'
p4813
I1
sS'clinical'
p4814
I1
sS'convention'
p4815
I1
sS'desmond'
p4816
I1
sS'white'
p4817
I1
sS'friend'
p4818
I1
sS'editor'
p4819
I1
sS'nutrition'
p4820
I1
sS'briton'
p4821
I1
sS'grant'
p4822
I1
sS'mostly'
p4823
I1
sS'that'
p4824
I1
sS'pittsburgh'
p4825
I1
sS'season'
p4826
I1
sS'alan'
p4827
I1
sS'released'
p4828
I1
sS'hur'
p4829
I1
sS'copy'
p4830
I1
sS'than'
p4831
I1
sS'population'
p4832
I1
sS'wide'
p4833
I1
sS'television'
p4834
I1
sS'deployed'
p4835
I1
sS'looting'
p4836
I1
sS'emotive'
p4837
I1
sS'oats'
p4838
I1
sS'packing'
p4839
I1
sS'yet'
p4840
I1
sS'transferred'
p4841
I1
sS'spokeswoman'
p4842
I1
sS'accused'
p4843
I1
sS'fruits'
p4844
I1
sS'miles'
p4845
I1
sS'merits'
p4846
I1
sS'orwell'
p4847
I1
sS'published'
p4848
I1
sS'and'
p4849
I1
sS'angioplasty'
p4850
I1
sS'remained'
p4851
I1
sS'smedvig'
p4852
I1
sS'pro'
p4853
I1
sS'greece'
p4854
I1
sS'reno'
p4855
I1
sS'crippling'
p4856
I1
sS'medical'
p4857
I1
sS'slam'
p4858
I1
sS'nominating'
p4859
I1
sS'morelos'
p4860
I1
sS'any'
p4861
I1
sS'marathon'
p4862
I1
sS'form'
p4863
I1
sS'undercurrent'
p4864
I1
sS'veteran'
p4865
I1
sS'mourners'
p4866
I1
sS'ideas'
p4867
I1
sS'equipment'
p4868
I1
sS'blunt'
p4869
I1
sS'santiago'
p4870
I1
sS'sure'
p4871
I1
sS'multiple'
p4872
I1
sS'tornado'
p4873
I1
sS'price'
p4874
I1
sS'numero'
p4875
I1
sS'falls'
p4876
I1
sS'visitors'
p4877
I1
sS'connor'
p4878
I1
sS'celeste'
p4879
I1
sS'america'
p4880
I1
sS'littering'
p4881
I1
sS'progreso'
p4882
I1
sS'forever'
p4883
I1
sS'amatique'
p4884
I1
sS'considered'
p4885
I1
sS'proud'
p4886
I1
sS'steady'
p4887
I1
sS'heat'
p4888
I1
sS'contention'
p4889
I1
sS'mrs'
p4890
I1
sS'ferraro'
p4891
I1
sS'hurled'
p4892
I1
sS'pattern'
p4893
I1
sS'professional'
p4894
I1
sS'senior'
p4895
I1
sS'cracks'
p4896
I1
sS'typically'
p4897
I1
sS'german'
p4898
I1
sS'able'
p4899
I1
sS'cheap'
p4900
I1
sS'southwestern'
p4901
I1
sS'celebrating'
p4902
I1
sS'rounded'
p4903
I1
sS'excerpts'
p4904
I1
sS'fifth'
p4905
I1
sS'ground'
p4906
I1
sS'ratio'
p4907
I1
sS'gulf'
p4908
I1
sS'title'
p4909
I1
sS'proclamation'
p4910
I1
sS'state'
p4911
I1
sS'only'
p4912
I1
sS'wood'
p4913
I1
sS'sierra'
p4914
I1
sS'transfusions'
p4915
I1
sS'fort'
p4916
I1
sS'interstate'
p4917
I1
sS'occupied'
p4918
I1
sS'yelena'
p4919
I1
sS'cannon'
p4920
I1
sS'attacking'
p4921
I1
sS'prides'
p4922
I1
sS'ocho'
p4923
I1
sS'crude'
p4924
I1
sS'cannot'
p4925
I1
sS'kika'
p4926
I1
sS'celebrate'
p4927
I1
sS'madhubani'
p4928
I1
sS'leather'
p4929
I1
sS'floods'
p4930
I1
sS'1822'
p4931
I1
sS'jokes'
p4932
I1
sS'embassy'
p4933
I1
sS'predicted'
p4934
I1
sS'through'
p4935
I1
sS'discussing'
p4936
I1
sS'husband'
p4937
I1
sS'beethoven'
p4938
I1
sS'concert'
p4939
I1
sS'ken'
p4940
I1
sS'staged'
p4941
I1
sS'homosexuality'
p4942
I1
sS'fanned'
p4943
I1
sS'elected'
p4944
I1
sS'asleep'
p4945
I1
sS'staunch'
p4946
I1
sS'angina'
p4947
I1
sS'stanley'
p4948
I1
sS'sport'
p4949
I1
sS'concern'
p4950
I1
sS'israeli'
p4951
I1
sS'suffer'
p4952
I1
sS'tackling'
p4953
I1
sS'federal'
p4954
I1
sS'subsequent'
p4955
I1
sS'addled'
p4956
I1
sS'shiva'
p4957
I1
sS'3'
p4958
I1
sS'between'
p4959
I1
sS'nicest'
p4960
I1
sS'arrival'
p4961
I1
sS'notice'
p4962
I1
sS'fanning'
p4963
I1
sS'agencies'
p4964
I1
sS'blame'
p4965
I1
sS'27'
p4966
I1
sS'armenian'
p4967
I1
sS'article'
p4968
I1
sS'cities'
p4969
I1
sS'come'
p4970
I1
sS'reaction'
p4971
I1
sS'daddy'
p4972
I1
sS'talented'
p4973
I1
sS'kicking'
p4974
I1
sS'region'
p4975
I1
sS'quiet'
p4976
I1
sS'contract'
p4977
I1
sS'prompted'
p4978
I1
sS'downtrodden'
p4979
I1
sS'senator'
p4980
I1
sS'comes'
p4981
I1
sS'nearby'
p4982
I1
sS'duty'
p4983
I1
sS'madness'
p4984
I1
sS'armenia'
p4985
I1
sS'passenger'
p4986
I1
sS'color'
p4987
I1
sS'jeans'
p4988
I1
sS'period'
p4989
I1
sS'dispatch'
p4990
I1
sS'60'
p4991
I1
sS'61'
p4992
I1
sS'pol'
p4993
I1
sS'63'
p4994
I1
sS'jammed'
p4995
I1
sS'65'
p4996
I1
sS'learning'
p4997
I1
sS'67'
p4998
I1
sS'68'
p4999
I1
sS'liberal'
p5000
I1
sS'save'
p5001
I1
sS'howard'
p5002
I1
sS'rebuild'
p5003
I1
sS'classic'
p5004
I1
sS'carey'
p5005
I1
sS'tropical'
p5006
I1
sS'deposited'
p5007
I1
sS'goltzer'
p5008
I1
sS'technical'
p5009
I1
sS'helicopter'
p5010
I1
sS'featuring'
p5011
I1
sS'hardly'
p5012
I1
sS'orissa'
p5013
I1
sS'500'
p5014
I1
sS'engine'
p5015
I1
sS'direction'
p5016
I1
sS'633'
p5017
I1
sS'krone'
p5018
I1
sS'636'
p5019
I1
sS'shortages'
p5020
I1
sS'robbed'
p5021
I1
sS'elvis'
p5022
I1
sS'resistance'
p5023
I1
sS'andrew'
p5024
I1
sS'observers'
p5025
I1
sS'andrei'
p5026
I1
sS'minister'
p5027
I1
sS'asks'
p5028
I1
sS'suspected'
p5029
I1
sS'spirit'
p5030
I1
sS'case'
p5031
I1
sS'shaft'
p5032
I1
sS'myself'
p5033
I1
sS'henie'
p5034
I1
sS'these'
p5035
I1
sS'cast'
p5036
I1
sS'editorial'
p5037
I1
sS'taking'
p5038
I1
sS'slippers'
p5039
I1
sS'trenary'
p5040
I1
sS'telephone'
p5041
I1
sS'dissident'
p5042
I1
sS'commander'
p5043
I1
sS'couples'
p5044
I1
sS'canceled'
p5045
I1
sS'someone'
p5046
I1
sS'boulders'
p5047
I1
sS'mcgregor'
p5048
I1
sS'somebody'
p5049
I1
sS'cozumel'
p5050
I1
sS'ship'
p5051
I1
sS'joints'
p5052
I1
sS'northward'
p5053
I1
sS'develop'
p5054
I1
sS'author'
p5055
I1
sS'media'
p5056
I1
sS'delacroix'
p5057
I1
sS'trip'
p5058
I1
sS'shifts'
p5059
I1
sS'poetic'
p5060
I1
sS'angered'
p5061
I1
sS'manila'
p5062
I1
sS'isla'
p5063
I1
sS'document'
p5064
I1
sS'isle'
p5065
I1
sS'status'
p5066
I1
sS'noble'
p5067
I1
sS'finish'
p5068
I1
sS'refusal'
p5069
I1
sS'driver'
p5070
I1
sS'drives'
p5071
I1
sS'driven'
p5072
I1
sS'conductors'
p5073
I1
sS'unqualified'
p5074
I1
sS'tradition'
p5075
I1
sS'dying'
p5076
I1
sS'charges'
p5077
I1
sS'recital'
p5078
I1
sS'severe'
p5079
I1
sS'without'
p5080
I1
sS'relief'
p5081
I1
sS'otherwise'
p5082
I1
sS'bodies'
p5083
I1
sS'protege'
p5084
I1
sS'heaps'
p5085
I1
sS'livestock'
p5086
I1
sS'fitzgerald'
p5087
I1
sS'guided'
p5088
I1
sS'dancers'
p5089
I1
sS'actress'
p5090
I1
sS'clot'
p5091
I1
sS'foot'
p5092
I1
sS'violent'
p5093
I1
sS'wrecks'
p5094
I1
sS'kill'
p5095
I1
sS'topol'
p5096
I1
sS'n'
p5097
I1
sS'speed'
p5098
I1
sS'blow'
p5099
I1
sS'announcement'
p5100
I1
sS'renewed'
p5101
I1
sS'rose'
p5102
I1
sS'seems'
p5103
I1
sS'except'
p5104
I1
sS'interested'
p5105
I1
sS'bloc'
p5106
I1
sS'treatment'
p5107
I1
sS'bourloti'
p5108
I1
sS'republic'
p5109
I1
sS'struck'
p5110
I1
sS'instructions'
p5111
I1
sS'ross'
p5112
I1
sS'scheduled'
p5113
I1
sS'negotiating'
p5114
I1
sS'rules'
p5115
I1
sS'cayman'
p5116
I1
sS'papers'
p5117
I1
sS'virginia'
p5118
I1
sS'hiawatha'
p5119
I1
sS'early'
p5120
I1
sS'inflation'
p5121
I1
sS'listening'
p5122
I1
sS'confined'
p5123
I1
sS'using'
p5124
I1
sS'accepted'
p5125
I1
sS'engineers'
p5126
I1
sS'mcdevitt'
p5127
I1
sS'pounds'
p5128
I1
sS'towed'
p5129
I1
sS'fairgrounds'
p5130
I1
sS'benefit'
p5131
I1
sS'donations'
p5132
I1
sS't'
p5133
I1
sS'occasions'
p5134
I1
sS'output'
p5135
I1
sS'tower'
p5136
I1
sS'pereira'
p5137
I1
sS'ceremonial'
p5138
I1
sS'1989'
p5139
I1
sS'on'
p5140
I1
sS'competition'
p5141
I1
sS'oscars'
p5142
I1
sS'eddie'
p5143
I1
sS'table'
p5144
I1
sS'hemorrhage'
p5145
I1
sS'pulmonary'
p5146
I1
sS'pinkerton'
p5147
I1
sS'passions'
p5148
I1
sS'slice'
p5149
I1
sS'caribbean'
p5150
I1
sS'highest'
p5151
I1
sS'recorded'
p5152
I1
sS'legal'
p5153
I1
sS'moon'
p5154
I1
sS'depletion'
p5155
I1
sS'deficit'
p5156
I1
sS'provides'
p5157
I1
sS'71'
p5158
I1
sS'flourishing'
p5159
I1
sS'quitting'
p5160
I1
sS'porter'
p5161
I1
sS'freed'
p5162
I1
sS'assembly'
p5163
I1
sS'business'
p5164
I1
sS'sixth'
p5165
I1
sS'equivalent'
p5166
I1
sS'inspect'
p5167
I1
sS'1932'
p5168
I1
sS'1931'
p5169
I1
sS'1936'
p5170
I1
sS'1935'
p5171
I1
sS'1934'
p5172
I1
sS'sixty'
p5173
I1
sS'1938'
p5174
I1
sS'fondness'
p5175
I1
sS'sangbad'
p5176
I1
sS'central'
p5177
I1
sS'oh'
p5178
I1
sS'jeep'
p5179
I1
sS'of'
p5180
I1
sS'swimmer'
p5181
I1
sS'copywriter'
p5182
I1
sS'shrimp'
p5183
I1
sS'stand'
p5184
I1
sS'baffles'
p5185
I1
sS'carribean'
p5186
I1
sS'or'
p5187
I1
sS'op'
p5188
I1
sS'amber'
p5189
I1
sS'researching'
p5190
I1
sS'protests'
p5191
I1
sS'rafts'
p5192
I1
sS'gard'
p5193
I1
sS'rolling'
p5194
I1
sS'rising'
p5195
I1
sS'determine'
p5196
I1
sS'artur'
p5197
I1
sS'operator'
p5198
I1
sS'your'
p5199
I1
sS'intervention'
p5200
I1
sS'prepare'
p5201
I1
sS'area'
p5202
I1
sS'aren'
p5203
I1
sS'stoppage'
p5204
I1
sS'there'
p5205
I1
sS'hazards'
p5206
I1
sS'ponce'
p5207
I1
sS'los'
p5208
I1
sS'low'
p5209
I1
sS'stars'
p5210
I1
sS'valley'
p5211
I1
sS'marybeth'
p5212
I1
sS'assumes'
p5213
I1
sS'agreements'
p5214
I1
sS'shower'
p5215
I1
sS'hard'
p5216
I1
sS'inflates'
p5217
I1
sS'758'
p5218
I1
sS'idea'
p5219
I1
sS'curiously'
p5220
I1
sS'soprano'
p5221
I1
sS'gifford'
p5222
I1
sS'upbeat'
p5223
I1
sS'pitched'
p5224
I1
sS'trying'
p5225
I1
sS'munger'
p5226
I1
sS'fraud'
p5227
I1
sS'strollers'
p5228
I1
sS'circulation'
p5229
I1
sS'stanford'
p5230
I1
sS'intermission'
p5231
I1
sS'louisiana'
p5232
I1
sS'native'
p5233
I1
sS'grass'
p5234
I1
sS'builders'
p5235
I1
sS'chaplin'
p5236
I1
sS'600'
p5237
I1
sS'taste'
p5238
I1
sS'totaling'
p5239
I1
sS'describe'
p5240
I1
sS'moved'
p5241
I1
sS'sales'
p5242
I1
sS'aftershocks'
p5243
I1
sS'pummeling'
p5244
I1
sS'britain'
p5245
I1
sS'scanned'
p5246
I1
sS'midweek'
p5247
I1
sS'nero'
p5248
I1
sS'politics'
p5249
I1
sS'conversely'
p5250
I1
sS'moves'
p5251
I1
sS'hospitals'
p5252
I1
sS'portland'
p5253
I1
sS'tanjug'
p5254
I1
sS'papathanassopoulos'
p5255
I1
sS'administered'
p5256
I1
sS'nagorno'
p5257
I1
sS'foothills'
p5258
I1
sS'rana'
p5259
I1
sS'remarks'
p5260
I1
sS'underwater'
p5261
I1
sS'katmandu'
p5262
I1
sS'you'
p5263
I1
sS'forcing'
p5264
I1
sS'dismayed'
p5265
I1
sS'sufficient'
p5266
I1
sS'gaining'
p5267
I1
sS'poos'
p5268
I1
sS'briefly'
p5269
I1
sS'championship'
p5270
I1
sS'may'
p5271
I1
sS'reception'
p5272
I1
sS'separate'
p5273
I1
sS'teeth'
p5274
I1
sS'contradicted'
p5275
I1
sS'carnegie'
p5276
I1
sS'includes'
p5277
I1
sS'podium'
p5278
I1
sS'flattened'
p5279
I1
sS'peak'
p5280
I1
sS'coverage'
p5281
I1
sS'included'
p5282
I1
sS'torches'
p5283
I1
sS'stocks'
p5284
I1
sS'overturned'
p5285
I1
sS'pool'
p5286
I1
sS'building'
p5287
I1
sS'condensation'
p5288
I1
sS'calls'
p5289
I1
sS'wife'
p5290
I1
sS'curve'
p5291
I1
sS'barcelona'
p5292
I1
sS'directors'
p5293
I1
sS'trumpeters'
p5294
I1
sS'booker'
p5295
I1
sS'profits'
p5296
I1
sS'missouri'
p5297
I1
sS'repar'
p5298
I1
sS'overseas'
p5299
I1
sS'montego'
p5300
I1
sS'all'
p5301
I1
sS'surrounded'
p5302
I1
sS'ali'
p5303
I1
sS'lack'
p5304
I1
sS'month'
p5305
I1
sS'unrest'
p5306
I1
sS'ciudad'
p5307
I1
sS'coach'
p5308
I1
sS'cardiologist'
p5309
I1
sS'unmoved'
p5310
I1
sS'dish'
p5311
I1
sS'follow'
p5312
I1
sS'correa'
p5313
I1
sS'carpet'
p5314
I1
sS'glimpse'
p5315
I1
sS'apartment'
p5316
I1
sS'corps'
p5317
I1
sS'scared'
p5318
I1
sS'lining'
p5319
I1
sS'wyoming'
p5320
I1
sS'silivas'
p5321
I1
sS'thursday'
p5322
I1
sS'gary'
p5323
I1
sS'1930s'
p5324
I1
sS'painter'
p5325
I1
sS'skip'
p5326
I1
sS'safety'
p5327
I1
sS'defuse'
p5328
I1
sS'traditionally'
p5329
I1
sS'cardenas'
p5330
I1
sS'activities'
p5331
I1
sS'woman'
p5332
I1
sS'worse'
p5333
I1
sS'confidential'
p5334
I1
sS'song'
p5335
I1
sS'very'
p5336
I1
sS'horror'
p5337
I1
sS'mph'
p5338
I1
sS'print'
p5339
I1
sS'sons'
p5340
I1
sS'fan'
p5341
I1
sS'fao'
p5342
I1
sS'ticket'
p5343
I1
sS'enter'
p5344
I1
sS'lennie'
p5345
I1
sS'vern'
p5346
I1
sS'heaven'
p5347
I1
sS'katrzynska'
p5348
I1
sS'louis'
p5349
I1
sS'clinched'
p5350
I1
sS'list'
p5351
I1
sS'manager'
p5352
I1
sS'occurs'
p5353
I1
sS'bulldozing'
p5354
I1
sS'quipped'
p5355
I1
sS'tek'
p5356
I1
sS'tel'
p5357
I1
sS'ten'
p5358
I1
sS'streets'
p5359
I1
sS'gorbachev'
p5360
I1
sS'battle'
p5361
I1
sS'nbc'
p5362
I1
sS'largest'
p5363
I1
sS'functioning'
p5364
I1
sS'conscience'
p5365
I1
sS'what'
p5366
I1
sS'sub'
p5367
I1
sS'deeply'
p5368
I1
sS'miniature'
p5369
I1
sS'karna'
p5370
I1
sS'brief'
p5371
I1
sS'milk'
p5372
I1
sS'witnesses'
p5373
I1
sS'roofs'
p5374
I1
sS'version'
p5375
I1
sS'hecht'
p5376
I1
sS'learned'
p5377
I1
sS'racing'
p5378
I1
sS'edited'
p5379
I1
sS'ferocious'
p5380
I1
sS'misread'
p5381
I1
sS'tracks'
p5382
I1
sS'greed'
p5383
I1
sS'strong'
p5384
I1
sS'tragedy'
p5385
I1
sS'arena'
p5386
I1
sS'colored'
p5387
I1
sS'handlers'
p5388
I1
sS'losses'
p5389
I1
sS'exceptionally'
p5390
I1
sS'fired'
p5391
I1
sS'1942'
p5392
I1
sS'amount'
p5393
I1
sS'heroin'
p5394
I1
sS'advertising'
p5395
I1
sS'nesbitt'
p5396
I1
sS'beatle'
p5397
I1
sS'point'
p5398
I1
sS'sticking'
p5399
I1
sS'1941'
p5400
I1
sS'family'
p5401
I1
sS'suddenly'
p5402
I1
sS'imagine'
p5403
I1
sS'ask'
p5404
I1
sS'aimed'
p5405
I1
sS'trained'
p5406
I1
sS'thatched'
p5407
I1
sS'florence'
p5408
I1
sS'spawned'
p5409
I1
sS'1900'
p5410
I1
sS'carmen'
p5411
I1
sS'takes'
p5412
I1
sS'injure'
p5413
I1
sS'intense'
p5414
I1
sS'revelation'
p5415
I1
sS'conspiring'
p5416
I1
sS'bash'
p5417
I1
sS'mysterious'
p5418
I1
sS'branded'
p5419
I1
sS'minor'
p5420
I1
sS'lowering'
p5421
I1
sS'israel'
p5422
I1
sS'seismograph'
p5423
I1
sS'erode'
p5424
I1
sS'quickening'
p5425
I1
sS'site'
p5426
I1
sS'lazaro'
p5427
I1
sS'flag'
p5428
I1
sS'garza'
p5429
I1
sS'stick'
p5430
I1
sS'broke'
p5431
I1
sS'known'
p5432
I1
sS'factories'
p5433
I1
sS'glad'
p5434
I1
sS'wealth'
p5435
I1
sS'helped'
p5436
I1
sS'policemen'
p5437
I1
sS'debated'
p5438
I1
sS'nebraska'
p5439
I1
sS'nine'
p5440
I1
sS'greeted'
p5441
I1
sS'v'
p5442
I1
sS'unfairness'
p5443
I1
sS'dissolvers'
p5444
I1
sS'history'
p5445
I1
sS'chadrasekhar'
p5446
I1
sS'division'
p5447
I1
sS'749'
p5448
I1
sS'locating'
p5449
I1
sS'abandonment'
p5450
I1
sS'boycott'
p5451
I1
sS'abner'
p5452
I1
sS'cows'
p5453
I1
sS'phrase'
p5454
I1
sS'lacks'
p5455
I1
sS'inspector'
p5456
I1
sS'hamburgers'
p5457
I1
sS'reputation'
p5458
I1
sS'gaffes'
p5459
I1
sS'beef'
p5460
I1
sS'court'
p5461
I1
sS'qiongzhong'
p5462
I1
sS'faraguna'
p5463
I1
sS'rather'
p5464
I1
sS'breaking'
p5465
I1
sS'river'
p5466
I1
sS'stayed'
p5467
I1
sS'hampered'
p5468
I1
sS'shrouds'
p5469
I1
sS'occasionally'
p5470
I1
sS'extinguished'
p5471
I1
sS'activator'
p5472
I1
sS'idaho'
p5473
I1
sS'tumbled'
p5474
I1
sS'tide'
p5475
I1
sS'tried'
p5476
I1
sS'cancun'
p5477
I1
sS'holguin'
p5478
I1
sS'diety'
p5479
I1
sS'sponsors'
p5480
I1
sS'roadblocks'
p5481
I1
sS'cutoff'
p5482
I1
sS'compulsory'
p5483
I1
sS'a'
p5484
I1
sS'dissolving'
p5485
I1
sS'short'
p5486
I1
sS'marich'
p5487
I1
sS'marlon'
p5488
I1
sS'overnight'
p5489
I1
sS'shore'
p5490
I1
sS'ego'
p5491
I1
sS'grande'
p5492
I1
sS'banks'
p5493
I1
sS'dream'
p5494
I1
sS'began'
p5495
I1
sS'maj'
p5496
I1
sS'feed'
p5497
I1
sS'remnants'
p5498
I1
sS'help'
p5499
I1
sS'gauges'
p5500
I1
sS'september'
p5501
I1
sS'developed'
p5502
I1
sS'advised'
p5503
I1
sS'indra'
p5504
I1
sS'held'
p5505
I1
sS'scientist'
p5506
I1
sS'committee'
p5507
I1
sS'hell'
p5508
I1
sS'concentric'
p5509
I1
sS'avenue'
p5510
I1
sS'inquiries'
p5511
I1
sS'limelight'
p5512
I1
sS'brightened'
p5513
I1
sS'discloses'
p5514
I1
sS'hendrix'
p5515
I1
sS'severely'
p5516
I1
sS'pray'
p5517
I1
sS'fined'
p5518
I1
sS'fairbanks'
p5519
I1
sS'actually'
p5520
I1
sS'resort'
p5521
I1
sS'absence'
p5522
I1
sS'strange'
p5523
I1
sS'systems'
p5524
I1
sS'remarked'
p5525
I1
sS'stephen'
p5526
I1
sS'bout'
p5527
I1
sS'soccer'
p5528
I1
sS'might'
p5529
I1
sS'castillo'
p5530
I1
sS'fool'
p5531
I1
sS'wouldn'
p5532
I1
sS'evening'
p5533
I1
sS'return'
p5534
I1
sS'calm'
p5535
I1
sS'food'
p5536
I1
sS'bernetta'
p5537
I1
sS'eugenio'
p5538
I1
sS'denounced'
p5539
I1
sS'inch'
p5540
I1
sS'sweeping'
p5541
I1
sS'impressive'
p5542
I1
sS'desperately'
p5543
I1
sS'gets'
p5544
I1
sS'hyanju'
p5545
I1
sS'imprisoned'
p5546
I1
sS'sympathy'
p5547
I1
sS'fully'
p5548
I1
sS'level'
p5549
I1
sS'fairs'
p5550
I1
sS'stopped'
p5551
I1
sS'apartheid'
p5552
I1
sS'filmmakers'
p5553
I1
sS'friendship'
p5554
I1
sS'trailer'
p5555
I1
sS'referred'
p5556
I1
sS'heavy'
p5557
I1
sS'weighs'
p5558
I1
sS'tilted'
p5559
I1
sS'pirates'
p5560
I1
sS'gennady'
p5561
I1
sS'jaws'
p5562
I1
sS'exclusiveness'
p5563
I1
sS'used'
p5564
I1
sS'brother'
p5565
I1
sS'expect'
p5566
I1
sS'todd'
p5567
I1
sS'ittefaq'
p5568
I1
sS'beyond'
p5569
I1
sS'event'
p5570
I1
sS'alcohol'
p5571
I1
sS'capsizing'
p5572
I1
sS'robert'
p5573
I1
sS'since'
p5574
I1
sS'douglas'
p5575
I1
sS'adhere'
p5576
I1
sS'dominated'
p5577
I1
sS'hill'
p5578
I1
sS'7'
p5579
I1
sS'lengthwise'
p5580
I1
sS'issue'
p5581
I1
sS'benjamin'
p5582
I1
sS'wisconsin'
p5583
I1
sS'favored'
p5584
I1
sS'friday'
p5585
I1
sS'hepburn'
p5586
I1
sS'labs'
p5587
I1
sS'houses'
p5588
I1
sS'reason'
p5589
I1
sS'base'
p5590
I1
sS'put'
p5591
I1
sS'matthews'
p5592
I1
sS'teach'
p5593
I1
sS'gurkha'
p5594
I1
sS'epicenter'
p5595
I1
sS'koshi'
p5596
I1
sS'thrown'
p5597
I1
sS'andrzej'
p5598
I1
sS'uprooted'
p5599
I1
sS'launch'
p5600
I1
sS'reclusiveness'
p5601
I1
sS'script'
p5602
I1
sS'cheering'
p5603
I1
sS'american'
p5604
I1
sS'expecting'
p5605
I1
sS'threat'
p5606
I1
sS'twenty'
p5607
I1
sS'heartbeat'
p5608
I1
sS'fallen'
p5609
I1
sS'bushel'
p5610
I1
sS'knots'
p5611
I1
sS'probability'
p5612
I1
sS'feel'
p5613
I1
sS'pests'
p5614
I1
sS'knocking'
p5615
I1
sS'linking'
p5616
I1
sS'feet'
p5617
I1
sS'sisters'
p5618
I1
sS'drier'
p5619
I1
sS'elk'
p5620
I1
sS'pablo'
p5621
I1
sS'speedometer'
p5622
I1
sS'temples'
p5623
I1
sS'story'
p5624
I1
sS'temperature'
p5625
I1
sS'shahaf'
p5626
I1
sS'leading'
p5627
I1
sS'interviews'
p5628
I1
sS'leash'
p5629
I1
sS'strategy'
p5630
I1
sS'station'
p5631
I1
sS'warming'
p5632
I1
sS'storm'
p5633
I1
sS'dealing'
p5634
I1
sS'fought'
p5635
I1
sS'hundred'
p5636
I1
sS'banana'
p5637
I1
sS'recovered'
p5638
I1
sS'statement'
p5639
I1
sS'trapped'
p5640
I1
sS'morcinek'
p5641
I1
sS'exploded'
p5642
I1
sS'hotel'
p5643
I1
sS'treasurer'
p5644
I1
sS'niranjan'
p5645
I1
sS'authors'
p5646
I1
sS'1911'
p5647
I1
sS'dmitrievich'
p5648
I1
sS'convinced'
p5649
I1
sS'king'
p5650
I1
sS'grocery'
p5651
I1
sS'assaulted'
p5652
I1
sS'houghton'
p5653
I1
sS'kindly'
p5654
I1
sS'performers'
p5655
I1
sS'double'
p5656
I1
sS'alluding'
p5657
I1
sS'greg'
p5658
I1
sS'battering'
p5659
I1
sS'bobsled'
p5660
I1
sS'kindle'
p5661
I1
sS'toward'
p5662
I1
sS'ousted'
p5663
I1
sS'dried'
p5664
I1
sS'sentenced'
p5665
I1
sS'charlotte'
p5666
I1
sS'outstanding'
p5667
I1
sS'strengthen'
p5668
I1
sS'62'
p5669
I1
sS'heaviest'
p5670
I1
sS'randomly'
p5671
I1
sS'juice'
p5672
I1
sS'kara'
p5673
I1
sS'perestroika'
p5674
I1
sS'gala'
p5675
I1
sS'antonio'
p5676
I1
sS'vulnerable'
p5677
I1
sS'goldsmith'
p5678
I1
sS'speaking'
p5679
I1
sS'outbound'
p5680
I1
sS'interferes'
p5681
I1
sS'officers'
p5682
I1
sS'lit'
p5683
I1
sS'moist'
p5684
I1
sS'superior'
p5685
I1
sS'finding'
p5686
I1
sS'pianist'
p5687
I1
sS'harlingen'
p5688
I1
sS'towards'
p5689
I1
sS'macs'
p5690
I1
sS'weaves'
p5691
I1
sS'warnings'
p5692
I1
sS'intervened'
p5693
I1
sS'quote'
p5694
I1
sS'measures'
p5695
I1
sS'reach'
p5696
I1
sS'quota'
p5697
I1
sS'76'
p5698
I1
sS'75'
p5699
I1
sS'hired'
p5700
I1
sS'sponsored'
p5701
I1
sS'72'
p5702
I1
sS'eaten'
p5703
I1
sS'position'
p5704
I1
sS'nothing'
p5705
I1
sS'measured'
p5706
I1
sS'79'
p5707
I1
sS'78'
p5708
I1
sS'salary'
p5709
I1
sS'creators'
p5710
I1
sS'dissolver'
p5711
I1
sS'elroy'
p5712
I1
sS'chronicle'
p5713
I1
sS'mobile'
p5714
I1
sS'performances'
p5715
I1
sS'clear'
p5716
I1
sS'holtzman'
p5717
I1
sS'traditional'
p5718
I1
sS'hindrance'
p5719
I1
sS'usual'
p5720
I1
sS'guesthouses'
p5721
I1
sS'lying'
p5722
I1
sS'mexico'
p5723
I1
sS'phenomenon'
p5724
I1
sS'vindication'
p5725
I1
sS'celebrities'
p5726
I1
sS'cdt'
p5727
I1
sS'flee'
p5728
I1
sS'stores'
p5729
I1
sS'cecila'
p5730
I1
sS'northern'
p5731
I1
sS'inaugurated'
p5732
I1
sS'assertion'
p5733
I1
sS'flights'
p5734
I1
sS'surveyed'
p5735
I1
sS'pretty'
p5736
I1
sS'indian'
p5737
I1
sS'shepherd'
p5738
I1
sS'his'
p5739
I1
sS'founding'
p5740
I1
sS'gains'
p5741
I1
sS'meanwhile'
p5742
I1
sS'cremate'
p5743
I1
sS'compiled'
p5744
I1
sS'kind'
p5745
I1
sS'trees'
p5746
I1
sS'famous'
p5747
I1
sS'feels'
p5748
I1
sS'grew'
p5749
I1
sS'fastest'
p5750
I1
sS'during'
p5751
I1
sS'intensify'
p5752
I1
sS'banquet'
p5753
I1
sS'chimney'
p5754
I1
sS'catches'
p5755
I1
sS'querying'
p5756
I1
sS'medicines'
p5757
I1
sS'rob'
p5758
I1
sS'recommendations'
p5759
I1
sS'switzerland'
p5760
I1
sS'courteous'
p5761
I1
sS'wrote'
p5762
I1
sS'art'
p5763
I1
sS'dump'
p5764
I1
sS'maurice'
p5765
I1
sS'intelligence'
p5766
I1
sS'unpublished'
p5767
I1
sS'culture'
p5768
I1
sS'defense'
p5769
I1
sS'are'
p5770
I1
sS'biologist'
p5771
I1
sS'portrait'
p5772
I1
sS'ark'
p5773
I1
sS'untested'
p5774
I1
sS'declined'
p5775
I1
sS'barn'
p5776
I1
sS'youth'
p5777
I1
sS'hess'
p5778
I1
sS'revolution'
p5779
I1
sS'pictures'
p5780
I1
sS'slapped'
p5781
I1
sS'tolls'
p5782
I1
sS'82'
p5783
I1
sS'alfred'
p5784
I1
sS'won'
p5785
I1
sS'various'
p5786
I1
sS'plywood'
p5787
I1
sS'probably'
p5788
I1
sS'ships'
p5789
I1
sS'conditions'
p5790
I1
sS'solo'
p5791
I1
sS'korea'
p5792
I1
sS'recently'
p5793
I1
sS'statistically'
p5794
I1
sS'missing'
p5795
I1
sS'numer'
p5796
I1
sS'sold'
p5797
I1
sS'attention'
p5798
I1
sS'york'
p5799
I1
sS'rapid'
p5800
I1
sS'opposition'
p5801
I1
sS'solt'
p5802
I1
sS'rudra'
p5803
I1
sS'bronze'
p5804
I1
sS'both'
p5805
I1
sS'c'
p5806
I1
sS'license'
p5807
I1
sS'clothes'
p5808
I1
sS'ormandy'
p5809
I1
sS'sensitive'
p5810
I1
sS'blazed'
p5811
I1
sS'54th'
p5812
I1
sS'context'
p5813
I1
sS'bond'
p5814
I1
sS'liked'
p5815
I1
sS'headed'
p5816
I1
sS'reasons'
p5817
I1
sS'smith'
p5818
I1
sS'sweep'
p5819
I1
sS'regulated'
p5820
I1
sS'village'
p5821
I1
sS'vessel'
p5822
I1
sS'doping'
p5823
I1
sS'mission'
p5824
I1
sS'startling'
p5825
I1
sS'described'
p5826
I1
sS'arrest'
p5827
I1
sS'political'
p5828
I1
sS'due'
p5829
I1
sS'appears'
p5830
I1
sS'whom'
p5831
I1
sS'reduction'
p5832
I1
sS'pa'
p5833
I1
sS'coarse'
p5834
I1
sS'collected'
p5835
I1
sS'brick'
p5836
I1
sS'territory'
p5837
I1
sS'walter'
p5838
I1
sS'lived'
p5839
I1
sS'1950s'
p5840
I1
sS'packs'
p5841
I1
sS'firefighters'
p5842
I1
sS'citizen'
p5843
I1
sS'circus'
p5844
I1
sS'else'
p5845
I1
sS'anthony'
p5846
I1
sS'latvia'
p5847
I1
sS'lives'
p5848
I1
sS'280'
p5849
I1
sS'pact'
p5850
I1
sS'intriguing'
p5851
I1
sS'toppling'
p5852
I1
sS'look'
p5853
I1
sS'frozen'
p5854
I1
sS'governor'
p5855
I1
sS'unprecedented'
p5856
I1
sS'pace'
p5857
I1
sS'while'
p5858
I1
sS'substantial'
p5859
I1
sS'mehendiganj'
p5860
I1
sS'fleet'
p5861
I1
sS'loot'
p5862
I1
sS'richter'
p5863
I1
sS'alike'
p5864
I1
sS'shortened'
p5865
I1
sS'bruiser'
p5866
I1
sS'showers'
p5867
I1
sS'incredible'
p5868
I1
sS'overlooked'
p5869
I1
sS'yugoslavs'
p5870
I1
sS'danes'
p5871
I1
sS'disappointing'
p5872
I1
sS'rio'
p5873
I1
sS'loosened'
p5874
I1
sS'ready'
p5875
I1
sS'currents'
p5876
I1
sS'anymore'
p5877
I1
sS'seismographs'
p5878
I1
sS'patnaik'
p5879
I1
sS'shuttered'
p5880
I1
sS'makeshift'
p5881
I1
sS'widely'
p5882
I1
sS'grand'
p5883
I1
sS'9'
p5884
I1
sS'spears'
p5885
I1
sS'conflict'
p5886
I1
sS'higher'
p5887
I1
sS'indianapolis'
p5888
I1
sS'lawyers'
p5889
I1
sS'blair'
p5890
I1
sS'negotiate'
p5891
I1
sS'cement'
p5892
I1
sS'000'
p5893
I1
sS'uses'
p5894
I1
sS'republics'
p5895
I1
sS'birch'
p5896
I1
sS'rochester'
p5897
I1
sS'brussels'
p5898
I1
sS'built'
p5899
I1
sS'lower'
p5900
I1
sS'chronicled'
p5901
I1
sS'hage'
p5902
I1
sS'older'
p5903
I1
sS'rediscover'
p5904
I1
sS'poland'
p5905
I1
sS'depending'
p5906
I1
sS'chickens'
p5907
I1
sS'increases'
p5908
I1
sS'analysis'
p5909
I1
sS'obviously'
p5910
I1
sS'corinne'
p5911
I1
sS'cheer'
p5912
I1
sS'machinery'
p5913
I1
sS'calcutta'
p5914
I1
sS'slackened'
p5915
I1
sS'albertville'
p5916
I1
sS'weakest'
p5917
I1
sS'1788'
p5918
I1
sS'ambassador'
p5919
I1
sS'onoda'
p5920
I1
sS'762'
p5921
I1
sS'technicians'
p5922
I1
sS'questions'
p5923
I1
sS'elect'
p5924
I1
sS'prince'
p5925
I1
sS'bettyjean'
p5926
I1
sS'unsettling'
p5927
I1
sS'retirement'
p5928
I1
sS'helping'
p5929
I1
sS'tablet'
p5930
I1
sS'majority'
p5931
I1
sS'sprinter'
p5932
I1
sS'workers'
p5933
I1
sS'exceed'
p5934
I1
sS'questioned'
p5935
I1
sS'violations'
p5936
I1
sS'vetoing'
p5937
I1
sS'remaining'
p5938
I1
sS'chairman'
p5939
I1
sS'customers'
p5940
I1
sS'marco'
p5941
I1
sS'march'
p5942
I1
sS'complains'
p5943
I1
sS'finalists'
p5944
I1
sS'showing'
p5945
I1
sS'advocate'
p5946
I1
sS'sightings'
p5947
I1
sS'diuretics'
p5948
I1
sS'skeptical'
p5949
I1
sS'success'
p5950
I1
sS'bhaktapur'
p5951
I1
sS'strife'
p5952
I1
sS'heart'
p5953
I1
sS'achievers'
p5954
I1
sS'aggravation'
p5955
I1
sS'camille'
p5956
I1
sS'provoking'
p5957
I1
sS'popular'
p5958
I1
sS'terciary'
p5959
I1
sS'creation'
p5960
I1
sS'some'
p5961
I1
sS'urgent'
p5962
I1
sS'trends'
p5963
I1
sS'experienced'
p5964
I1
sS'saddler'
p5965
I1
sS'medira'
p5966
I1
sS'5'
p5967
I1
sS'delivered'
p5968
I1
sS'gradually'
p5969
I1
sS'dabal'
p5970
I1
sS'describing'
p5971
I1
sS'vacationer'
p5972
I1
sS'undisputed'
p5973
I1
sS'pounding'
p5974
I1
sS'jacek'
p5975
I1
sS'goldman'
p5976
I1
sS'prod'
p5977
I1
sS'minimal'
p5978
I1
sS'payments'
p5979
I1
sS'porridge'
p5980
I1
sS'everybody'
p5981
I1
sS'run'
p5982
I1
sS'lakes'
p5983
I1
sS'refused'
p5984
I1
sS'nuevo'
p5985
I1
sS'step'
p5986
I1
sS'consolation'
p5987
I1
sS'elixir'
p5988
I1
sS'abroad'
p5989
I1
sS'troops'
p5990
I1
sS'faith'
p5991
I1
sS'cautious'
p5992
I1
sS'weeklong'
p5993
I1
sS'trailways'
p5994
I1
sS'prove'
p5995
I1
sS'stricken'
p5996
I1
sS'range'
p5997
I1
sS'74'
p5998
I1
sS'latvian'
p5999
I1
sS'congressman'
p6000
I1
sS'coffeetable'
p6001
I1
sS'dwight'
p6002
I1
sS'block'
p6003
I1
sS'miracles'
p6004
I1
sS'mudslides'
p6005
I1
sS'moss'
p6006
I1
sS'within'
p6007
I1
sS'warmed'
p6008
I1
sS'timpanist'
p6009
I1
sS'inventories'
p6010
I1
sS'stitches'
p6011
I1
sS'statistics'
p6012
I1
sS'bangladesh'
p6013
I1
sS'question'
p6014
I1
sS'dukak'
p6015
I1
sS'fast'
p6016
I1
sS'accountability'
p6017
I1
sS'cabral'
p6018
I1
sS'summertime'
p6019
I1
sS'schoenbaum'
p6020
I1
sS'sections'
p6021
I1
sS'980'
p6022
I1
sS'extemporaneous'
p6023
I1
sS'himself'
p6024
I1
sS'collapsed'
p6025
I1
sS'calgary'
p6026
I1
sS'authority'
p6027
I1
sS'olympiad'
p6028
I1
sS'russian'
p6029
I1
sS'predrag'
p6030
I1
sS'collapses'
p6031
I1
sS'ceremonies'
p6032
I1
sS'115'
p6033
I1
sS'forefather'
p6034
I1
sS'wait'
p6035
I1
sS'characteristic'
p6036
I1
sS'social'
p6037
I1
sS'barring'
p6038
I1
sS'lessened'
p6039
I1
sS'windows'
p6040
I1
sS'accustomed'
p6041
I1
sS'highlight'
p6042
I1
sS'similar'
p6043
I1
sS'called'
p6044
I1
sS'bell'
p6045
I1
sS'ordered'
p6046
I1
sS'rios'
p6047
I1
sS'bacchus'
p6048
I1
sS'112'
p6049
I1
sS'entrance'
p6050
I1
sS'doesn'
p6051
I1
sS'coordinator'
p6052
I1
sS'warning'
p6053
I1
sS'reservoirs'
p6054
I1
sS'1895'
p6055
I1
sS'novelist'
p6056
I1
sS'cotton'
p6057
I1
sS'amounts'
p6058
I1
sS'dashed'
p6059
I1
sS'peace'
p6060
I1
sS'spokesmen'
p6061
I1
sS'politicians'
p6062
I1
sS'electrical'
p6063
I1
sS'income'
p6064
I1
sS'department'
p6065
I1
sS'absentia'
p6066
I1
sS'nice'
p6067
I1
sS'draw'
p6068
I1
sS'spectators'
p6069
I1
sS'reportedly'
p6070
I1
sS'kansas'
p6071
I1
sS'problems'
p6072
I1
sS'william'
p6073
I1
sS'develops'
p6074
I1
sS'allowing'
p6075
I1
sS'bulletin'
p6076
I1
sS'seiji'
p6077
I1
sS'ky'
p6078
I1
sS'urged'
p6079
I1
sS'seismologist'
p6080
I1
sS'coincided'
p6081
I1
sS'e'
p6082
I1
sS'vice'
p6083
I1
sS'navy'
p6084
I1
sS'ozawa'
p6085
I1
sS'heath'
p6086
I1
sS'depth'
p6087
I1
sS'lafayette'
p6088
I1
sS'vocally'
p6089
I1
sS'bedding'
p6090
I1
sS'once'
p6091
I1
sS'issued'
p6092
I1
sS'teodoro'
p6093
I1
sS'steve'
p6094
I1
sS'farms'
p6095
I1
sS'jimi'
p6096
I1
sS'edt'
p6097
I1
sS'go'
p6098
I1
sS'particularly'
p6099
I1
sS'issues'
p6100
I1
sS'expelling'
p6101
I1
sS'ariz'
p6102
I1
sS'shack'
p6103
I1
sS'84'
p6104
I1
sS'breach'
p6105
I1
sS'include'
p6106
I1
sS'fences'
p6107
I1
sS'friendly'
p6108
I1
sS'giannelli'
p6109
I1
sS'719'
p6110
I1
sS'miners'
p6111
I1
sS'wave'
p6112
I1
sS'renoir'
p6113
I1
sS'trough'
p6114
I1
sS'rattling'
p6115
I1
sS'telling'
p6116
I1
sS'artery'
p6117
I1
sS'drinking'
p6118
I1
sS'converge'
p6119
I1
sS'tutu'
p6120
I1
sS'bryant'
p6121
I1
sS'quayle'
p6122
I1
sS'positions'
p6123
I1
sS'button'
p6124
I1
sS'michael'
p6125
I1
sS'sideswiped'
p6126
I1
sS'ryan'
p6127
I1
sS'kaddish'
p6128
I1
sS'assignments'
p6129
I1
sS'epstein'
p6130
I1
sS'dealt'
p6131
I1
sS'barbara'
p6132
I1
sS'noted'
p6133
I1
sS'concluded'
p6134
I1
sS'someday'
p6135
I1
sS'koogan'
p6136
I1
sS'favorites'
p6137
I1
sS'procession'
p6138
I1
sS'jump'
p6139
I1
sS'traveling'
p6140
I1
sS'picked'
p6141
I1
sS'concludes'
p6142
I1
sS'clotting'
p6143
I1
sS'buffeted'
p6144
I1
sS'folk'
p6145
I1
sS'medieval'
p6146
I1
sS'flagship'
p6147
I1
sS'turn'
p6148
I1
sS'speculated'
p6149
I1
sS'paintings'
p6150
I1
sS'colonel'
p6151
I1
sS'bluntly'
p6152
I1
sS'bergman'
p6153
I1
sS'19th'
p6154
I1
sS'volatile'
p6155
I1
sS'playa'
p6156
I1
sS'capital'
p6157
I1
sS'gasoline'
p6158
I1
sS'caruso'
p6159
I1
sS'unruly'
p6160
I1
sS'shoreline'
p6161
I1
sS'chose'
p6162
I1
sS'degree'
p6163
I1
sS'upsetting'
p6164
I1
sS'sinzal'
p6165
I1
sS'delfzijl'
p6166
I1
sS'prescribe'
p6167
I1
sS'youngest'
p6168
I1
sS'following'
p6169
I1
sS'focused'
p6170
I1
sS'swirled'
p6171
I1
sS'separation'
p6172
I1
sS'alabama'
p6173
I1
sS'engraving'
p6174
I1
sS'likened'
p6175
I1
sS'metro'
p6176
I1
sS'clarendon'
p6177
I1
sS'withdrawing'
p6178
I1
sS'elaborating'
p6179
I1
sS'larger'
p6180
I1
sS'daunted'
p6181
I1
sS'host'
p6182
I1
sS'fathering'
p6183
I1
sS'suggests'
p6184
I1
sS'products'
p6185
I1
sS'olivier'
p6186
I1
sS'chand'
p6187
I1
sS'gene'
p6188
I1
sS'sheila'
p6189
I1
sS'felled'
p6190
I1
sS'daybreak'
p6191
I1
sS'stabilization'
p6192
I1
sS'clark'
p6193
I1
sS'danger'
p6194
I1
sS'win'
p6195
I1
sS'slum'
p6196
I1
sS'evacuations'
p6197
I1
sS'scaled'
p6198
I1
sS'addressed'
p6199
I1
sS'motor'
p6200
I1
sS'buildup'
p6201
I1
sS'truckloads'
p6202
I1
sS'cloud'
p6203
I1
sS'fed'
p6204
I1
sS'from'
p6205
I1
sS'barrios'
p6206
I1
sS'consumption'
p6207
I1
sS'remains'
p6208
I1
sS'hudson'
p6209
I1
sS'management'
p6210
I1
sS'inez'
p6211
I1
sS'few'
p6212
I1
sS'depicted'
p6213
I1
sS'camera'
p6214
I1
sS'expanding'
p6215
I1
sS'stage'
p6216
I1
sS'historically'
p6217
I1
sS'sort'
p6218
I1
sS'parliament'
p6219
I1
sS'formally'
p6220
I1
sS'started'
p6221
I1
sS'becomes'
p6222
I1
sS'musician'
p6223
I1
sS'70th'
p6224
I1
sS'charming'
p6225
I1
sS'israelis'
p6226
I1
sS'8'
p6227
I1
sS'deflect'
p6228
I1
sS'inattentive'
p6229
I1
sS'silesia'
p6230
I1
sS'women'
p6231
I1
sS'crosses'
p6232
I1
sS'ride'
p6233
I1
sS'averaged'
p6234
I1
sS'ashcroft'
p6235
I1
sS'hookup'
p6236
I1
sS'arches'
p6237
I1
sS'anywhere'
p6238
I1
sS'crossed'
p6239
I1
sS'meet'
p6240
I1
sS'dissolve'
p6241
I1
sS'dropped'
p6242
I1
sS'control'
p6243
I1
sS'patrol'
p6244
I1
sS'council'
p6245
I1
sS'ushers'
p6246
I1
sS'inaccessible'
p6247
I1
sS'tax'
p6248
I1
sS'escaped'
p6249
I1
sS'carrot'
p6250
I1
sS'something'
p6251
I1
sS'dignity'
p6252
I1
sS'sought'
p6253
I1
sS'hit'
p6254
I1
sS'onions'
p6255
I1
sS'sunspots'
p6256
I1
sS'united'
p6257
I1
sS'orson'
p6258
I1
sS'ingram'
p6259
I1
sS'defective'
p6260
I1
sS'sit'
p6261
I1
sS'clothing'
p6262
I1
sS'immigrants'
p6263
I1
sS'traders'
p6264
I1
sS'located'
p6265
I1
sS'slamming'
p6266
I1
sS'155'
p6267
I1
sS'panic'
p6268
I1
sS'fare'
p6269
I1
sS'administrator'
p6270
I1
sS'express'
p6271
I1
sS'attend'
p6272
I1
sS'farm'
p6273
I1
sS'thunderstorm'
p6274
I1
sS'barricades'
p6275
I1
sS'ronald'
p6276
I1
sS'normalcy'
p6277
I1
sS'abuse'
p6278
I1
sS'fatigue'
p6279
I1
sS'men'
p6280
I1
sS'ethnic'
p6281
I1
sS'anabolic'
p6282
I1
sS'intellectual'
p6283
I1
sS'light'
p6284
I1
sS'chapman'
p6285
I1
sS'baird'
p6286
I1
sS'villas'
p6287
I1
sS'agenda'
p6288
I1
sS'tenure'
p6289
I1
sS'necklace'
p6290
I1
sS'swimming'
p6291
I1
sS'longest'
p6292
I1
sS'elie'
p6293
I1
sS'soggy'
p6294
I1
sS'stamped'
p6295
I1
sS'sanctioned'
p6296
I1
sS'farming'
p6297
I1
sS'annexation'
p6298
I1
sS'133'
p6299
I1
sS'132'
p6300
I1
sS'131'
p6301
I1
sS'130'
p6302
I1
sS'including'
p6303
I1
sS'looks'
p6304
I1
sS'quake'
p6305
I1
sS'mentioned'
p6306
I1
sS'138'
p6307
I1
sS'glen'
p6308
I1
sS'helicopters'
p6309
I1
sS'pecent'
p6310
I1
sS'masses'
p6311
I1
sS'lithuania'
p6312
I1
sS'housewife'
p6313
I1
sS'him'
p6314
I1
sS'madre'
p6315
I1
sS'permanent'
p6316
I1
sS'restrain'
p6317
I1
sS'researchers'
p6318
I1
sS'crowds'
p6319
I1
sS'koreans'
p6320
I1
sS'skater'
p6321
I1
sS'orthodox'
p6322
I1
sS'auto'
p6323
I1
sS'material'
p6324
I1
sS'budapest'
p6325
I1
sS'flew'
p6326
I1
sS'gwyneth'
p6327
I1
sS'sweets'
p6328
I1
sS'resolve'
p6329
I1
sS'shimmeringly'
p6330
I1
sS'hands'
p6331
I1
sS'front'
p6332
I1
sS'consecutive'
p6333
I1
sS'seaweed'
p6334
I1
sS'handy'
p6335
I1
sS'successor'
p6336
I1
sS'bahadur'
p6337
I1
sS'articles'
p6338
I1
sS'university'
p6339
I1
sS'subcontinent'
p6340
I1
sS'billy'
p6341
I1
sS'magnitude'
p6342
I1
sS'trap'
p6343
I1
sS'crossing'
p6344
I1
sS'bills'
p6345
I1
sS'upward'
p6346
I1
sS'baxter'
p6347
I1
sS'studios'
p6348
I1
sS'704'
p6349
I1
sS'globe'
p6350
I1
sS'700'
p6351
I1
sS'related'
p6352
I1
sS'bogey'
p6353
I1
sS'88'
p6354
I1
sS'investigative'
p6355
I1
sS'measure'
p6356
I1
sS'manley'
p6357
I1
sS'83'
p6358
I1
sS'80'
p6359
I1
sS'87'
p6360
I1
sS'special'
p6361
I1
sS'out'
p6362
I1
sS'category'
p6363
I1
sS'butch'
p6364
I1
sS'soybean'
p6365
I1
sS'140'
p6366
I1
sS'mcmahon'
p6367
I1
sS'littered'
p6368
I1
sS'oxford'
p6369
I1
sS'activism'
p6370
I1
sS'transcript'
p6371
I1
sS'investigate'
p6372
I1
sS'werden'
p6373
I1
sS'activist'
p6374
I1
sS'performs'
p6375
I1
sS'cause'
p6376
I1
sS'achievements'
p6377
I1
sS'torres'
p6378
I1
sS'maize'
p6379
I1
sS'rites'
p6380
I1
sS'activity'
p6381
I1
sS'mississippi'
p6382
I1
sS'undo'
p6383
I1
sS'attending'
p6384
I1
sS'jill'
p6385
I1
sS'amato'
p6386
I1
sS'conservatives'
p6387
I1
sS'van'
p6388
I1
sS'philip'
p6389
I1
sS'princess'
p6390
I1
sS'drowning'
p6391
I1
sS'zimerman'
p6392
I1
sS'g'
p6393
I1
sS'applications'
p6394
I1
sS'determining'
p6395
I1
sS'route'
p6396
I1
sS'rushed'
p6397
I1
sS'florida'
p6398
I1
sS'stereotype'
p6399
I1
sS'times'
p6400
I1
sS'stride'
p6401
I1
sS'birthday'
p6402
I1
sS'biting'
p6403
I1
sS'restaurants'
p6404
I1
sS'vegetables'
p6405
I1
sS'mankind'
p6406
I1
sS'obscurity'
p6407
I1
sS'evans'
p6408
I1
sS'powerful'
p6409
I1
sS'echo'
p6410
I1
sS'improving'
p6411
I1
sS'bonner'
p6412
I1
sS'awarded'
p6413
I1
sS'quality'
p6414
I1
sS'earthquakes'
p6415
I1
sS'umbrellas'
p6416
I1
sS'destructive'
p6417
I1
sS'privacy'
p6418
I1
sS'riga'
p6419
I1
sS'relations'
p6420
I1
sS'eighth'
p6421
I1
sS'their'
p6422
I1
sS'attack'
p6423
I1
sS'650'
p6424
I1
sS'declines'
p6425
I1
sS'wrapped'
p6426
I1
sS'rigs'
p6427
I1
sS'wilkinson'
p6428
I1
sS'tourists'
p6429
I1
sS'activists'
p6430
I1
sS'greta'
p6431
I1
sS'earmarked'
p6432
I1
sS'grete'
p6433
I1
sS'slides'
p6434
I1
sS'bassist'
p6435
I1
sS'july'
p6436
I1
sS'policeman'
p6437
I1
sS'institution'
p6438
I1
sS'reneged'
p6439
I1
sS'ben'
p6440
I1
sS'thrashing'
p6441
I1
sS'cartoonist'
p6442
I1
sS'lion'
p6443
I1
sS'bed'
p6444
I1
sS'tommy'
p6445
I1
sS'frugal'
p6446
I1
sS'patients'
p6447
I1
sS'providing'
p6448
I1
sS'distinguished'
p6449
I1
sS'exhibit'
p6450
I1
sS'ammunition'
p6451
I1
sS'julian'
p6452
I1
sS'unchanged'
p6453
I1
sS'carrots'
p6454
I1
sS'westward'
p6455
I1
sS'bizet'
p6456
I1
sS'alerted'
p6457
I1
sS'activites'
p6458
I1
sS'close'
p6459
I1
sS'need'
p6460
I1
sS'border'
p6461
I1
sS'70'
p6462
I1
sS'alfonse'
p6463
I1
sS'afraid'
p6464
I1
sS'rosier'
p6465
I1
sS'cranes'
p6466
I1
sS'agency'
p6467
I1
sS'seaga'
p6468
I1
sS'roehm'
p6469
I1
sS'zenani'
p6470
I1
sS'relatives'
p6471
I1
sS'which'
p6472
I1
sS'funds'
p6473
I1
sS'battled'
p6474
I1
sS'singh'
p6475
I1
sS'trivia'
p6476
I1
sS'divers'
p6477
I1
sS'medals'
p6478
I1
sS'lugar'
p6479
I1
sS'fuels'
p6480
I1
sS'duels'
p6481
I1
sS'clash'
p6482
I1
sS'enveloped'
p6483
I1
sS'african'
p6484
I1
sS'dutch'
p6485
I1
sS'parenting'
p6486
I1
sS'montana'
p6487
I1
sS'connected'
p6488
I1
sS'preparations'
p6489
I1
sS'cracking'
p6490
I1
sS'threats'
p6491
I1
sS'class'
p6492
I1
sS'attempting'
p6493
I1
sS'academy'
p6494
I1
sS'saddest'
p6495
I1
sS'neighboring'
p6496
I1
sS'visiting'
p6497
I1
sS'upset'
p6498
I1
sS'looked'
p6499
I1
sS'quintana'
p6500
I1
sS'nicolaides'
p6501
I1
sS'narpatnagar'
p6502
I1
sS'affair'
p6503
I1
sS'parker'
p6504
I1
sS'chances'
p6505
I1
sS'electoral'
p6506
I1
sS'agreed'
p6507
I1
sS'sent'
p6508
I1
sS'anyway'
p6509
I1
sS'nights'
p6510
I1
sS'planning'
p6511
I1
sS'parked'
p6512
I1
sS'soldiers'
p6513
I1
sS'fear'
p6514
I1
sS'specializes'
p6515
I1
sS'pleased'
p6516
I1
sS'unanimously'
p6517
I1
sS'based'
p6518
I1
sS'earned'
p6519
I1
sS'winner'
p6520
I1
sS'madhav'
p6521
I1
sS'rash'
p6522
I1
sS'mahendra'
p6523
I1
sS'bases'
p6524
I1
sS'candidates'
p6525
I1
sS'blocker'
p6526
I1
sS'employee'
p6527
I1
sS'employed'
p6528
I1
sS'piano'
p6529
I1
sg58
I1
sS'local'
p6530
I1
sS'mortality'
p6531
I1
sS'vigor'
p6532
I1
sS'rged'
p6533
I1
sS'sued'
p6534
I1
sS'chwat'
p6535
I1
sS'cuba'
p6536
I1
sS'michigan'
p6537
I1
sS'massacre'
p6538
I1
sS'overall'
p6539
I1
sS'mgm'
p6540
I1
sS'120'
p6541
I1
sS'joint'
p6542
I1
sS'ones'
p6543
I1
sS'125'
p6544
I1
sS'joins'
p6545
I1
sS'127'
p6546
I1
sS'parlance'
p6547
I1
sS'matchups'
p6548
I1
sS'dwellings'
p6549
I1
sS'gray'
p6550
I1
sS'glory'
p6551
I1
sS'tobacco'
p6552
I1
sS'course'
p6553
I1
sS'numerous'
p6554
I1
sS'married'
p6555
I1
sS'westminister'
p6556
I1
sS'overflowing'
p6557
I1
sS'dangerous'
p6558
I1
sS'conduct'
p6559
I1
sS'graf'
p6560
I1
sS'widow'
p6561
I1
sS'europe'
p6562
I1
sS'j'
p6563
I1
sS'aegean'
p6564
I1
sS'portena'
p6565
I1
sS'canine'
p6566
I1
sS'boomed'
p6567
I1
sS'officials'
p6568
I1
sS'yugoslavia'
p6569
I1
sS'usefulness'
p6570
I1
sS'medalists'
p6571
I1
sS'responses'
p6572
I1
sS'guildhall'
p6573
I1
sS'welles'
p6574
I1
sS'televised'
p6575
I1
sS'nightmare'
p6576
I1
sS'droughts'
p6577
I1
sS'written'
p6578
I1
sS'closed'
p6579
I1
sS'horrible'
p6580
I1
sS'tens'
p6581
I1
sS'stories'
p6582
I1
sS'neither'
p6583
I1
sS'kidneys'
p6584
I1
sS'tent'
p6585
I1
sS'tore'
p6586
I1
sS'weighing'
p6587
I1
sS'barreling'
p6588
I1
sS'opening'
p6589
I1
sS'rescuers'
p6590
I1
sS'1830'
p6591
I1
sS'hendrickson'
p6592
I1
sS'blinked'
p6593
I1
sS'joe'
p6594
I1
sS'key'
p6595
I1
sS'approval'
p6596
I1
sS'swift'
p6597
I1
sS'pilgrims'
p6598
I1
sS'declining'
p6599
I1
sS'thank'
p6600
I1
sS'hits'
p6601
I1
sS'limits'
p6602
I1
sS'career'
p6603
I1
sS'aircraft'
p6604
I1
sS'minds'
p6605
I1
sS'shipment'
p6606
I1
sS'april'
p6607
I1
sS'grain'
p6608
I1
sS'constantine'
p6609
I1
sS'clogged'
p6610
I1
sS'safely'
p6611
I1
sS'jersey'
p6612
I1
sS'grounds'
p6613
I1
sS'diplomats'
p6614
I1
sS'tuesday'
p6615
I1
sS'supreme'
p6616
I1
sS'walk'
p6617
I1
sS'walt'
p6618
I1
sS'preparedness'
p6619
I1
sS'oppegard'
p6620
I1
sS'boitano'
p6621
I1
sS'narrowed'
p6622
I1
sS'appeared'
p6623
I1
sS'erased'
p6624
I1
sS'poem'
p6625
I1
sS'provinces'
p6626
I1
sS'industrials'
p6627
I1
sS'addition'
p6628
I1
sS'hindu'
p6629
I1
sS'deaths'
p6630
I1
sS'thanked'
p6631
I1
sS'responds'
p6632
I1
sS'731'
p6633
I1
sS'lingering'
p6634
I1
sS'treat'
p6635
I1
sS'inadequate'
p6636
I1
sS'contribute'
p6637
I1
sS'controlled'
p6638
I1
sS'league'
p6639
I1
sS'painted'
p6640
I1
sS'tap'
p6641
I1
sS'nominations'
p6642
I1
sS'mail'
p6643
I1
sS'ottinger'
p6644
I1
sS'smoking'
p6645
I1
sS'digger'
p6646
I1
sS'present'
p6647
I1
sS'novel'
p6648
I1
sS'abandoned'
p6649
I1
sS'harder'
p6650
I1
sS'choices'
p6651
I1
sS'will'
p6652
I1
sS'sakharovs'
p6653
I1
sS'wild'
p6654
I1
sS'coddled'
p6655
I1
sS'evacuees'
p6656
I1
sS'annual'
p6657
I1
sS'ringing'
p6658
I1
sS'resident'
p6659
I1
sS'thus'
p6660
I1
sS'pesca'
p6661
I1
sS'examined'
p6662
I1
sS'avi'
p6663
I1
sS'swinging'
p6664
I1
sS'lightweight'
p6665
I1
sS'meaning'
p6666
I1
sS'lighthearted'
p6667
I1
sS'stands'
p6668
I1
sS'capture'
p6669
I1
sS'tucked'
p6670
I1
sS'riddled'
p6671
I1
sS'perhaps'
p6672
I1
sS'balloon'
p6673
I1
sS'views'
p6674
I1
sS'cross'
p6675
I1
sS'proceeds'
p6676
I1
sS'member'
p6677
I1
sS'unity'
p6678
I1
sS'parts'
p6679
I1
sS'speaker'
p6680
I1
sS'northwest'
p6681
I1
sS'incumbent'
p6682
I1
sS'rattled'
p6683
I1
sS'units'
p6684
I1
sS'party'
p6685
I1
sS'jesse'
p6686
I1
sS'difficult'
p6687
I1
sS'caymans'
p6688
I1
sS'barilleaux'
p6689
I1
sS'hardliner'
p6690
I1
sS'appearances'
p6691
I1
sS'effect'
p6692
I1
sS'overcrowded'
p6693
I1
sS'miocardial'
p6694
I1
sS'student'
p6695
I1
sS'fierce'
p6696
I1
sS'daudi'
p6697
I1
sS'lobby'
p6698
I1
sS'single'
p6699
I1
sS'destruction'
p6700
I1
sS'poultry'
p6701
I1
sS'snatchers'
p6702
I1
sS'correspondent'
p6703
I1
sS'lunch'
p6704
I1
sS'i'
p6705
I1
sS'obstacles'
p6706
I1
sS'well'
p6707
I1
sS'fighting'
p6708
I1
sS'amends'
p6709
I1
sS'47'
p6710
I1
sS'restore'
p6711
I1
sS'routinely'
p6712
I1
sS'enormously'
p6713
I1
sS'heavily'
p6714
I1
sS'increasingly'
p6715
I1
sS'oak'
p6716
I1
sS'accurate'
p6717
I1
sS'half'
p6718
I1
sS'labeled'
p6719
I1
sS'dose'
p6720
I1
sS'sources'
p6721
I1
sS'batteries'
p6722
I1
sS'distant'
p6723
I1
sS'fishing'
p6724
I1
sS'laurel'
p6725
I1
sS'rest'
p6726
I1
sS'lauren'
p6727
I1
sS'spells'
p6728
I1
sS'penchant'
p6729
I1
sS'console'
p6730
I1
sS'supply'
p6731
I1
sS'sky'
p6732
I1
sS'patricia'
p6733
I1
sS'book'
p6734
I1
sS'developments'
p6735
I1
sS'usage'
p6736
I1
sS'morgue'
p6737
I1
sS'balloons'
p6738
I1
sS'acted'
p6739
I1
sS'balan'
p6740
I1
sS'minnetonka'
p6741
I1
sS'definitive'
p6742
I1
sS'myth'
p6743
I1
sS'last'
p6744
I1
sS'toured'
p6745
I1
sS'utah'
p6746
I1
sS'crushed'
p6747
I1
sS'munich'
p6748
I1
sS'fats'
p6749
I1
sS'historic'
p6750
I1
sS'valladolid'
p6751
I1
sS'leon'
p6752
I1
sS'presume'
p6753
I1
sS'intimates'
p6754
I1
sS'press'
p6755
I1
sS'immediately'
p6756
I1
sS'prominent'
p6757
I1
sS'loss'
p6758
I1
sS'necessary'
p6759
I1
sS'lost'
p6760
I1
sS'miami'
p6761
I1
sS'starry'
p6762
I1
sS'sophomore'
p6763
I1
sS'candy'
p6764
I1
sS'taping'
p6765
I1
sS'opera'
p6766
I1
sS'vortex'
p6767
I1
sS'martil'
p6768
I1
sS'martin'
p6769
I1
sS'simply'
p6770
I1
sS'refugees'
p6771
I1
sS'page'
p6772
I1
sS'trucked'
p6773
I1
sS'shed'
p6774
I1
sS'because'
p6775
I1
sS'sleight'
p6776
I1
sS'belonged'
p6777
I1
sS'unsuccessful'
p6778
I1
sS'searching'
p6779
I1
sS'library'
p6780
I1
sS'tempered'
p6781
I1
sS'114'
p6782
I1
sS'growth'
p6783
I1
sS'export'
p6784
I1
sS'110'
p6785
I1
sS'113'
p6786
I1
sS'cleveland'
p6787
I1
sS'home'
p6788
I1
sS'empire'
p6789
I1
sS'peter'
p6790
I1
sS'employment'
p6791
I1
sS'gables'
p6792
I1
sS'throughout'
p6793
I1
sS'toppled'
p6794
I1
sS'lead'
p6795
I1
sS'broad'
p6796
I1
sS'mines'
p6797
I1
sS'pop'
p6798
I1
sS'courtyards'
p6799
I1
sS'sponsoring'
p6800
I1
sS'mccartney'
p6801
I1
sS'fanny'
p6802
I1
sS'debuts'
p6803
I1
sS'locate'
p6804
I1
sS'ability'
p6805
I1
sS'ripped'
p6806
I1
sS'koussevitzky'
p6807
I1
sS'inaccurate'
p6808
I1
sS'thoroughfare'
p6809
I1
sS'reaching'
p6810
I1
sS'journal'
p6811
I1
sS'tamaulipas'
p6812
I1
sS'bhola'
p6813
I1
sS'murdered'
p6814
I1
sS'conveyed'
p6815
I1
sS'wilde'
p6816
I1
sS'nationalities'
p6817
I1
sS'mondale'
p6818
I1
sS'refuge'
p6819
I1
sS'raise'
p6820
I1
sS'throng'
p6821
I1
sS'carried'
p6822
I1
sS'extension'
p6823
I1
sS'getting'
p6824
I1
sS'staked'
p6825
I1
sS'recognized'
p6826
I1
sS'surge'
p6827
I1
sS'dependency'
p6828
I1
sS'presidium'
p6829
I1
sS'emperor'
p6830
I1
sS'equally'
p6831
I1
sS'celebrations'
p6832
I1
sS'wilderness'
p6833
I1
sS'glenn'
p6834
I1
sS'previously'
p6835
I1
sS'travelers'
p6836
I1
sS'washington'
p6837
I1
sS'lahontan'
p6838
I1
sS'weather'
p6839
I1
sS'brush'
p6840
I1
sS'fish'
p6841
I1
sS'artists'
p6842
I1
sS'managing'
p6843
I1
sS'utility'
p6844
I1
sS'kottke'
p6845
I1
sS'jubilee'
p6846
I1
sS'bagmati'
p6847
I1
sS'geelong'
p6848
I1
sS'additional'
p6849
I1
sS'exciting'
p6850
I1
sS'daniels'
p6851
I1
sS'relegated'
p6852
I1
sS'imperial'
p6853
I1
sS'continental'
p6854
I1
sS'seismologists'
p6855
I1
sS'daniela'
p6856
I1
sS'recruited'
p6857
I1
sS'throttled'
p6858
I1
sS'seeker'
p6859
I1
sS'torch'
p6860
I1
sS'north'
p6861
I1
sS'triggered'
p6862
I1
sS'norte'
p6863
I1
sS'editing'
p6864
I1
sS'billion'
p6865
I1
sS'kowalczyk'
p6866
I1
sS'evacuate'
p6867
I1
sS'gain'
p6868
I1
sS'courts'
p6869
I1
sS'overflow'
p6870
I1
sS'ear'
p6871
I1
sS'eat'
p6872
I1
sS'he'
p6873
I1
sS'convalescence'
p6874
I1
sS'made'
p6875
I1
sS'whether'
p6876
I1
sS'meterologists'
p6877
I1
sS'signed'
p6878
I1
sS'gravediggers'
p6879
I1
sS'record'
p6880
I1
sS'below'
p6881
I1
sS'limit'
p6882
I1
sS'heiress'
p6883
I1
sS'farewell'
p6884
I1
sS'dame'
p6885
I1
sS'urging'
p6886
I1
sS'reservations'
p6887
I1
sS'beats'
p6888
I1
sS'referee'
p6889
I1
sS'conan'
p6890
I1
sS'education'
p6891
I1
sS'eric'
p6892
I1
sS'complaint'
p6893
I1
sS'avoided'
p6894
I1
sS'rumors'
p6895
I1
sS'karabakh'
p6896
I1
sS'contest'
p6897
I1
sS'percent'
p6898
I1
sS'promote'
p6899
I1
sS'illinois'
p6900
I1
sS'westminster'
p6901
I1
sS'other'
p6902
I1
sS'branch'
p6903
I1
sS'finch'
p6904
I1
sS'hysteria'
p6905
I1
sS'canada'
p6906
I1
sS'star'
p6907
I1
sS'praxedis'
p6908
I1
sS'ecstatic'
p6909
I1
sS'june'
p6910
I1
sS'ultimately'
p6911
I1
sS'stay'
p6912
I1
sS'pumps'
p6913
I1
sS'stan'
p6914
I1
sS'jackson'
p6915
I1
sS'friends'
p6916
I1
sS'infuriated'
p6917
I1
sS'portion'
p6918
I1
sS'diagnosis'
p6919
I1
sS'tensions'
p6920
I1
sS'recalled'
p6921
I1
sS'indirectly'
p6922
I1
sS'simpson'
p6923
I1
sS'eclipsing'
p6924
I1
stp6925
Rp6926
sS'total_words'
p6927
I239
sbsS'p_s'
p6928
g44
(g45
g46
Ntp6929
Rp6930
(dp6931
g50
S'csr'
p6932
sg52
(I10
I10
tp6933
sg269
I01
sg54
g55
(g56
(I0
tp6934
g58
tp6935
Rp6936
(I1
(I11
tp6937
g276
I00
S'\x00\x00\x00\x00\x01\x00\x00\x00\x02\x00\x00\x00\x03\x00\x00\x00\x04\x00\x00\x00\x05\x00\x00\x00\x06\x00\x00\x00\x07\x00\x00\x00\x08\x00\x00\x00\t\x00\x00\x00\n\x00\x00\x00'
p6938
tp6939
bsg70
g55
(g56
(I0
tp6940
g58
tp6941
Rp6942
(I1
(I10
tp6943
g276
I00
S'\x00\x00\x00\x00\x01\x00\x00\x00\x02\x00\x00\x00\x03\x00\x00\x00\x04\x00\x00\x00\x05\x00\x00\x00\x06\x00\x00\x00\x07\x00\x00\x00\x08\x00\x00\x00\t\x00\x00\x00'
p6944
tp6945
bsg77
I50
sg78
g55
(g56
(I0
tp6946
g58
tp6947
Rp6948
(I1
(I10
tp6949
g85
I00
S'\x00\x00\x00\x00\x00\x00\xf0?\x00\x00\x00\x00\x00\x00\xf0?\x00\x00\x00\x00\x00\x00\xf0?\x00\x00\x00\x00\x00\x00\xf0?\x00\x00\x00\x00\x00\x00\xf0?\x00\x00\x00\x00\x00\x00\xf0?\x00\x00\x00\x00\x00\x00\xf0?\x00\x00\x00\x00\x00\x00\xf0?\x00\x00\x00\x00\x00\x00\xf0?\x00\x00\x00\x00\x00\x00\xf0?'
p6950
tp6951
bsbsS'title'
p6952
S'URGENT Guatemalan Ferry Sinks; 59 Dead, Six Missing Eds: Updates with name of Spanish victim, other details. CORRECTS spelling to Puerto Barrios. No pickup. Adds byline.'
p6953
sS'sentence_tfidf'
p6954
(isxpFenciMakeTFIDF
sxpTFIDF
p6955
(dp6956
g43
g44
(g45
g46
Ntp6957
Rp6958
(dp6959
g50
S'csr'
p6960
sg52
(I10
I141
tp6961
sg54
g55
(g56
(I0
tp6962
g58
tp6963
Rp6964
(I1
(I11
tp6965
g65
I00
S'\x00\x00\x00\x00\x19\x00\x00\x007\x00\x00\x00V\x00\x00\x00c\x00\x00\x00\x83\x00\x00\x00\x94\x00\x00\x00\xaa\x00\x00\x00\xbd\x00\x00\x00\xc6\x00\x00\x00\xd4\x00\x00\x00'
p6966
tp6967
bsg70
g55
(g56
(I0
tp6968
g58
tp6969
Rp6970
(I1
(I212
tp6971
g65
I00
S'\x7f\x00\x00\x00n\x00\x00\x00i\x00\x00\x00Q\x00\x00\x00\x12\x00\x00\x00K\x00\x00\x00\x0e\x00\x00\x00s\x00\x00\x00,\x00\x00\x00]\x00\x00\x00\x04\x00\x00\x00\x0c\x00\x00\x00^\x00\x00\x00~\x00\x00\x00\x80\x00\x00\x00\x17\x00\x00\x00\x89\x00\x00\x00#\x00\x00\x00 \x00\x00\x00}\x00\x00\x00V\x00\x00\x00o\x00\x00\x000\x00\x00\x00[\x00\x00\x00\x05\x00\x00\x00+\x00\x00\x00|\x00\x00\x00{\x00\x00\x00\x1d\x00\x00\x00;\x00\x00\x00\x15\x00\x00\x00\t\x00\x00\x00@\x00\x00\x00\x07\x00\x00\x00w\x00\x00\x00>\x00\x00\x00l\x00\x00\x00E\x00\x00\x00\x14\x00\x00\x00O\x00\x00\x00\x13\x00\x00\x00b\x00\x00\x00\x11\x00\x00\x00v\x00\x00\x00\x10\x00\x00\x006\x00\x00\x00\r\x00\x00\x00\x1f\x00\x00\x00n\x00\x00\x00]\x00\x00\x00\x04\x00\x00\x00}\x00\x00\x00o\x00\x00\x000\x00\x00\x00\x05\x00\x00\x00\x06\x00\x00\x00G\x00\x00\x00\x81\x00\x00\x003\x00\x00\x00m\x00\x00\x00\x01\x00\x00\x00f\x00\x00\x00X\x00\x00\x00I\x00\x00\x004\x00\x00\x00U\x00\x00\x00Z\x00\x00\x00d\x00\x00\x00k\x00\x00\x00_\x00\x00\x00c\x00\x00\x00h\x00\x00\x005\x00\x00\x00C\x00\x00\x00D\x00\x00\x00\x15\x00\x00\x00@\x00\x00\x00>\x00\x00\x00E\x00\x00\x00\x13\x00\x00\x00b\x00\x00\x00\x11\x00\x00\x00n\x00\x00\x00~\x00\x00\x00}\x00\x00\x00\x05\x00\x00\x00\x82\x00\x00\x00\x87\x00\x00\x00B\x00\x00\x00\x19\x00\x00\x005\x00\x00\x00\x1d\x00\x00\x00n\x00\x00\x00\x80\x00\x00\x00\x17\x00\x00\x00\x89\x00\x00\x00}\x00\x00\x00o\x00\x00\x00\x05\x00\x00\x00\x88\x00\x00\x00\'\x00\x00\x00\x83\x00\x00\x00\x1c\x00\x00\x00q\x00\x00\x00x\x00\x00\x00t\x00\x00\x00\x0f\x00\x00\x00H\x00\x00\x00j\x00\x00\x00\x8a\x00\x00\x00<\x00\x00\x00g\x00\x00\x00(\x00\x00\x00\n\x00\x00\x00&\x00\x00\x00\x85\x00\x00\x00!\x00\x00\x00\x03\x00\x00\x00r\x00\x00\x00$\x00\x00\x00"\x00\x00\x007\x00\x00\x00/\x00\x00\x00u\x00\x00\x00\x87\x00\x00\x00@\x00\x00\x00n\x00\x00\x00K\x00\x00\x00\x0c\x00\x00\x00}\x00\x00\x00\x05\x00\x00\x00L\x00\x00\x00*\x00\x00\x00.\x00\x00\x00\x08\x00\x00\x00z\x00\x00\x00\x8b\x00\x00\x00\x8c\x00\x00\x00&\x00\x00\x007\x00\x00\x00/\x00\x00\x00u\x00\x00\x00\x87\x00\x00\x00@\x00\x00\x00n\x00\x00\x00\x0c\x00\x00\x00}\x00\x00\x00\x05\x00\x00\x00F\x00\x00\x00?\x00\x00\x00T\x00\x00\x00\x86\x00\x00\x00N\x00\x00\x00\x18\x00\x00\x00=\x00\x00\x00\x16\x00\x00\x00:\x00\x00\x00\x1b\x00\x00\x00\x00\x00\x00\x00M\x00\x00\x00W\x00\x00\x00\x0b\x00\x00\x00\x88\x00\x00\x00&\x00\x00\x00U\x00\x00\x00\x13\x00\x00\x00b\x00\x00\x00\x11\x00\x00\x00n\x00\x00\x00}\x00\x00\x00e\x00\x00\x00y\x00\x00\x002\x00\x00\x00p\x00\x00\x00%\x00\x00\x00a\x00\x00\x00\x84\x00\x00\x001\x00\x00\x00\x1a\x00\x00\x00\\\x00\x00\x00P\x00\x00\x00\x16\x00\x00\x00:\x00\x00\x00\x1b\x00\x00\x005\x00\x00\x00\x15\x00\x00\x00n\x00\x00\x00\x0c\x00\x00\x00}\x00\x00\x00)\x00\x00\x00Y\x00\x00\x00R\x00\x00\x009\x00\x00\x00q\x00\x00\x00X\x00\x00\x00;\x00\x00\x00n\x00\x00\x00}\x00\x00\x00-\x00\x00\x00`\x00\x00\x008\x00\x00\x00A\x00\x00\x00\x1e\x00\x00\x00S\x00\x00\x00J\x00\x00\x00\x02\x00\x00\x00U\x00\x00\x00\x13\x00\x00\x00b\x00\x00\x00^\x00\x00\x00#\x00\x00\x00}\x00\x00\x00'
p6972
tp6973
bsg77
I50
sg78
g55
(g56
(I0
tp6974
g58
tp6975
Rp6976
(I1
(I212
tp6977
g85
I00
S'#\x91(st\x1a\xcb?\x1a!`\xda\x91\xf3\xb5?#\x91(st\x1a\xcb?#\x91(st\x1a\xcb?#\x91(st\x1a\xcb?\xefC]\x0fR\n\xc7?#\x91(st\x1a\xcb?#\x91(st\x1a\xcb?#\x91(st\x1a\xcb?\xefC]\x0fR\n\xc7?\xefC]\x0fR\n\xc7?\xf1\xdb\xf6\x00\xdc\xe1\xda?\xefC]\x0fR\n\xc7?\xefC]\x0fR\n\xc7?\xefC]\x0fR\n\xc7?\xefC]\x0fR\n\xc7?\xefC]\x0fR\n\xc7?\xefC]\x0fR\n\xc7?#\x91(st\x1a\xcb?\xf2c,\xe6\x92\n\xb4?#\x91(st\x1a\xcb?\x0e\x0f\xb4_U(\xc4?\xefC]\x0fR\n\xc7?#\x91(st\x1a\xcb?\xbeN\x92Q\x84\x19\xbd?\xacu\xe1\xd1\xb2\xaf\xc9?\xacu\xe1\xd1\xb2\xaf\xc9?\xacu\xe1\xd1\xb2\xaf\xc9?\x81\x90R\xca\xf1\xd5\xc5?\x81\x90R\xca\xf1\xd5\xc5?\xb3ujw\x8a\x1a\xc3?\xacu\xe1\xd1\xb2\xaf\xc9?\xda\t\x94\x92\n\xfc\xc0?\xacu\xe1\xd1\xb2\xaf\xc9?\xacu\xe1\xd1\xb2\xaf\xc9?\x81\x90R\xca\xf1\xd5\xc5?\xacu\xe1\xd1\xb2\xaf\xc9?\x81\x90R\xca\xf1\xd5\xc5?\xacu\xe1\xd1\xb2\xaf\xc9?\xacu\xe1\xd1\xb2\xaf\xc9?\xda\t\x94\x92\n\xfc\xd0?\xda\t\x94\x92\n\xfc\xc0?\xb3ujw\x8a\x1a\xc3?\xacu\xe1\xd1\xb2\xaf\xc9?\xacu\xe1\xd1\xb2\xaf\xc9?\xacu\xe1\xd1\xb2\xaf\xc9?\xacu\xe1\xd1\xb2\xaf\xc9?\xacu\xe1\xd1\xb2\xaf\xc9?\xc4\x13:p\xc4\xcd\xc4?\x81\x90R\xca\xf1\xd5\xc5?\x81\x90R\xca\xf1\xd5\xc5?"\xa6\x08MV\xfe\xc2?\xb3ujw\x8a\x1a\xc3?\x81\x90R\xca\xf1\xd5\xc5?\x96\xe1\x1b\x89\n\x94\xbb?]\xa4t\'$\x13\xc7?]\xa4t\'$\x13\xc7?]\xa4t\'$\x13\xc7?]\xa4t\'$\x13\xc7?]\xa4t\'$\x13\xc7?]\xa4t\'$\x13\xc7?]\xa4t\'$\x13\xc7?\x86 \x90\x16\x9c\x9d\xc3?]\xa4t\'$\x13\xc7?]\xa4t\'$\x13\xc7?\xe8\xd3k\xabP)\xc1?]\xa4t\'$\x13\xc7?]\xa4t\'$\x13\xc7?]\xa4t\'$\x13\xc7?]\xa4t\'$\x13\xc7?]\xa4t\'$\x13\xc7?]\xa4t\'$\x13\xc7?\xe8\xd3k\xabP)\xc1?]\xa4t\'$\x13\xc7?]\xa4t\'$\x13\xc7?\xe8\xd3k\xabP)\xc1?E;\xb2\xa4\xf1\x83\xbe?\x86 \x90\x16\x9c\x9d\xc3?\x86 \x90\x16\x9c\x9d\xc3?t\xac\x85;\xf5\xe2\xd6?E;\xb2\xa4\xf1\x83\xce?\xe8\xd3k\xabP)\xc1?[\x9a\xa0\xacJ\xb0\xb2?\x86 \x90\x16\x9c\x9d\xc3?X\x1c\x9a\xe0\xf7\x97\xc9?#s\xc3\x84=\xc6\xc8?\x8c\xe6i\xf8\xfan\xd6?\xb7\x96\x1eM9\xaf\xd0?\x8c\xe6i\xf8\xfan\xd6?\x8c\xe6i\xf8\xfan\xd6?\xb7\x96\x1eM9\xaf\xd0?@\x93\xaf\xd7\x0e\x12\xd3?\xc6\x97\xda\xc7U+\xc2?@\x93\xaf\xd7\x0e\x12\xd3?@\x93\xaf\xd7\x0e\x12\xd3?@\x93\xaf\xd7\x0e\x12\xd3?Z-ew\x97\x96\xc0?\xb7\x96\x1eM9\xaf\xd0?\xbe\x97\xa7\xe8\xfc\x15\xc8?\xfe5_\x8756\xc2?[3\xae\xc6\\l\xc5?[3\xae\xc6\\l\xc5?[3\xae\xc6\\l\xc5?\xfe5_\x8756\xc2?[3\xae\xc6\\l\xc5?[3\xae\xc6\\l\xc5?[3\xae\xc6\\l\xc5?[3\xae\xc6\\l\xc5?[3\xae\xc6\\l\xc5?[3\xae\xc6\\l\xc5?[3\xae\xc6\\l\xc5?[3\xae\xc6\\l\xc5?[3\xae\xc6\\l\xc5?[3\xae\xc6\\l\xc5?*f\xcb\x9a\xc3\xdd\xbf?[3\xae\xc6\\l\xc5?[3\xae\xc6\\l\xc5?[3\xae\xc6\\l\xc5?[3\xae\xc6\\l\xc5?[3\xae\xc6\\l\xc5?[3\xae\xc6\\l\xc5?\xfe5_\x8756\xc2?\xfe5_\x8756\xd2?\xfe5_\x8756\xd2?*f\xcb\x9a\xc3\xdd\xbf?w\xf9\x9f;\xd6T\xbc?\xeb\xf8\x0eI\xe0Y\xb1?\xfe5_\x8756\xc2?w\xf9\x9f;\xd6T\xcc?}P4\xea2\xcd\xd3?\x02\x12t3R\x00\xc7?-\x87P\x0e=\xae\xd2?-\x87P\x0e=\xae\xd2?-\x87P\x0e=\xae\xd2?-\x87P\x0e=\xae\xd2?-\x87P\x0e=\xae\xd2?-\x87P\x0e=\xae\xd2?-\x87P\x0e=\xae\xd2?&\xcc\xea1b\xc9\xcb?\xb7W\xf9\xe3\xad\xc2\xcf?\xb7W\xf9\xe3\xad\xc2\xcf?\xb7W\xf9\xe3\xad\xc2\xcf?&\xcc\xea1b\xc9\xcb?\x82)\xe1\xc7N\xb4\xc8?\x9d\xceU\xbamB\xbe?\x82)\xe1\xc7N\xb4\xc8?/\x81\x1dT\\\xa0\xbb?\xce\x01\x152{\x0e\xc4?\x99\x1b\xd6U\xafR\xce?\x99\x1b\xd6U\xafR\xce?\x99\x1b\xd6U\xafR\xce?\x99\x1b\xd6U\xafR\xce?\x99\x1b\xd6U\xafR\xce?\x99\x1b\xd6U\xafR\xce?\x99\x1b\xd6U\xafR\xce?\xa7g5\xca\xfd\xc6\xc9?\xa7g5\xca\xfd\xc6\xc9?\xa7g5\xca\xfd\xc6\xc9?\x99\x1b\xd6U\xafR\xce?\x99\x1b\xd6U\xafR\xce?\x99\x1b\xd6U\xafR\xce?\x99\x1b\xd6U\xafR\xce?\xa7g5\xca\xfd\xc6\xc9?\xa6\xa6\x0fqV\x8d\xc6?\xa6\xa6\x0fqV\x8d\xc6?\xf8Kp0\xe9\x0c\xc4?\xf8Kp0\xe9\x0c\xc4?\xa6\xa6\x0fqV\x8d\xc6?\x0e\xaeS\x97 \x8f\xb8?\\Z\x9a7\x08\xd1\xd0?\xf4_\x17wW\xae\xcf?\xf4_\x17wW\xae\xcf?\xf4_\x17wW\xae\xcf?\xf4_\x17wW\xae\xcf?\xf4_\x17wW\xae\xcf?\xf4_\x17wW\xae\xcf?\xf4_\x17wW\xae\xcf?\xf4_\x17wW\xae\xcf?\xf4_\x17wW\xae\xcf?\xf4_\x17wW\xae\xcf?\xf4_\x17wW\xae\xcf?\xf8+\x06\x08\x88\xee\xca?\xf8+\x06\x08\x88\xee\xca?\xf8+\x06\x08\x88\xee\xca?\xe82nv\xe6\x8f\xc7?\xe82nv\xe6\x8f\xc7?\x14\xfc\xe9E\xb3\xa8\xb9?\x15+\x9e\xa3\xca\xf2\xd4?\xae~_?\x1dm\xb7?\xe3\x03\xfb\xb4\n\xc7\xd5?\xe3\x03\xfb\xb4\n\xc7\xd5?\xe3\x03\xfb\xb4\n\xc7\xd5?\xe3\x03\xfb\xb4\n\xc7\xd5?\x8ep\xa8}K\x83\xd2?\x8ep\xa8}K\x83\xd2?\x8ep\xa8}K\x83\xe2?\x7f\xc3\x17\xa2Q\xa3\xc1?3b\x07@i\x1a\xc0?}\xd3\xa4\xa9\xcfI\xd3?}\xd3\xa4\xa9\xcfI\xd3?}\xd3\xa4\xa9\xcfI\xd3?}\xd3\xa4\xa9\xcfI\xd3?}\xd3\xa4\xa9\xcfI\xd3?}\xd3\xa4\xa9\xcfI\xd3?}\xd3\xa4\xa9\xcfI\xd3?}\xd3\xa4\xa9\xcfI\xd3?\x89\x19}\xa3\xca\xb0\xcc?q\xdf\xc1\xc7\x0b\x82\xc9?q\xdf\xc1\xc7\x0b\x82\xc9?,u\x163\x97e\xd0?,u\x163\x97e\xd0?\x14\xaa\xde!o\x86\xbc?'
p6978
tp6979
bsbsg90
(lp6980
V13
p6981
aV16-mile
p6982
aV187
p6983
aV40-year-old
p6984
aV59
p6985
ag97
aVacross
p6986
aVafternoon
p6987
aVaid
p6988
aVamatique
p6989
aVamong
p6990
aVan
p6991
aVand
p6992
aVanibal
p6993
aVare
p6994
aVarnal
p6995
aVarreola
p6996
aVat
p6997
aVauthorities
p6998
aVbarrios
p6999
aVbase
p7000
aVbay
p7001
aVbeen
p7002
aVbeing
p7003
aVbesides
p7004
aVboat
p7005
aVboats
p7006
aVbodies
p7007
aVbut
p7008
aVby
p7009
aVcapital
p7010
aVcapt
p7011
aVcaribbean
p7012
aVcitizen
p7013
aVcity
p7014
aVcoast
p7015
aVconfirmed
p7016
aVcraft
p7017
aVdaudi
p7018
aVdaughters
p7019
aVdead
p7020
aVdetails
p7021
aVdevelopment
p7022
aVdied
p7023
aVdrowned
p7024
aVeast
p7025
aVeconomic
p7026
aVembassy
p7027
aVferry
p7028
aVfishing
p7029
aVfor
p7030
aVfrom
p7031
aVfuel
p7032
aVgaytan
p7033
aVgiron
p7034
aVguatemala
p7035
aVguatemala's
p7036
aVhad
p7037
aVhave
p7038
aVhe
p7039
aVhis
p7040
aVidentified
p7041
aVii
p7042
aVimmediately
p7043
aVin
p7044
aVis
p7045
aVit
p7046
aVjose
p7047
aVjuan
p7048
aVjusto
p7049
aVknown
p7050
aVlivingston
p7051
aVmaria
p7052
aVmidway
p7053
aVmiles
p7054
aVmissing
p7055
aVmission
p7056
aVmorgue
p7057
aVnationalities
p7058
aVnaval
p7059
aVnavy
p7060
aVnews
p7061
aVno
p7062
aVnortheast
p7063
aVnot
p7064
aVof
p7065
aVoff
p7066
aVofficial
p7067
aVon
p7068
aVother
p7069
aVout
p7070
aVpassenger
p7071
aVpatrol
p7072
aVpeople
p7073
aVport
p7074
aVportena
p7075
aVprincipal
p7076
aVprivate
p7077
aVpuerto
p7078
aVradio
p7079
aVran
p7080
aVrecovering
p7081
aVregular
p7082
aVreported
p7083
aVreporter
p7084
aVreports
p7085
aVrosa
p7086
aVrufineo
p7087
aVrufino
p7088
aVrun
p7089
aVsaid
p7090
aVsank
p7091
aVsearching
p7092
aVshipwreck
p7093
aVsinking
p7094
aVsix
p7095
aVson
p7096
aVspanish
p7097
aVspokesman
p7098
aVsunday
p7099
aVsurvived
p7100
aVsurvivors
p7101
aVtechnical
p7102
aVtelephone
p7103
aVthat
p7104
aVthe
p7105
aVto
p7106
aVtoday
p7107
aVtowed
p7108
aVtown
p7109
aVtugboat
p7110
aVtwo
p7111
aVvessels
p7112
aVvicente
p7113
aVvictims
p7114
aVwas
p7115
aVwere
p7116
aVwhile
p7117
aVwife
p7118
aVwith
p7119
aVworking
p7120
asg233
g44
(g45
g46
Ntp7121
Rp7122
(dp7123
g50
S'csr'
p7124
sg52
(I10
I141
tp7125
sg54
g55
(g56
(I0
tp7126
g58
tp7127
Rp7128
(I1
(I11
tp7129
g65
I00
S'\x00\x00\x00\x00\x19\x00\x00\x007\x00\x00\x00V\x00\x00\x00c\x00\x00\x00\x83\x00\x00\x00\x94\x00\x00\x00\xaa\x00\x00\x00\xbd\x00\x00\x00\xc6\x00\x00\x00\xd4\x00\x00\x00'
p7130
tp7131
bsg70
g55
(g56
(I0
tp7132
g58
tp7133
Rp7134
(I1
(I212
tp7135
g65
I00
S'\x05\x00\x00\x00[\x00\x00\x000\x00\x00\x00o\x00\x00\x00V\x00\x00\x00}\x00\x00\x00 \x00\x00\x00#\x00\x00\x00\x89\x00\x00\x00\x17\x00\x00\x00\x80\x00\x00\x00~\x00\x00\x00^\x00\x00\x00\x0c\x00\x00\x00\x04\x00\x00\x00]\x00\x00\x00,\x00\x00\x00s\x00\x00\x00\x0e\x00\x00\x00K\x00\x00\x00\x12\x00\x00\x00Q\x00\x00\x00i\x00\x00\x00n\x00\x00\x00\x7f\x00\x00\x00\x05\x00\x00\x000\x00\x00\x00o\x00\x00\x00}\x00\x00\x00\x04\x00\x00\x00]\x00\x00\x00n\x00\x00\x00\x1f\x00\x00\x00\r\x00\x00\x006\x00\x00\x00\x10\x00\x00\x00v\x00\x00\x00\x11\x00\x00\x00b\x00\x00\x00\x13\x00\x00\x00O\x00\x00\x00\x14\x00\x00\x00E\x00\x00\x00l\x00\x00\x00>\x00\x00\x00w\x00\x00\x00\x07\x00\x00\x00@\x00\x00\x00\t\x00\x00\x00\x15\x00\x00\x00;\x00\x00\x00\x1d\x00\x00\x00{\x00\x00\x00|\x00\x00\x00+\x00\x00\x00\x05\x00\x00\x00}\x00\x00\x00~\x00\x00\x00n\x00\x00\x00\x11\x00\x00\x00b\x00\x00\x00\x13\x00\x00\x00E\x00\x00\x00>\x00\x00\x00@\x00\x00\x00\x15\x00\x00\x00D\x00\x00\x00C\x00\x00\x005\x00\x00\x00h\x00\x00\x00c\x00\x00\x00_\x00\x00\x00k\x00\x00\x00d\x00\x00\x00Z\x00\x00\x00U\x00\x00\x004\x00\x00\x00I\x00\x00\x00X\x00\x00\x00f\x00\x00\x00\x01\x00\x00\x00m\x00\x00\x003\x00\x00\x00\x81\x00\x00\x00G\x00\x00\x00\x06\x00\x00\x00\x05\x00\x00\x00o\x00\x00\x00}\x00\x00\x00\x89\x00\x00\x00\x17\x00\x00\x00\x80\x00\x00\x00n\x00\x00\x00\x1d\x00\x00\x005\x00\x00\x00\x19\x00\x00\x00B\x00\x00\x00\x87\x00\x00\x00\x82\x00\x00\x00\x05\x00\x00\x00}\x00\x00\x00\x0c\x00\x00\x00K\x00\x00\x00n\x00\x00\x00@\x00\x00\x00\x87\x00\x00\x00u\x00\x00\x00/\x00\x00\x007\x00\x00\x00"\x00\x00\x00$\x00\x00\x00r\x00\x00\x00\x03\x00\x00\x00!\x00\x00\x00\x85\x00\x00\x00&\x00\x00\x00\n\x00\x00\x00(\x00\x00\x00g\x00\x00\x00<\x00\x00\x00\x8a\x00\x00\x00j\x00\x00\x00H\x00\x00\x00\x0f\x00\x00\x00t\x00\x00\x00x\x00\x00\x00q\x00\x00\x00\x1c\x00\x00\x00\x83\x00\x00\x00\'\x00\x00\x00\x88\x00\x00\x00\x05\x00\x00\x00}\x00\x00\x00\x0c\x00\x00\x00n\x00\x00\x00@\x00\x00\x00\x87\x00\x00\x00u\x00\x00\x00/\x00\x00\x007\x00\x00\x00&\x00\x00\x00\x8c\x00\x00\x00\x8b\x00\x00\x00z\x00\x00\x00\x08\x00\x00\x00.\x00\x00\x00*\x00\x00\x00L\x00\x00\x00}\x00\x00\x00n\x00\x00\x00\x11\x00\x00\x00b\x00\x00\x00\x13\x00\x00\x00U\x00\x00\x00&\x00\x00\x00\x88\x00\x00\x00\x0b\x00\x00\x00W\x00\x00\x00M\x00\x00\x00\x00\x00\x00\x00\x1b\x00\x00\x00:\x00\x00\x00\x16\x00\x00\x00=\x00\x00\x00\x18\x00\x00\x00N\x00\x00\x00\x86\x00\x00\x00T\x00\x00\x00?\x00\x00\x00F\x00\x00\x00}\x00\x00\x00\x0c\x00\x00\x00n\x00\x00\x00\x15\x00\x00\x005\x00\x00\x00\x1b\x00\x00\x00:\x00\x00\x00\x16\x00\x00\x00P\x00\x00\x00\\\x00\x00\x00\x1a\x00\x00\x001\x00\x00\x00\x84\x00\x00\x00a\x00\x00\x00%\x00\x00\x00p\x00\x00\x002\x00\x00\x00y\x00\x00\x00e\x00\x00\x00}\x00\x00\x00n\x00\x00\x00;\x00\x00\x00X\x00\x00\x00q\x00\x00\x009\x00\x00\x00R\x00\x00\x00Y\x00\x00\x00)\x00\x00\x00}\x00\x00\x00#\x00\x00\x00^\x00\x00\x00b\x00\x00\x00\x13\x00\x00\x00U\x00\x00\x00\x02\x00\x00\x00J\x00\x00\x00S\x00\x00\x00\x1e\x00\x00\x00A\x00\x00\x008\x00\x00\x00`\x00\x00\x00-\x00\x00\x00'
p7136
tp7137
bsg77
I50
sg78
g55
(g56
(I0
tp7138
g58
tp7139
Rp7140
(I1
(I212
tp7141
g257
I00
S'\x01\x00\x00\x00\x00\x00\x00\x00\x01\x00\x00\x00\x00\x00\x00\x00\x01\x00\x00\x00\x00\x00\x00\x00\x01\x00\x00\x00\x00\x00\x00\x00\x01\x00\x00\x00\x00\x00\x00\x00\x01\x00\x00\x00\x00\x00\x00\x00\x01\x00\x00\x00\x00\x00\x00\x00\x01\x00\x00\x00\x00\x00\x00\x00\x01\x00\x00\x00\x00\x00\x00\x00\x01\x00\x00\x00\x00\x00\x00\x00\x01\x00\x00\x00\x00\x00\x00\x00\x01\x00\x00\x00\x00\x00\x00\x00\x01\x00\x00\x00\x00\x00\x00\x00\x03\x00\x00\x00\x00\x00\x00\x00\x01\x00\x00\x00\x00\x00\x00\x00\x01\x00\x00\x00\x00\x00\x00\x00\x01\x00\x00\x00\x00\x00\x00\x00\x01\x00\x00\x00\x00\x00\x00\x00\x01\x00\x00\x00\x00\x00\x00\x00\x01\x00\x00\x00\x00\x00\x00\x00\x01\x00\x00\x00\x00\x00\x00\x00\x01\x00\x00\x00\x00\x00\x00\x00\x01\x00\x00\x00\x00\x00\x00\x00\x01\x00\x00\x00\x00\x00\x00\x00\x01\x00\x00\x00\x00\x00\x00\x00\x01\x00\x00\x00\x00\x00\x00\x00\x01\x00\x00\x00\x00\x00\x00\x00\x01\x00\x00\x00\x00\x00\x00\x00\x02\x00\x00\x00\x00\x00\x00\x00\x01\x00\x00\x00\x00\x00\x00\x00\x01\x00\x00\x00\x00\x00\x00\x00\x02\x00\x00\x00\x00\x00\x00\x00\x01\x00\x00\x00\x00\x00\x00\x00\x01\x00\x00\x00\x00\x00\x00\x00\x01\x00\x00\x00\x00\x00\x00\x00\x01\x00\x00\x00\x00\x00\x00\x00\x01\x00\x00\x00\x00\x00\x00\x00\x01\x00\x00\x00\x00\x00\x00\x00\x01\x00\x00\x00\x00\x00\x00\x00\x02\x00\x00\x00\x00\x00\x00\x00\x01\x00\x00\x00\x00\x00\x00\x00\x01\x00\x00\x00\x00\x00\x00\x00\x01\x00\x00\x00\x00\x00\x00\x00\x01\x00\x00\x00\x00\x00\x00\x00\x01\x00\x00\x00\x00\x00\x00\x00\x01\x00\x00\x00\x00\x00\x00\x00\x01\x00\x00\x00\x00\x00\x00\x00\x01\x00\x00\x00\x00\x00\x00\x00\x01\x00\x00\x00\x00\x00\x00\x00\x01\x00\x00\x00\x00\x00\x00\x00\x01\x00\x00\x00\x00\x00\x00\x00\x01\x00\x00\x00\x00\x00\x00\x00\x01\x00\x00\x00\x00\x00\x00\x00\x01\x00\x00\x00\x00\x00\x00\x00\x01\x00\x00\x00\x00\x00\x00\x00\x02\x00\x00\x00\x00\x00\x00\x00\x03\x00\x00\x00\x00\x00\x00\x00\x01\x00\x00\x00\x00\x00\x00\x00\x01\x00\x00\x00\x00\x00\x00\x00\x01\x00\x00\x00\x00\x00\x00\x00\x02\x00\x00\x00\x00\x00\x00\x00\x03\x00\x00\x00\x00\x00\x00\x00\x01\x00\x00\x00\x00\x00\x00\x00\x01\x00\x00\x00\x00\x00\x00\x00\x01\x00\x00\x00\x00\x00\x00\x00\x01\x00\x00\x00\x00\x00\x00\x00\x01\x00\x00\x00\x00\x00\x00\x00\x01\x00\x00\x00\x00\x00\x00\x00\x01\x00\x00\x00\x00\x00\x00\x00\x01\x00\x00\x00\x00\x00\x00\x00\x01\x00\x00\x00\x00\x00\x00\x00\x01\x00\x00\x00\x00\x00\x00\x00\x01\x00\x00\x00\x00\x00\x00\x00\x01\x00\x00\x00\x00\x00\x00\x00\x01\x00\x00\x00\x00\x00\x00\x00\x01\x00\x00\x00\x00\x00\x00\x00\x01\x00\x00\x00\x00\x00\x00\x00\x01\x00\x00\x00\x00\x00\x00\x00\x01\x00\x00\x00\x00\x00\x00\x00\x01\x00\x00\x00\x00\x00\x00\x00\x01\x00\x00\x00\x00\x00\x00\x00\x01\x00\x00\x00\x00\x00\x00\x00\x01\x00\x00\x00\x00\x00\x00\x00\x01\x00\x00\x00\x00\x00\x00\x00\x01\x00\x00\x00\x00\x00\x00\x00\x01\x00\x00\x00\x00\x00\x00\x00\x01\x00\x00\x00\x00\x00\x00\x00\x01\x00\x00\x00\x00\x00\x00\x00\x01\x00\x00\x00\x00\x00\x00\x00\x01\x00\x00\x00\x00\x00\x00\x00\x01\x00\x00\x00\x00\x00\x00\x00\x01\x00\x00\x00\x00\x00\x00\x00\x01\x00\x00\x00\x00\x00\x00\x00\x01\x00\x00\x00\x00\x00\x00\x00\x01\x00\x00\x00\x00\x00\x00\x00\x01\x00\x00\x00\x00\x00\x00\x00\x01\x00\x00\x00\x00\x00\x00\x00\x01\x00\x00\x00\x00\x00\x00\x00\x01\x00\x00\x00\x00\x00\x00\x00\x02\x00\x00\x00\x00\x00\x00\x00\x05\x00\x00\x00\x00\x00\x00\x00\x02\x00\x00\x00\x00\x00\x00\x00\x01\x00\x00\x00\x00\x00\x00\x00\x01\x00\x00\x00\x00\x00\x00\x00\x01\x00\x00\x00\x00\x00\x00\x00\x01\x00\x00\x00\x00\x00\x00\x00\x02\x00\x00\x00\x00\x00\x00\x00\x02\x00\x00\x00\x00\x00\x00\x00\x01\x00\x00\x00\x00\x00\x00\x00\x01\x00\x00\x00\x00\x00\x00\x00\x01\x00\x00\x00\x00\x00\x00\x00\x01\x00\x00\x00\x00\x00\x00\x00\x01\x00\x00\x00\x00\x00\x00\x00\x01\x00\x00\x00\x00\x00\x00\x00\x01\x00\x00\x00\x00\x00\x00\x00\x01\x00\x00\x00\x00\x00\x00\x00\x01\x00\x00\x00\x00\x00\x00\x00\x01\x00\x00\x00\x00\x00\x00\x00\x01\x00\x00\x00\x00\x00\x00\x00\x01\x00\x00\x00\x00\x00\x00\x00\x01\x00\x00\x00\x00\x00\x00\x00\x01\x00\x00\x00\x00\x00\x00\x00\x01\x00\x00\x00\x00\x00\x00\x00\x01\x00\x00\x00\x00\x00\x00\x00\x01\x00\x00\x00\x00\x00\x00\x00\x01\x00\x00\x00\x00\x00\x00\x00\x01\x00\x00\x00\x00\x00\x00\x00\x01\x00\x00\x00\x00\x00\x00\x00\x01\x00\x00\x00\x00\x00\x00\x00\x01\x00\x00\x00\x00\x00\x00\x00\x01\x00\x00\x00\x00\x00\x00\x00\x01\x00\x00\x00\x00\x00\x00\x00\x01\x00\x00\x00\x00\x00\x00\x00\x01\x00\x00\x00\x00\x00\x00\x00\x01\x00\x00\x00\x00\x00\x00\x00\x01\x00\x00\x00\x00\x00\x00\x00\x01\x00\x00\x00\x00\x00\x00\x00\x01\x00\x00\x00\x00\x00\x00\x00\x01\x00\x00\x00\x00\x00\x00\x00\x01\x00\x00\x00\x00\x00\x00\x00\x01\x00\x00\x00\x00\x00\x00\x00\x01\x00\x00\x00\x00\x00\x00\x00\x01\x00\x00\x00\x00\x00\x00\x00\x01\x00\x00\x00\x00\x00\x00\x00\x01\x00\x00\x00\x00\x00\x00\x00\x01\x00\x00\x00\x00\x00\x00\x00\x01\x00\x00\x00\x00\x00\x00\x00\x01\x00\x00\x00\x00\x00\x00\x00\x03\x00\x00\x00\x00\x00\x00\x00\x01\x00\x00\x00\x00\x00\x00\x00\x01\x00\x00\x00\x00\x00\x00\x00\x01\x00\x00\x00\x00\x00\x00\x00\x01\x00\x00\x00\x00\x00\x00\x00\x01\x00\x00\x00\x00\x00\x00\x00\x01\x00\x00\x00\x00\x00\x00\x00\x01\x00\x00\x00\x00\x00\x00\x00\x01\x00\x00\x00\x00\x00\x00\x00\x01\x00\x00\x00\x00\x00\x00\x00\x01\x00\x00\x00\x00\x00\x00\x00\x01\x00\x00\x00\x00\x00\x00\x00\x01\x00\x00\x00\x00\x00\x00\x00\x01\x00\x00\x00\x00\x00\x00\x00\x01\x00\x00\x00\x00\x00\x00\x00\x01\x00\x00\x00\x00\x00\x00\x00\x01\x00\x00\x00\x00\x00\x00\x00\x01\x00\x00\x00\x00\x00\x00\x00\x01\x00\x00\x00\x00\x00\x00\x00\x01\x00\x00\x00\x00\x00\x00\x00\x01\x00\x00\x00\x00\x00\x00\x00\x01\x00\x00\x00\x00\x00\x00\x00\x01\x00\x00\x00\x00\x00\x00\x00\x02\x00\x00\x00\x00\x00\x00\x00\x01\x00\x00\x00\x00\x00\x00\x00\x01\x00\x00\x00\x00\x00\x00\x00\x01\x00\x00\x00\x00\x00\x00\x00\x01\x00\x00\x00\x00\x00\x00\x00\x01\x00\x00\x00\x00\x00\x00\x00\x01\x00\x00\x00\x00\x00\x00\x00\x01\x00\x00\x00\x00\x00\x00\x00\x01\x00\x00\x00\x00\x00\x00\x00\x01\x00\x00\x00\x00\x00\x00\x00\x01\x00\x00\x00\x00\x00\x00\x00\x01\x00\x00\x00\x00\x00\x00\x00\x01\x00\x00\x00\x00\x00\x00\x00\x01\x00\x00\x00\x00\x00\x00\x00\x01\x00\x00\x00\x00\x00\x00\x00\x01\x00\x00\x00\x00\x00\x00\x00\x01\x00\x00\x00\x00\x00\x00\x00\x01\x00\x00\x00\x00\x00\x00\x00\x01\x00\x00\x00\x00\x00\x00\x00\x01\x00\x00\x00\x00\x00\x00\x00\x02\x00\x00\x00\x00\x00\x00\x00\x01\x00\x00\x00\x00\x00\x00\x00\x01\x00\x00\x00\x00\x00\x00\x00\x01\x00\x00\x00\x00\x00\x00\x00\x01\x00\x00\x00\x00\x00\x00\x00\x01\x00\x00\x00\x00\x00\x00\x00\x01\x00\x00\x00\x00\x00\x00\x00\x01\x00\x00\x00\x00\x00\x00\x00\x01\x00\x00\x00\x00\x00\x00\x00\x01\x00\x00\x00\x00\x00\x00\x00\x01\x00\x00\x00\x00\x00\x00\x00\x01\x00\x00\x00\x00\x00\x00\x00\x01\x00\x00\x00\x00\x00\x00\x00\x01\x00\x00\x00\x00\x00\x00\x00\x01\x00\x00\x00\x00\x00\x00\x00\x01\x00\x00\x00\x00\x00\x00\x00\x01\x00\x00\x00\x00\x00\x00\x00\x01\x00\x00\x00\x00\x00\x00\x00\x01\x00\x00\x00\x00\x00\x00\x00\x01\x00\x00\x00\x00\x00\x00\x00\x01\x00\x00\x00\x00\x00\x00\x00'
p7142
tp7143
bsbsbsS'fname'
p7144
g39
sS't_s'
p7145
g44
(g45
g46
Ntp7146
Rp7147
(dp7148
g50
S'csr'
p7149
sg52
(I10
I10
tp7150
sg269
I01
sg54
g55
(g56
(I0
tp7151
g58
tp7152
Rp7153
(I1
(I11
tp7154
g276
I00
S'\x00\x00\x00\x00\x01\x00\x00\x00\x02\x00\x00\x00\x03\x00\x00\x00\x04\x00\x00\x00\x05\x00\x00\x00\x06\x00\x00\x00\x07\x00\x00\x00\x08\x00\x00\x00\t\x00\x00\x00\n\x00\x00\x00'
p7155
tp7156
bsg70
g55
(g56
(I0
tp7157
g58
tp7158
Rp7159
(I1
(I10
tp7160
g276
I00
S'\x00\x00\x00\x00\x01\x00\x00\x00\x02\x00\x00\x00\x03\x00\x00\x00\x04\x00\x00\x00\x05\x00\x00\x00\x06\x00\x00\x00\x07\x00\x00\x00\x08\x00\x00\x00\t\x00\x00\x00'
p7161
tp7162
bsg77
I50
sg78
g55
(g56
(I0
tp7163
g58
tp7164
Rp7165
(I1
(I10
tp7166
g85
I00
S'\x00\x00\x00\x00\x00\x00\xf0?\x00\x00\x00\x00\x00\x00\xf0?\x00\x00\x00\x00\x00\x00\xf0?\x00\x00\x00\x00\x00\x00\xf0?\x00\x00\x00\x00\x00\x00\xf0?\x00\x00\x00\x00\x00\x00\xf0?\x00\x00\x00\x00\x00\x00\xf0?\x00\x00\x00\x00\x00\x00\xf0?\x00\x00\x00\x00\x00\x00\xf0?\x00\x00\x00\x00\x00\x00\xf0?'
p7167
tp7168
bsbsS's_k'
p7169
g44
(g45
g46
Ntp7170
Rp7171
(dp7172
g50
S'csr'
p7173
sg52
(I10
I141
tp7174
sg54
g6964
sg70
g55
(g56
(I0
tp7175
g58
tp7176
Rp7177
(I1
(I212
tp7178
g65
I00
S'\x7f\x00\x00\x00n\x00\x00\x00i\x00\x00\x00Q\x00\x00\x00\x12\x00\x00\x00K\x00\x00\x00\x0e\x00\x00\x00s\x00\x00\x00,\x00\x00\x00]\x00\x00\x00\x04\x00\x00\x00\x0c\x00\x00\x00^\x00\x00\x00~\x00\x00\x00\x80\x00\x00\x00\x17\x00\x00\x00\x89\x00\x00\x00#\x00\x00\x00 \x00\x00\x00}\x00\x00\x00V\x00\x00\x00o\x00\x00\x000\x00\x00\x00[\x00\x00\x00\x05\x00\x00\x00+\x00\x00\x00|\x00\x00\x00{\x00\x00\x00\x1d\x00\x00\x00;\x00\x00\x00\x15\x00\x00\x00\t\x00\x00\x00@\x00\x00\x00\x07\x00\x00\x00w\x00\x00\x00>\x00\x00\x00l\x00\x00\x00E\x00\x00\x00\x14\x00\x00\x00O\x00\x00\x00\x13\x00\x00\x00b\x00\x00\x00\x11\x00\x00\x00v\x00\x00\x00\x10\x00\x00\x006\x00\x00\x00\r\x00\x00\x00\x1f\x00\x00\x00n\x00\x00\x00]\x00\x00\x00\x04\x00\x00\x00}\x00\x00\x00o\x00\x00\x000\x00\x00\x00\x05\x00\x00\x00\x06\x00\x00\x00G\x00\x00\x00\x81\x00\x00\x003\x00\x00\x00m\x00\x00\x00\x01\x00\x00\x00f\x00\x00\x00X\x00\x00\x00I\x00\x00\x004\x00\x00\x00U\x00\x00\x00Z\x00\x00\x00d\x00\x00\x00k\x00\x00\x00_\x00\x00\x00c\x00\x00\x00h\x00\x00\x005\x00\x00\x00C\x00\x00\x00D\x00\x00\x00\x15\x00\x00\x00@\x00\x00\x00>\x00\x00\x00E\x00\x00\x00\x13\x00\x00\x00b\x00\x00\x00\x11\x00\x00\x00n\x00\x00\x00~\x00\x00\x00}\x00\x00\x00\x05\x00\x00\x00\x82\x00\x00\x00\x87\x00\x00\x00B\x00\x00\x00\x19\x00\x00\x005\x00\x00\x00\x1d\x00\x00\x00n\x00\x00\x00\x80\x00\x00\x00\x17\x00\x00\x00\x89\x00\x00\x00}\x00\x00\x00o\x00\x00\x00\x05\x00\x00\x00\x88\x00\x00\x00\'\x00\x00\x00\x83\x00\x00\x00\x1c\x00\x00\x00q\x00\x00\x00x\x00\x00\x00t\x00\x00\x00\x0f\x00\x00\x00H\x00\x00\x00j\x00\x00\x00\x8a\x00\x00\x00<\x00\x00\x00g\x00\x00\x00(\x00\x00\x00\n\x00\x00\x00&\x00\x00\x00\x85\x00\x00\x00!\x00\x00\x00\x03\x00\x00\x00r\x00\x00\x00$\x00\x00\x00"\x00\x00\x007\x00\x00\x00/\x00\x00\x00u\x00\x00\x00\x87\x00\x00\x00@\x00\x00\x00n\x00\x00\x00K\x00\x00\x00\x0c\x00\x00\x00}\x00\x00\x00\x05\x00\x00\x00L\x00\x00\x00*\x00\x00\x00.\x00\x00\x00\x08\x00\x00\x00z\x00\x00\x00\x8b\x00\x00\x00\x8c\x00\x00\x00&\x00\x00\x007\x00\x00\x00/\x00\x00\x00u\x00\x00\x00\x87\x00\x00\x00@\x00\x00\x00n\x00\x00\x00\x0c\x00\x00\x00}\x00\x00\x00\x05\x00\x00\x00F\x00\x00\x00?\x00\x00\x00T\x00\x00\x00\x86\x00\x00\x00N\x00\x00\x00\x18\x00\x00\x00=\x00\x00\x00\x16\x00\x00\x00:\x00\x00\x00\x1b\x00\x00\x00\x00\x00\x00\x00M\x00\x00\x00W\x00\x00\x00\x0b\x00\x00\x00\x88\x00\x00\x00&\x00\x00\x00U\x00\x00\x00\x13\x00\x00\x00b\x00\x00\x00\x11\x00\x00\x00n\x00\x00\x00}\x00\x00\x00e\x00\x00\x00y\x00\x00\x002\x00\x00\x00p\x00\x00\x00%\x00\x00\x00a\x00\x00\x00\x84\x00\x00\x001\x00\x00\x00\x1a\x00\x00\x00\\\x00\x00\x00P\x00\x00\x00\x16\x00\x00\x00:\x00\x00\x00\x1b\x00\x00\x005\x00\x00\x00\x15\x00\x00\x00n\x00\x00\x00\x0c\x00\x00\x00}\x00\x00\x00)\x00\x00\x00Y\x00\x00\x00R\x00\x00\x009\x00\x00\x00q\x00\x00\x00X\x00\x00\x00;\x00\x00\x00n\x00\x00\x00}\x00\x00\x00-\x00\x00\x00`\x00\x00\x008\x00\x00\x00A\x00\x00\x00\x1e\x00\x00\x00S\x00\x00\x00J\x00\x00\x00\x02\x00\x00\x00U\x00\x00\x00\x13\x00\x00\x00b\x00\x00\x00^\x00\x00\x00#\x00\x00\x00}\x00\x00\x00'
p7179
tp7180
bsg77
I50
sg78
g55
(g56
(I0
tp7181
g58
tp7182
Rp7183
(I1
(I212
tp7184
g85
I00
S'#\x91(st\x1a\xcb?\x1a!`\xda\x91\xf3\xb5?#\x91(st\x1a\xcb?#\x91(st\x1a\xcb?#\x91(st\x1a\xcb?\xefC]\x0fR\n\xc7?#\x91(st\x1a\xcb?#\x91(st\x1a\xcb?#\x91(st\x1a\xcb?\xefC]\x0fR\n\xc7?\xefC]\x0fR\n\xc7?\xf1\xdb\xf6\x00\xdc\xe1\xda?\xefC]\x0fR\n\xc7?\xefC]\x0fR\n\xc7?\xefC]\x0fR\n\xc7?\xefC]\x0fR\n\xc7?\xefC]\x0fR\n\xc7?\xefC]\x0fR\n\xc7?#\x91(st\x1a\xcb?\xf2c,\xe6\x92\n\xb4?#\x91(st\x1a\xcb?\x0e\x0f\xb4_U(\xc4?\xefC]\x0fR\n\xc7?#\x91(st\x1a\xcb?\xbeN\x92Q\x84\x19\xbd?\xacu\xe1\xd1\xb2\xaf\xc9?\xacu\xe1\xd1\xb2\xaf\xc9?\xacu\xe1\xd1\xb2\xaf\xc9?\x81\x90R\xca\xf1\xd5\xc5?\x81\x90R\xca\xf1\xd5\xc5?\xb3ujw\x8a\x1a\xc3?\xacu\xe1\xd1\xb2\xaf\xc9?\xda\t\x94\x92\n\xfc\xc0?\xacu\xe1\xd1\xb2\xaf\xc9?\xacu\xe1\xd1\xb2\xaf\xc9?\x81\x90R\xca\xf1\xd5\xc5?\xacu\xe1\xd1\xb2\xaf\xc9?\x81\x90R\xca\xf1\xd5\xc5?\xacu\xe1\xd1\xb2\xaf\xc9?\xacu\xe1\xd1\xb2\xaf\xc9?\xda\t\x94\x92\n\xfc\xd0?\xda\t\x94\x92\n\xfc\xc0?\xb3ujw\x8a\x1a\xc3?\xacu\xe1\xd1\xb2\xaf\xc9?\xacu\xe1\xd1\xb2\xaf\xc9?\xacu\xe1\xd1\xb2\xaf\xc9?\xacu\xe1\xd1\xb2\xaf\xc9?\xacu\xe1\xd1\xb2\xaf\xc9?\xc4\x13:p\xc4\xcd\xc4?\x81\x90R\xca\xf1\xd5\xc5?\x81\x90R\xca\xf1\xd5\xc5?"\xa6\x08MV\xfe\xc2?\xb3ujw\x8a\x1a\xc3?\x81\x90R\xca\xf1\xd5\xc5?\x96\xe1\x1b\x89\n\x94\xbb?]\xa4t\'$\x13\xc7?]\xa4t\'$\x13\xc7?]\xa4t\'$\x13\xc7?]\xa4t\'$\x13\xc7?]\xa4t\'$\x13\xc7?]\xa4t\'$\x13\xc7?]\xa4t\'$\x13\xc7?\x86 \x90\x16\x9c\x9d\xc3?]\xa4t\'$\x13\xc7?]\xa4t\'$\x13\xc7?\xe8\xd3k\xabP)\xc1?]\xa4t\'$\x13\xc7?]\xa4t\'$\x13\xc7?]\xa4t\'$\x13\xc7?]\xa4t\'$\x13\xc7?]\xa4t\'$\x13\xc7?]\xa4t\'$\x13\xc7?\xe8\xd3k\xabP)\xc1?]\xa4t\'$\x13\xc7?]\xa4t\'$\x13\xc7?\xe8\xd3k\xabP)\xc1?E;\xb2\xa4\xf1\x83\xbe?\x86 \x90\x16\x9c\x9d\xc3?\x86 \x90\x16\x9c\x9d\xc3?t\xac\x85;\xf5\xe2\xd6?E;\xb2\xa4\xf1\x83\xce?\xe8\xd3k\xabP)\xc1?[\x9a\xa0\xacJ\xb0\xb2?\x86 \x90\x16\x9c\x9d\xc3?X\x1c\x9a\xe0\xf7\x97\xc9?#s\xc3\x84=\xc6\xc8?\x8c\xe6i\xf8\xfan\xd6?\xb7\x96\x1eM9\xaf\xd0?\x8c\xe6i\xf8\xfan\xd6?\x8c\xe6i\xf8\xfan\xd6?\xb7\x96\x1eM9\xaf\xd0?@\x93\xaf\xd7\x0e\x12\xd3?\xc6\x97\xda\xc7U+\xc2?@\x93\xaf\xd7\x0e\x12\xd3?@\x93\xaf\xd7\x0e\x12\xd3?@\x93\xaf\xd7\x0e\x12\xd3?Z-ew\x97\x96\xc0?\xb7\x96\x1eM9\xaf\xd0?\xbe\x97\xa7\xe8\xfc\x15\xc8?\xfe5_\x8756\xc2?[3\xae\xc6\\l\xc5?[3\xae\xc6\\l\xc5?[3\xae\xc6\\l\xc5?\xfe5_\x8756\xc2?[3\xae\xc6\\l\xc5?[3\xae\xc6\\l\xc5?[3\xae\xc6\\l\xc5?[3\xae\xc6\\l\xc5?[3\xae\xc6\\l\xc5?[3\xae\xc6\\l\xc5?[3\xae\xc6\\l\xc5?[3\xae\xc6\\l\xc5?[3\xae\xc6\\l\xc5?[3\xae\xc6\\l\xc5?*f\xcb\x9a\xc3\xdd\xbf?[3\xae\xc6\\l\xc5?[3\xae\xc6\\l\xc5?[3\xae\xc6\\l\xc5?[3\xae\xc6\\l\xc5?[3\xae\xc6\\l\xc5?[3\xae\xc6\\l\xc5?\xfe5_\x8756\xc2?\xfe5_\x8756\xd2?\xfe5_\x8756\xd2?*f\xcb\x9a\xc3\xdd\xbf?w\xf9\x9f;\xd6T\xbc?\xeb\xf8\x0eI\xe0Y\xb1?\xfe5_\x8756\xc2?w\xf9\x9f;\xd6T\xcc?}P4\xea2\xcd\xd3?\x02\x12t3R\x00\xc7?-\x87P\x0e=\xae\xd2?-\x87P\x0e=\xae\xd2?-\x87P\x0e=\xae\xd2?-\x87P\x0e=\xae\xd2?-\x87P\x0e=\xae\xd2?-\x87P\x0e=\xae\xd2?-\x87P\x0e=\xae\xd2?&\xcc\xea1b\xc9\xcb?\xb7W\xf9\xe3\xad\xc2\xcf?\xb7W\xf9\xe3\xad\xc2\xcf?\xb7W\xf9\xe3\xad\xc2\xcf?&\xcc\xea1b\xc9\xcb?\x82)\xe1\xc7N\xb4\xc8?\x9d\xceU\xbamB\xbe?\x82)\xe1\xc7N\xb4\xc8?/\x81\x1dT\\\xa0\xbb?\xce\x01\x152{\x0e\xc4?\x99\x1b\xd6U\xafR\xce?\x99\x1b\xd6U\xafR\xce?\x99\x1b\xd6U\xafR\xce?\x99\x1b\xd6U\xafR\xce?\x99\x1b\xd6U\xafR\xce?\x99\x1b\xd6U\xafR\xce?\x99\x1b\xd6U\xafR\xce?\xa7g5\xca\xfd\xc6\xc9?\xa7g5\xca\xfd\xc6\xc9?\xa7g5\xca\xfd\xc6\xc9?\x99\x1b\xd6U\xafR\xce?\x99\x1b\xd6U\xafR\xce?\x99\x1b\xd6U\xafR\xce?\x99\x1b\xd6U\xafR\xce?\xa7g5\xca\xfd\xc6\xc9?\xa6\xa6\x0fqV\x8d\xc6?\xa6\xa6\x0fqV\x8d\xc6?\xf8Kp0\xe9\x0c\xc4?\xf8Kp0\xe9\x0c\xc4?\xa6\xa6\x0fqV\x8d\xc6?\x0e\xaeS\x97 \x8f\xb8?\\Z\x9a7\x08\xd1\xd0?\xf4_\x17wW\xae\xcf?\xf4_\x17wW\xae\xcf?\xf4_\x17wW\xae\xcf?\xf4_\x17wW\xae\xcf?\xf4_\x17wW\xae\xcf?\xf4_\x17wW\xae\xcf?\xf4_\x17wW\xae\xcf?\xf4_\x17wW\xae\xcf?\xf4_\x17wW\xae\xcf?\xf4_\x17wW\xae\xcf?\xf4_\x17wW\xae\xcf?\xf8+\x06\x08\x88\xee\xca?\xf8+\x06\x08\x88\xee\xca?\xf8+\x06\x08\x88\xee\xca?\xe82nv\xe6\x8f\xc7?\xe82nv\xe6\x8f\xc7?\x14\xfc\xe9E\xb3\xa8\xb9?\x15+\x9e\xa3\xca\xf2\xd4?\xae~_?\x1dm\xb7?\xe3\x03\xfb\xb4\n\xc7\xd5?\xe3\x03\xfb\xb4\n\xc7\xd5?\xe3\x03\xfb\xb4\n\xc7\xd5?\xe3\x03\xfb\xb4\n\xc7\xd5?\x8ep\xa8}K\x83\xd2?\x8ep\xa8}K\x83\xd2?\x8ep\xa8}K\x83\xe2?\x7f\xc3\x17\xa2Q\xa3\xc1?3b\x07@i\x1a\xc0?}\xd3\xa4\xa9\xcfI\xd3?}\xd3\xa4\xa9\xcfI\xd3?}\xd3\xa4\xa9\xcfI\xd3?}\xd3\xa4\xa9\xcfI\xd3?}\xd3\xa4\xa9\xcfI\xd3?}\xd3\xa4\xa9\xcfI\xd3?}\xd3\xa4\xa9\xcfI\xd3?}\xd3\xa4\xa9\xcfI\xd3?\x89\x19}\xa3\xca\xb0\xcc?q\xdf\xc1\xc7\x0b\x82\xc9?q\xdf\xc1\xc7\x0b\x82\xc9?,u\x163\x97e\xd0?,u\x163\x97e\xd0?\x14\xaa\xde!o\x86\xbc?'
p7185
tp7186
bsbsS'conclusion'
p7187
g39
sS'section_list'
p7188
(lp7189
(i__main__
sxpSectionTitle
p7190
(dp7191
S'level'
p7192
I0
sg6952
g295
sS't_type'
p7193
g39
sS'id_str'
p7194
g295
sS'id_set'
p7195
g39
sg9
I0
sbasS'c_p'
p7196
g44
(g45
g46
Ntp7197
Rp7198
(dp7199
g50
S'csr'
p7200
sg52
(I1
I10
tp7201
sg269
I01
sg54
g55
(g56
(I0
tp7202
g58
tp7203
Rp7204
(I1
(I2
tp7205
g276
I00
S'\x00\x00\x00\x00\n\x00\x00\x00'
p7206
tp7207
bsg70
g55
(g56
(I0
tp7208
g58
tp7209
Rp7210
(I1
(I10
tp7211
g276
I00
S'\x00\x00\x00\x00\x01\x00\x00\x00\x02\x00\x00\x00\x03\x00\x00\x00\x04\x00\x00\x00\x05\x00\x00\x00\x06\x00\x00\x00\x07\x00\x00\x00\x08\x00\x00\x00\t\x00\x00\x00'
p7212
tp7213
bsg77
I50
sg78
g55
(g56
(I0
tp7214
g58
tp7215
Rp7216
(I1
(I10
tp7217
g85
I00
S'\x00\x00\x00\x00\x00\x00\xf0?\x00\x00\x00\x00\x00\x00\xf0?\x00\x00\x00\x00\x00\x00\xf0?\x00\x00\x00\x00\x00\x00\xf0?\x00\x00\x00\x00\x00\x00\xf0?\x00\x00\x00\x00\x00\x00\xf0?\x00\x00\x00\x00\x00\x00\xf0?\x00\x00\x00\x00\x00\x00\xf0?\x00\x00\x00\x00\x00\x00\xf0?\x00\x00\x00\x00\x00\x00\xf0?'
p7218
tp7219
bsbsS'relatedwork'
p7220
g39
sS'paraset'
p7221
(lp7222
(i__main__
sxpPara
p7223
(dp7224
g2
(lp7225
sS'para_id'
p7226
S'0'
p7227
sS'section_title'
p7228
g295
sg40
(lp7229
sg8
I0
sS'para_text'
p7230
S'a passenger ferry sank off the caribbean coast while being towed to port, and 59 people drowned and six are missing, authorities and news reports said today.'
p7231
sS'para_tuple'
p7232
(lp7233
g295
aI0
asg9
I0
sS'context_set'
p7234
(lp7235
(i__main__
sxpContext
p7236
(dp7237
S'context_sent'
p7238
(lp7239
g4
asg8
I0
sg9
I0
sg10
I0
sbasba(i__main__
sxpPara
p7240
(dp7241
g2
(lp7242
sg7226
S'1'
p7243
sg7228
g295
sg40
(lp7244
sg8
I0
sg7230
S'capt. anibal giron arreola, a spokesman at the puerto barrios naval base, said the ferry justo rufino barrios ii sank sunday afternoon in amatique bay. he said by telephone that 59 people died.'
p7245
sg7232
(lp7246
g295
aI0
asg9
I1
sg7234
(lp7247
(i__main__
sxpContext
p7248
(dp7249
g7238
(lp7250
g11
asg8
I0
sg9
I1
sg10
I1
sbasba(i__main__
sxpPara
p7251
(dp7252
g2
(lp7253
sg7226
S'2'
p7254
sg7228
g295
sg40
(lp7255
sg8
I0
sg7230
S'juan jose gaytan, a reporter at radio portena in puerto barrios, said the justo rufineo barrios ii ran out of fuel midway on a regular 16-mile run from the town livingston, across the bay, to puerto barrios.'
p7256
sg7232
(lp7257
g295
aI0
asg9
I2
sg7234
(lp7258
(i__main__
sxpContext
p7259
(dp7260
g7238
(lp7261
g14
asg8
I0
sg9
I2
sg10
I2
sbasba(i__main__
sxpPara
p7262
(dp7263
g2
(lp7264
sg7226
S'3'
p7265
sg7228
g295
sg40
(lp7266
sg8
I0
sg7230
S'gaytan said the boat sank while it was being towed by a tugboat.'
p7267
sg7232
(lp7268
g295
aI0
asg9
I3
sg7234
(lp7269
(i__main__
sxpContext
p7270
(dp7271
g7238
(lp7272
g17
asg8
I0
sg9
I3
sg10
I3
sbasba(i__main__
sxpPara
p7273
(dp7274
g2
(lp7275
sg7226
S'4'
p7276
sg7228
g295
sg40
(lp7277
sg8
I0
sg7230
S'the spanish embassy in guatemala city confirmed the sinking and said a 40-year-old spanish citizen, vicente daudi, was among the dead. the embassy reported his wife, rosa maria arnal, and a son survived the shipwreck, but two daughters were missing.'
p7278
sg7232
(lp7279
g295
aI0
asg9
I4
sg7234
(lp7280
(i__main__
sxpContext
p7281
(dp7282
g7238
(lp7283
g20
asg8
I0
sg9
I4
sg10
I4
sbasba(i__main__
sxpPara
p7284
(dp7285
g2
(lp7286
sg7226
S'5'
p7287
sg7228
g295
sg40
(lp7288
sg8
I0
sg7230
S'daudi was working with a spanish technical aid and economic development mission in guatemala, the embassy said.'
p7289
sg7232
(lp7290
g295
aI0
asg9
I5
sg7234
(lp7291
(i__main__
sxpContext
p7292
(dp7293
g7238
(lp7294
g23
asg8
I0
sg9
I5
sg10
I5
sbasba(i__main__
sxpPara
p7295
(dp7296
g2
(lp7297
sg7226
S'6'
p7298
sg7228
g295
sg40
(lp7299
sg8
I0
sg7230
S'an official at the puerto barrios morgue said 13 bodies have been identified. besides daudi, the nationalities of the victims were not immediately known.'
p7300
sg7232
(lp7301
g295
aI0
asg9
I6
sg7234
(lp7302
(i__main__
sxpContext
p7303
(dp7304
g7238
(lp7305
g26
asg8
I0
sg9
I6
sg10
I6
sbasba(i__main__
sxpPara
p7306
(dp7307
g2
(lp7308
sg7226
S'7'
p7309
sg7228
g295
sg40
(lp7310
sg8
I0
sg7230
S'gaytan said navy patrol boats, fishing vessels and private craft have been searching the bay for survivors and recovering bodies.'
p7311
sg7232
(lp7312
g295
aI0
asg9
I7
sg7234
(lp7313
(i__main__
sxpContext
p7314
(dp7315
g7238
(lp7316
g29
asg8
I0
sg9
I7
sg10
I7
sbasba(i__main__
sxpPara
p7317
(dp7318
g2
(lp7319
sg7226
S'8'
p7320
sg7228
g295
sg40
(lp7321
sg8
I0
sg7230
S'he said he had no other details on the shipwreck.'
p7322
sg7232
(lp7323
g295
aI0
asg9
I8
sg7234
(lp7324
(i__main__
sxpContext
p7325
(dp7326
g7238
(lp7327
g32
asg8
I0
sg9
I8
sg10
I8
sbasba(i__main__
sxpPara
p7328
(dp7329
g2
(lp7330
sg7226
S'9'
p7331
sg7228
g295
sg40
(lp7332
sg8
I0
sg7230
S"puerto barrios, 187 miles northeast of the capital, is guatemala's principal east coast port."
p7333
sg7232
(lp7334
g295
aI0
asg9
I9
sg7234
(lp7335
(i__main__
sxpContext
p7336
(dp7337
g7238
(lp7338
g35
asg8
I0
sg9
I9
sg10
I9
sbasbasg7234
(lp7339
g7236
ag7248
ag7259
ag7270
ag7281
ag7292
ag7303
ag7314
ag7325
ag7336
asS'whole_sectitle'
p7340
g39
sS'whole_text'
p7341
S"\na passenger ferry sank off the caribbean coast while being towed to port, and 59 people drowned and six are missing, authorities and news reports said today.\ncapt. anibal giron arreola, a spokesman at the puerto barrios naval base, said the ferry justo rufino barrios ii sank sunday afternoon in amatique bay. he said by telephone that 59 people died.\njuan jose gaytan, a reporter at radio portena in puerto barrios, said the justo rufineo barrios ii ran out of fuel midway on a regular 16-mile run from the town livingston, across the bay, to puerto barrios.\ngaytan said the boat sank while it was being towed by a tugboat.\nthe spanish embassy in guatemala city confirmed the sinking and said a 40-year-old spanish citizen, vicente daudi, was among the dead. the embassy reported his wife, rosa maria arnal, and a son survived the shipwreck, but two daughters were missing.\ndaudi was working with a spanish technical aid and economic development mission in guatemala, the embassy said.\nan official at the puerto barrios morgue said 13 bodies have been identified. besides daudi, the nationalities of the victims were not immediately known.\ngaytan said navy patrol boats, fishing vessels and private craft have been searching the bay for survivors and recovering bodies.\nhe said he had no other details on the shipwreck.\npuerto barrios, 187 miles northeast of the capital, is guatemala's principal east coast port."
p7342
sS'd_c'
p7343
g44
(g45
g46
Ntp7344
Rp7345
(dp7346
g50
S'csr'
p7347
sg52
(I1
I1
tp7348
sg54
g55
(g56
(I0
tp7349
g58
tp7350
Rp7351
(I1
(I2
tp7352
g65
I00
S'\x00\x00\x00\x00\x01\x00\x00\x00'
p7353
tp7354
bsg70
g55
(g56
(I0
tp7355
g58
tp7356
Rp7357
(I1
(I1
tp7358
g65
I00
S'\x00\x00\x00\x00'
p7359
tp7360
bsg77
I50
sg78
g55
(g56
(I0
tp7361
g58
tp7362
Rp7363
(I1
(I1
tp7364
g85
I00
S'\x00\x00\x00\x00\x00\x00\xf0?'
p7365
tp7366
bsbsb.