(lp0
V---------------------------------------------\u000a10 ROUGE-1 Average_R: 0.42447 (95%-conf.int. 0.41200 - 0.43752)\u000a10 ROUGE-1 Average_P: 0.44479 (95%-conf.int. 0.43460 - 0.45575)\u000a10 ROUGE-1 Average_F: 0.42610 (95%-conf.int. 0.41490 - 0.43695)\u000a---------------------------------------------\u000a10 ROUGE-2 Average_R: 0.17802 (95%-conf.int. 0.16688 - 0.18951)\u000a10 ROUGE-2 Average_P: 0.18543 (95%-conf.int. 0.17504 - 0.19594)\u000a10 ROUGE-2 Average_F: 0.17813 (95%-conf.int. 0.16778 - 0.18871)\u000a---------------------------------------------\u000a10 ROUGE-3 Average_R: 0.11140 (95%-conf.int. 0.10297 - 0.12102)\u000a10 ROUGE-3 Average_P: 0.11550 (95%-conf.int. 0.10680 - 0.12495)\u000a10 ROUGE-3 Average_F: 0.11134 (95%-conf.int. 0.10299 - 0.12040)\u000a---------------------------------------------\u000a10 ROUGE-4 Average_R: 0.08121 (95%-conf.int. 0.07405 - 0.08931)\u000a10 ROUGE-4 Average_P: 0.08445 (95%-conf.int. 0.07697 - 0.09241)\u000a10 ROUGE-4 Average_F: 0.08119 (95%-conf.int. 0.07417 - 0.08908)\u000a---------------------------------------------\u000a10 ROUGE-L Average_R: 0.38917 (95%-conf.int. 0.37708 - 0.40195)\u000a10 ROUGE-L Average_P: 0.40755 (95%-conf.int. 0.39761 - 0.41816)\u000a10 ROUGE-L Average_F: 0.39054 (95%-conf.int. 0.37984 - 0.40148)\u000a
p1
a.