(dp0
S'02'
p1
(dp2
sS'03'
p3
(dp4
sS'01'
p5
(dp6
VROUGE-L
p7
(lp8
(lp9
VAverage_R
p10
aV0.42736
p11
aV0.41540
p12
aV0.43895
p13
aa(lp14
VAverage_P
p15
aV0.42745
p16
aV0.41870
p17
aV0.43724
p18
aa(lp19
VAverage_F
p20
aV0.42257
p21
aV0.41323
p22
aV0.43218
p23
aasVROUGE-4
p24
(lp25
(lp26
VAverage_R
p27
aV0.09464
p28
aV0.08686
p29
aV0.10327
p30
aa(lp31
VAverage_P
p32
aV0.09340
p33
aV0.08650
p34
aV0.10115
p35
aa(lp36
VAverage_F
p37
aV0.09282
p38
aV0.08560
p39
aV0.10057
p40
aasVROUGE-2
p41
(lp42
(lp43
VAverage_R
p44
aV0.20678
p45
aV0.19570
p46
aV0.21841
p47
aa(lp48
VAverage_P
p49
aV0.20528
p50
aV0.19543
p51
aV0.21575
p52
aa(lp53
VAverage_F
p54
aV0.20359
p55
aV0.19372
p56
aV0.21404
p57
aasVROUGE-3
p58
(lp59
(lp60
VAverage_R
p61
aV0.13070
p62
aV0.12144
p63
aV0.14066
p64
aa(lp65
VAverage_P
p66
aV0.12931
p67
aV0.12129
p68
aV0.13836
p69
aa(lp70
VAverage_F
p71
aV0.12841
p72
aV0.12005
p73
aV0.13744
p74
aasVROUGE-1
p75
(lp76
(lp77
VAverage_R
p78
aV0.45984
p79
aV0.44748
p80
aV0.47198
p81
aa(lp82
VAverage_P
p83
aV0.46027
p84
aV0.45088
p85
aV0.47061
p86
aa(lp87
VAverage_F
p88
aV0.45484
p89
aV0.44509
p90
aV0.46498
p91
aassS'04'
p92
(dp93
sS'05'
p94
(dp95
sS'08'
p96
(dp97
VROUGE-L
p98
(lp99
(lp100
VAverage_R
p101
aV0.41549
p102
aV0.40359
p103
aV0.42669
p104
aa(lp105
VAverage_P
p106
aV0.42349
p107
aV0.41355
p108
aV0.43357
p109
aa(lp110
VAverage_F
p111
aV0.41462
p112
aV0.40439
p113
aV0.42490
p114
aasVROUGE-4
p115
(lp116
(lp117
VAverage_R
p118
aV0.09041
p119
aV0.08263
p120
aV0.09876
p121
aa(lp122
VAverage_P
p123
aV0.09053
p124
aV0.08305
p125
aV0.09837
p126
aa(lp127
VAverage_F
p128
aV0.08930
p129
aV0.08174
p130
aV0.09740
p131
aasVROUGE-2
p132
(lp133
(lp134
VAverage_R
p135
aV0.19686
p136
aV0.18568
p137
aV0.20832
p138
aa(lp139
VAverage_P
p140
aV0.19928
p141
aV0.18951
p142
aV0.21001
p143
aa(lp144
VAverage_F
p145
aV0.19569
p146
aV0.18540
p147
aV0.20665
p148
aasVROUGE-3
p149
(lp150
(lp151
VAverage_R
p152
aV0.12440
p153
aV0.11505
p154
aV0.13420
p155
aa(lp156
VAverage_P
p157
aV0.12515
p158
aV0.11658
p159
aV0.13465
p160
aa(lp161
VAverage_F
p162
aV0.12324
p163
aV0.11419
p164
aV0.13261
p165
aasVROUGE-1
p166
(lp167
(lp168
VAverage_R
p169
aV0.44838
p170
aV0.43613
p171
aV0.46063
p172
aa(lp173
VAverage_P
p174
aV0.45721
p175
aV0.44687
p176
aV0.46765
p177
aa(lp178
VAverage_F
p179
aV0.44752
p180
aV0.43730
p181
aV0.45800
p182
aassS'10'
p183
(dp184
VROUGE-L
p185
(lp186
(lp187
VAverage_R
p188
aV0.38917
p189
aV0.37708
p190
aV0.40195
p191
aa(lp192
VAverage_P
p193
aV0.40755
p194
aV0.39761
p195
aV0.41816
p196
aa(lp197
VAverage_F
p198
aV0.39054
p199
aV0.37984
p200
aV0.40148
p201
aasVROUGE-4
p202
(lp203
(lp204
VAverage_R
p205
aV0.08121
p206
aV0.07405
p207
aV0.08931
p208
aa(lp209
VAverage_P
p210
aV0.08445
p211
aV0.07697
p212
aV0.09241
p213
aa(lp214
VAverage_F
p215
aV0.08119
p216
aV0.07417
p217
aV0.08908
p218
aasVROUGE-2
p219
(lp220
(lp221
VAverage_R
p222
aV0.17802
p223
aV0.16688
p224
aV0.18951
p225
aa(lp226
VAverage_P
p227
aV0.18543
p228
aV0.17504
p229
aV0.19594
p230
aa(lp231
VAverage_F
p232
aV0.17813
p233
aV0.16778
p234
aV0.18871
p235
aasVROUGE-3
p236
(lp237
(lp238
VAverage_R
p239
aV0.11140
p240
aV0.10297
p241
aV0.12102
p242
aa(lp243
VAverage_P
p244
aV0.11550
p245
aV0.10680
p246
aV0.12495
p247
aa(lp248
VAverage_F
p249
aV0.11134
p250
aV0.10299
p251
aV0.12040
p252
aasVROUGE-1
p253
(lp254
(lp255
VAverage_R
p256
aV0.42447
p257
aV0.41200
p258
aV0.43752
p259
aa(lp260
VAverage_P
p261
aV0.44479
p262
aV0.43460
p263
aV0.45575
p264
aa(lp265
VAverage_F
p266
aV0.42610
p267
aV0.41490
p268
aV0.43695
p269
aass.