(dp0
S'02'
p1
(dp2
sS'03'
p3
(dp4
sS'01'
p5
(dp6
VROUGE-L
p7
(lp8
(lp9
VAverage_R
p10
aV0.42736
p11
aV0.41540
p12
aV0.43895
p13
aa(lp14
VAverage_P
p15
aV0.42745
p16
aV0.41870
p17
aV0.43724
p18
aa(lp19
VAverage_F
p20
aV0.42257
p21
aV0.41323
p22
aV0.43218
p23
aasVROUGE-4
p24
(lp25
(lp26
VAverage_R
p27
aV0.09464
p28
aV0.08686
p29
aV0.10327
p30
aa(lp31
VAverage_P
p32
aV0.09340
p33
aV0.08650
p34
aV0.10115
p35
aa(lp36
VAverage_F
p37
aV0.09282
p38
aV0.08560
p39
aV0.10057
p40
aasVROUGE-2
p41
(lp42
(lp43
VAverage_R
p44
aV0.20678
p45
aV0.19570
p46
aV0.21841
p47
aa(lp48
VAverage_P
p49
aV0.20528
p50
aV0.19543
p51
aV0.21575
p52
aa(lp53
VAverage_F
p54
aV0.20359
p55
aV0.19372
p56
aV0.21404
p57
aasVROUGE-3
p58
(lp59
(lp60
VAverage_R
p61
aV0.13070
p62
aV0.12144
p63
aV0.14066
p64
aa(lp65
VAverage_P
p66
aV0.12931
p67
aV0.12129
p68
aV0.13836
p69
aa(lp70
VAverage_F
p71
aV0.12841
p72
aV0.12005
p73
aV0.13744
p74
aasVROUGE-1
p75
(lp76
(lp77
VAverage_R
p78
aV0.45984
p79
aV0.44748
p80
aV0.47198
p81
aa(lp82
VAverage_P
p83
aV0.46027
p84
aV0.45088
p85
aV0.47061
p86
aa(lp87
VAverage_F
p88
aV0.45484
p89
aV0.44509
p90
aV0.46498
p91
aassS'04'
p92
(dp93
sS'05'
p94
(dp95
sS'08'
p96
(dp97
VROUGE-L
p98
(lp99
(lp100
VAverage_R
p101
aV0.41549
p102
aV0.40359
p103
aV0.42669
p104
aa(lp105
VAverage_P
p106
aV0.42349
p107
aV0.41355
p108
aV0.43357
p109
aa(lp110
VAverage_F
p111
aV0.41462
p112
aV0.40439
p113
aV0.42490
p114
aasVROUGE-4
p115
(lp116
(lp117
VAverage_R
p118
aV0.09041
p119
aV0.08263
p120
aV0.09876
p121
aa(lp122
VAverage_P
p123
aV0.09053
p124
aV0.08305
p125
aV0.09837
p126
aa(lp127
VAverage_F
p128
aV0.08930
p129
aV0.08174
p130
aV0.09740
p131
aasVROUGE-2
p132
(lp133
(lp134
VAverage_R
p135
aV0.19686
p136
aV0.18568
p137
aV0.20832
p138
aa(lp139
VAverage_P
p140
aV0.19928
p141
aV0.18951
p142
aV0.21001
p143
aa(lp144
VAverage_F
p145
aV0.19569
p146
aV0.18540
p147
aV0.20665
p148
aasVROUGE-3
p149
(lp150
(lp151
VAverage_R
p152
aV0.12440
p153
aV0.11505
p154
aV0.13420
p155
aa(lp156
VAverage_P
p157
aV0.12515
p158
aV0.11658
p159
aV0.13465
p160
aa(lp161
VAverage_F
p162
aV0.12324
p163
aV0.11419
p164
aV0.13261
p165
aasVROUGE-1
p166
(lp167
(lp168
VAverage_R
p169
aV0.44838
p170
aV0.43613
p171
aV0.46063
p172
aa(lp173
VAverage_P
p174
aV0.45721
p175
aV0.44687
p176
aV0.46765
p177
aa(lp178
VAverage_F
p179
aV0.44752
p180
aV0.43730
p181
aV0.45800
p182
aassV09
p183
(dp184
VROUGE-L
p185
(lp186
(lp187
VAverage_R
p188
aV0.42960
p189
aV0.41889
p190
aV0.44041
p191
aa(lp192
VAverage_P
p193
aV0.36887
p194
aV0.35923
p195
aV0.37850
p196
aa(lp197
VAverage_F
p198
aV0.39549
p199
aV0.38597
p200
aV0.40593
p201
aasVROUGE-4
p202
(lp203
(lp204
VAverage_R
p205
aV0.08685
p206
aV0.07839
p207
aV0.09490
p208
aa(lp209
VAverage_P
p210
aV0.07459
p211
aV0.06728
p212
aV0.08173
p213
aa(lp214
VAverage_F
p215
aV0.07994
p216
aV0.07220
p217
aV0.08757
p218
aasVROUGE-2
p219
(lp220
(lp221
VAverage_R
p222
aV0.19115
p223
aV0.17943
p224
aV0.20228
p225
aa(lp226
VAverage_P
p227
aV0.16433
p228
aV0.15448
p229
aV0.17446
p230
aa(lp231
VAverage_F
p232
aV0.17604
p233
aV0.16542
p234
aV0.18666
p235
aasVROUGE-3
p236
(lp237
(lp238
VAverage_R
p239
aV0.11891
p240
aV0.10899
p241
aV0.12848
p242
aa(lp243
VAverage_P
p244
aV0.10223
p245
aV0.09339
p246
aV0.11053
p247
aa(lp248
VAverage_F
p249
aV0.10950
p250
aV0.10024
p251
aV0.11816
p252
aasVROUGE-1
p253
(lp254
(lp255
VAverage_R
p256
aV0.46990
p257
aV0.45926
p258
aV0.48092
p259
aa(lp260
VAverage_P
p261
aV0.40330
p262
aV0.39363
p263
aV0.41326
p264
aa(lp265
VAverage_F
p266
aV0.43249
p267
aV0.42299
p268
aV0.44274
p269
aassS'10'
p270
(dp271
VROUGE-L
p272
(lp273
(lp274
VAverage_R
p275
aV0.38917
p276
aV0.37708
p277
aV0.40195
p278
aa(lp279
VAverage_P
p280
aV0.40755
p281
aV0.39761
p282
aV0.41816
p283
aa(lp284
VAverage_F
p285
aV0.39054
p286
aV0.37984
p287
aV0.40148
p288
aasVROUGE-4
p289
(lp290
(lp291
VAverage_R
p292
aV0.08121
p293
aV0.07405
p294
aV0.08931
p295
aa(lp296
VAverage_P
p297
aV0.08445
p298
aV0.07697
p299
aV0.09241
p300
aa(lp301
VAverage_F
p302
aV0.08119
p303
aV0.07417
p304
aV0.08908
p305
aasVROUGE-2
p306
(lp307
(lp308
VAverage_R
p309
aV0.17802
p310
aV0.16688
p311
aV0.18951
p312
aa(lp313
VAverage_P
p314
aV0.18543
p315
aV0.17504
p316
aV0.19594
p317
aa(lp318
VAverage_F
p319
aV0.17813
p320
aV0.16778
p321
aV0.18871
p322
aasVROUGE-3
p323
(lp324
(lp325
VAverage_R
p326
aV0.11140
p327
aV0.10297
p328
aV0.12102
p329
aa(lp330
VAverage_P
p331
aV0.11550
p332
aV0.10680
p333
aV0.12495
p334
aa(lp335
VAverage_F
p336
aV0.11134
p337
aV0.10299
p338
aV0.12040
p339
aasVROUGE-1
p340
(lp341
(lp342
VAverage_R
p343
aV0.42447
p344
aV0.41200
p345
aV0.43752
p346
aa(lp347
VAverage_P
p348
aV0.44479
p349
aV0.43460
p350
aV0.45575
p351
aa(lp352
VAverage_F
p353
aV0.42610
p354
aV0.41490
p355
aV0.43695
p356
aass.