(dp0
S'10'
p1
(dp2
VROUGE-L
p3
(lp4
(lp5
VAverage_R
p6
aV0.38917
p7
aV0.37708
p8
aV0.40195
p9
aa(lp10
VAverage_P
p11
aV0.40755
p12
aV0.39761
p13
aV0.41816
p14
aa(lp15
VAverage_F
p16
aV0.39054
p17
aV0.37984
p18
aV0.40148
p19
aasVROUGE-4
p20
(lp21
(lp22
VAverage_R
p23
aV0.08121
p24
aV0.07405
p25
aV0.08931
p26
aa(lp27
VAverage_P
p28
aV0.08445
p29
aV0.07697
p30
aV0.09241
p31
aa(lp32
VAverage_F
p33
aV0.08119
p34
aV0.07417
p35
aV0.08908
p36
aasVROUGE-2
p37
(lp38
(lp39
VAverage_R
p40
aV0.17802
p41
aV0.16688
p42
aV0.18951
p43
aa(lp44
VAverage_P
p45
aV0.18543
p46
aV0.17504
p47
aV0.19594
p48
aa(lp49
VAverage_F
p50
aV0.17813
p51
aV0.16778
p52
aV0.18871
p53
aasVROUGE-3
p54
(lp55
(lp56
VAverage_R
p57
aV0.11140
p58
aV0.10297
p59
aV0.12102
p60
aa(lp61
VAverage_P
p62
aV0.11550
p63
aV0.10680
p64
aV0.12495
p65
aa(lp66
VAverage_F
p67
aV0.11134
p68
aV0.10299
p69
aV0.12040
p70
aasVROUGE-1
p71
(lp72
(lp73
VAverage_R
p74
aV0.42447
p75
aV0.41200
p76
aV0.43752
p77
aa(lp78
VAverage_P
p79
aV0.44479
p80
aV0.43460
p81
aV0.45575
p82
aa(lp83
VAverage_F
p84
aV0.42610
p85
aV0.41490
p86
aV0.43695
p87
aassS'08'
p88
(dp89
VROUGE-L
p90
(lp91
(lp92
VAverage_R
p93
aV0.41549
p94
aV0.40359
p95
aV0.42669
p96
aa(lp97
VAverage_P
p98
aV0.42349
p99
aV0.41355
p100
aV0.43357
p101
aa(lp102
VAverage_F
p103
aV0.41462
p104
aV0.40439
p105
aV0.42490
p106
aasVROUGE-4
p107
(lp108
(lp109
VAverage_R
p110
aV0.09041
p111
aV0.08263
p112
aV0.09876
p113
aa(lp114
VAverage_P
p115
aV0.09053
p116
aV0.08305
p117
aV0.09837
p118
aa(lp119
VAverage_F
p120
aV0.08930
p121
aV0.08174
p122
aV0.09740
p123
aasVROUGE-2
p124
(lp125
(lp126
VAverage_R
p127
aV0.19686
p128
aV0.18568
p129
aV0.20832
p130
aa(lp131
VAverage_P
p132
aV0.19928
p133
aV0.18951
p134
aV0.21001
p135
aa(lp136
VAverage_F
p137
aV0.19569
p138
aV0.18540
p139
aV0.20665
p140
aasVROUGE-3
p141
(lp142
(lp143
VAverage_R
p144
aV0.12440
p145
aV0.11505
p146
aV0.13420
p147
aa(lp148
VAverage_P
p149
aV0.12515
p150
aV0.11658
p151
aV0.13465
p152
aa(lp153
VAverage_F
p154
aV0.12324
p155
aV0.11419
p156
aV0.13261
p157
aasVROUGE-1
p158
(lp159
(lp160
VAverage_R
p161
aV0.44838
p162
aV0.43613
p163
aV0.46063
p164
aa(lp165
VAverage_P
p166
aV0.45721
p167
aV0.44687
p168
aV0.46765
p169
aa(lp170
VAverage_F
p171
aV0.44752
p172
aV0.43730
p173
aV0.45800
p174
aassS'01'
p175
(dp176
VROUGE-L
p177
(lp178
(lp179
VAverage_R
p180
aV0.42736
p181
aV0.41540
p182
aV0.43895
p183
aa(lp184
VAverage_P
p185
aV0.42745
p186
aV0.41870
p187
aV0.43724
p188
aa(lp189
VAverage_F
p190
aV0.42257
p191
aV0.41323
p192
aV0.43218
p193
aasVROUGE-4
p194
(lp195
(lp196
VAverage_R
p197
aV0.09464
p198
aV0.08686
p199
aV0.10327
p200
aa(lp201
VAverage_P
p202
aV0.09340
p203
aV0.08650
p204
aV0.10115
p205
aa(lp206
VAverage_F
p207
aV0.09282
p208
aV0.08560
p209
aV0.10057
p210
aasVROUGE-2
p211
(lp212
(lp213
VAverage_R
p214
aV0.20678
p215
aV0.19570
p216
aV0.21841
p217
aa(lp218
VAverage_P
p219
aV0.20528
p220
aV0.19543
p221
aV0.21575
p222
aa(lp223
VAverage_F
p224
aV0.20359
p225
aV0.19372
p226
aV0.21404
p227
aasVROUGE-3
p228
(lp229
(lp230
VAverage_R
p231
aV0.13070
p232
aV0.12144
p233
aV0.14066
p234
aa(lp235
VAverage_P
p236
aV0.12931
p237
aV0.12129
p238
aV0.13836
p239
aa(lp240
VAverage_F
p241
aV0.12841
p242
aV0.12005
p243
aV0.13744
p244
aasVROUGE-1
p245
(lp246
(lp247
VAverage_R
p248
aV0.45984
p249
aV0.44748
p250
aV0.47198
p251
aa(lp252
VAverage_P
p253
aV0.46027
p254
aV0.45088
p255
aV0.47061
p256
aa(lp257
VAverage_F
p258
aV0.45484
p259
aV0.44509
p260
aV0.46498
p261
aassS'09'
p262
(dp263
VROUGE-L
p264
(lp265
(lp266
VAverage_R
p267
aV0.42960
p268
aV0.41889
p269
aV0.44041
p270
aa(lp271
VAverage_P
p272
aV0.36887
p273
aV0.35923
p274
aV0.37850
p275
aa(lp276
VAverage_F
p277
aV0.39549
p278
aV0.38597
p279
aV0.40593
p280
aasVROUGE-4
p281
(lp282
(lp283
VAverage_R
p284
aV0.08685
p285
aV0.07839
p286
aV0.09490
p287
aa(lp288
VAverage_P
p289
aV0.07459
p290
aV0.06728
p291
aV0.08173
p292
aa(lp293
VAverage_F
p294
aV0.07994
p295
aV0.07220
p296
aV0.08757
p297
aasVROUGE-2
p298
(lp299
(lp300
VAverage_R
p301
aV0.19115
p302
aV0.17943
p303
aV0.20228
p304
aa(lp305
VAverage_P
p306
aV0.16433
p307
aV0.15448
p308
aV0.17446
p309
aa(lp310
VAverage_F
p311
aV0.17604
p312
aV0.16542
p313
aV0.18666
p314
aasVROUGE-3
p315
(lp316
(lp317
VAverage_R
p318
aV0.11891
p319
aV0.10899
p320
aV0.12848
p321
aa(lp322
VAverage_P
p323
aV0.10223
p324
aV0.09339
p325
aV0.11053
p326
aa(lp327
VAverage_F
p328
aV0.10950
p329
aV0.10024
p330
aV0.11816
p331
aasVROUGE-1
p332
(lp333
(lp334
VAverage_R
p335
aV0.46990
p336
aV0.45926
p337
aV0.48092
p338
aa(lp339
VAverage_P
p340
aV0.40330
p341
aV0.39363
p342
aV0.41326
p343
aa(lp344
VAverage_F
p345
aV0.43249
p346
aV0.42299
p347
aV0.44274
p348
aass.