(dp0
S'10'
p1
(dp2
VROUGE-L
p3
(lp4
(lp5
VAverage_R
p6
aV0.25620
p7
aV0.24032
p8
aV0.27134
p9
aa(lp10
VAverage_P
p11
aV0.32283
p12
aV0.30539
p13
aV0.34056
p14
aa(lp15
VAverage_F
p16
aV0.26716
p17
aV0.25422
p18
aV0.28071
p19
aasVROUGE-4
p20
(lp21
(lp22
VAverage_R
p23
aV0.01000
p24
aV0.00727
p25
aV0.01316
p26
aa(lp27
VAverage_P
p28
aV0.01063
p29
aV0.00788
p30
aV0.01378
p31
aa(lp32
VAverage_F
p33
aV0.00983
p34
aV0.00722
p35
aV0.01271
p36
aasVROUGE-2
p37
(lp38
(lp39
VAverage_R
p40
aV0.06406
p41
aV0.05750
p42
aV0.07082
p43
aa(lp44
VAverage_P
p45
aV0.07595
p46
aV0.06856
p47
aV0.08376
p48
aa(lp49
VAverage_F
p50
aV0.06592
p51
aV0.05939
p52
aV0.07276
p53
aasVROUGE-3
p54
(lp55
(lp56
VAverage_R
p57
aV0.02132
p58
aV0.01743
p59
aV0.02551
p60
aa(lp61
VAverage_P
p62
aV0.02374
p63
aV0.01975
p64
aV0.02850
p65
aa(lp66
VAverage_F
p67
aV0.02147
p68
aV0.01775
p69
aV0.02541
p70
aasVROUGE-1
p71
(lp72
(lp73
VAverage_R
p74
aV0.29744
p75
aV0.27920
p76
aV0.31544
p77
aa(lp78
VAverage_P
p79
aV0.37242
p80
aV0.35394
p81
aV0.39063
p82
aa(lp83
VAverage_F
p84
aV0.31003
p85
aV0.29540
p86
aV0.32512
p87
aassS'08'
p88
(dp89
VROUGE-L
p90
(lp91
(lp92
VAverage_R
p93
aV0.29531
p94
aV0.28214
p95
aV0.30805
p96
aa(lp97
VAverage_P
p98
aV0.36080
p99
aV0.34458
p100
aV0.37841
p101
aa(lp102
VAverage_F
p103
aV0.31024
p104
aV0.29830
p105
aV0.32282
p106
aasVROUGE-4
p107
(lp108
(lp109
VAverage_R
p110
aV0.01425
p111
aV0.01127
p112
aV0.01761
p113
aa(lp114
VAverage_P
p115
aV0.01665
p116
aV0.01311
p117
aV0.02080
p118
aa(lp119
VAverage_F
p120
aV0.01485
p121
aV0.01176
p122
aV0.01849
p123
aasVROUGE-2
p124
(lp125
(lp126
VAverage_R
p127
aV0.08377
p128
aV0.07632
p129
aV0.09109
p130
aa(lp131
VAverage_P
p132
aV0.09971
p133
aV0.09091
p134
aV0.10884
p135
aa(lp136
VAverage_F
p137
aV0.08784
p138
aV0.08001
p139
aV0.09559
p140
aasVROUGE-3
p141
(lp142
(lp143
VAverage_R
p144
aV0.02990
p145
aV0.02542
p146
aV0.03451
p147
aa(lp148
VAverage_P
p149
aV0.03514
p150
aV0.02979
p151
aV0.04102
p152
aa(lp153
VAverage_F
p154
aV0.03126
p155
aV0.02656
p156
aV0.03617
p157
aasVROUGE-1
p158
(lp159
(lp160
VAverage_R
p161
aV0.33418
p162
aV0.31946
p163
aV0.34811
p164
aa(lp165
VAverage_P
p166
aV0.40688
p167
aV0.38988
p168
aV0.42534
p169
aa(lp170
VAverage_F
p171
aV0.35063
p172
aV0.33743
p173
aV0.36411
p174
aassS'01'
p175
(dp176
VROUGE-L
p177
(lp178
(lp179
VAverage_R
p180
aV0.28738
p181
aV0.27423
p182
aV0.30219
p183
aa(lp184
VAverage_P
p185
aV0.35108
p186
aV0.33456
p187
aV0.36879
p188
aa(lp189
VAverage_F
p190
aV0.30145
p191
aV0.28912
p192
aV0.31367
p193
aasVROUGE-4
p194
(lp195
(lp196
VAverage_R
p197
aV0.01481
p198
aV0.01117
p199
aV0.01885
p200
aa(lp201
VAverage_P
p202
aV0.01793
p203
aV0.01383
p204
aV0.02252
p205
aa(lp206
VAverage_F
p207
aV0.01539
p208
aV0.01179
p209
aV0.01932
p210
aasVROUGE-2
p211
(lp212
(lp213
VAverage_R
p214
aV0.08039
p215
aV0.07256
p216
aV0.08925
p217
aa(lp218
VAverage_P
p219
aV0.09703
p220
aV0.08762
p221
aV0.10704
p222
aa(lp223
VAverage_F
p224
aV0.08425
p225
aV0.07643
p226
aV0.09251
p227
aasVROUGE-3
p228
(lp229
(lp230
VAverage_R
p231
aV0.03023
p232
aV0.02539
p233
aV0.03600
p234
aa(lp235
VAverage_P
p236
aV0.03659
p237
aV0.03052
p238
aV0.04320
p239
aa(lp240
VAverage_F
p241
aV0.03164
p242
aV0.02663
p243
aV0.03710
p244
aasVROUGE-1
p245
(lp246
(lp247
VAverage_R
p248
aV0.32420
p249
aV0.30898
p250
aV0.34052
p251
aa(lp252
VAverage_P
p253
aV0.39484
p254
aV0.37717
p255
aV0.41310
p256
aa(lp257
VAverage_F
p258
aV0.33984
p259
aV0.32611
p260
aV0.35354
p261
aassS'09'
p262
(dp263
VROUGE-L
p264
(lp265
(lp266
VAverage_R
p267
aV0.29589
p268
aV0.28237
p269
aV0.31000
p270
aa(lp271
VAverage_P
p272
aV0.36503
p273
aV0.34716
p274
aV0.38269
p275
aa(lp276
VAverage_F
p277
aV0.31070
p278
aV0.29784
p279
aV0.32323
p280
aasVROUGE-4
p281
(lp282
(lp283
VAverage_R
p284
aV0.01572
p285
aV0.01239
p286
aV0.01912
p287
aa(lp288
VAverage_P
p289
aV0.01903
p290
aV0.01494
p291
aV0.02376
p292
aa(lp293
VAverage_F
p294
aV0.01646
p295
aV0.01312
p296
aV0.01980
p297
aasVROUGE-2
p298
(lp299
(lp300
VAverage_R
p301
aV0.08581
p302
aV0.07840
p303
aV0.09377
p304
aa(lp305
VAverage_P
p306
aV0.10462
p307
aV0.09527
p308
aV0.11444
p309
aa(lp310
VAverage_F
p311
aV0.09004
p312
aV0.08226
p313
aV0.09805
p314
aasVROUGE-3
p315
(lp316
(lp317
VAverage_R
p318
aV0.03226
p319
aV0.02750
p320
aV0.03721
p321
aa(lp322
VAverage_P
p323
aV0.03887
p324
aV0.03294
p325
aV0.04566
p326
aa(lp327
VAverage_F
p328
aV0.03387
p329
aV0.02898
p330
aV0.03882
p331
aasVROUGE-1
p332
(lp333
(lp334
VAverage_R
p335
aV0.33428
p336
aV0.31903
p337
aV0.35004
p338
aa(lp339
VAverage_P
p340
aV0.41112
p341
aV0.39296
p342
aV0.42931
p343
aa(lp344
VAverage_F
p345
aV0.35078
p346
aV0.33714
p347
aV0.36401
p348
aass.