(dp0
Vrougetxthead
p1
S'inc_abs'
p2
sVuseabstr
p3
I1
sVtopksent
p4
I5
sVmodel_test
p5
(lp6
S'mymodel'
p7
aS'tfidf'
p8
aS'graphb'
p9
aS'graphw'
p10
aS'context1'
p11
aS'mysecmodel'
p12
aS'myseccontextmodel'
p13
aS'hybrid'
p14
aS'sectitle'
p15
aS'mywordgraph'
p16
asVplotwho
p17
S'acl_inc'
p18
sVmaxword
p19
I100
sVstrictmax
p20
I1
sVoutdir
p21
S'E:\\pythonworknew\\code\\tjrank_sentences\\context\\result\\r3'
p22
s.