(dp0
S'10'
p1
(dp2
VROUGE-L
p3
(lp4
(lp5
VAverage_R
p6
aV0.29889
p7
aV0.27849
p8
aV0.31878
p9
aa(lp10
VAverage_P
p11
aV0.36258
p12
aV0.34434
p13
aV0.38307
p14
aa(lp15
VAverage_F
p16
aV0.30644
p17
aV0.28948
p18
aV0.32379
p19
aasVROUGE-4
p20
(lp21
(lp22
VAverage_R
p23
aV0.06283
p24
aV0.04971
p25
aV0.07556
p26
aa(lp27
VAverage_P
p28
aV0.06927
p29
aV0.05483
p30
aV0.08292
p31
aa(lp32
VAverage_F
p33
aV0.06245
p34
aV0.05020
p35
aV0.07426
p36
aasVROUGE-2
p37
(lp38
(lp39
VAverage_R
p40
aV0.11749
p41
aV0.10219
p42
aV0.13197
p43
aa(lp44
VAverage_P
p45
aV0.13327
p46
aV0.11661
p47
aV0.14928
p48
aa(lp49
VAverage_F
p50
aV0.11853
p51
aV0.10483
p52
aV0.13212
p53
aasVROUGE-3
p54
(lp55
(lp56
VAverage_R
p57
aV0.07508
p58
aV0.06135
p59
aV0.08824
p60
aa(lp61
VAverage_P
p62
aV0.08333
p63
aV0.06785
p64
aV0.09757
p65
aa(lp66
VAverage_F
p67
aV0.07489
p68
aV0.06195
p69
aV0.08744
p70
aasVROUGE-1
p71
(lp72
(lp73
VAverage_R
p74
aV0.33795
p75
aV0.31657
p76
aV0.35919
p77
aa(lp78
VAverage_P
p79
aV0.41006
p80
aV0.39186
p81
aV0.43056
p82
aa(lp83
VAverage_F
p84
aV0.34705
p85
aV0.32941
p86
aV0.36531
p87
aassS'08'
p88
(dp89
VROUGE-L
p90
(lp91
(lp92
VAverage_R
p93
aV0.36917
p94
aV0.35157
p95
aV0.38557
p96
aa(lp97
VAverage_P
p98
aV0.44627
p99
aV0.42754
p100
aV0.46637
p101
aa(lp102
VAverage_F
p103
aV0.38738
p104
aV0.37167
p105
aV0.40291
p106
aasVROUGE-4
p107
(lp108
(lp109
VAverage_R
p110
aV0.11160
p111
aV0.09666
p112
aV0.12546
p113
aa(lp114
VAverage_P
p115
aV0.13115
p116
aV0.11472
p117
aV0.14670
p118
aa(lp119
VAverage_F
p120
aV0.11610
p121
aV0.10166
p122
aV0.12954
p123
aasVROUGE-2
p124
(lp125
(lp126
VAverage_R
p127
aV0.18141
p128
aV0.16528
p129
aV0.19670
p130
aa(lp131
VAverage_P
p132
aV0.21472
p133
aV0.19723
p134
aV0.23263
p135
aa(lp136
VAverage_F
p137
aV0.18966
p138
aV0.17367
p139
aV0.20526
p140
aasVROUGE-3
p141
(lp142
(lp143
VAverage_R
p144
aV0.13043
p145
aV0.11442
p146
aV0.14484
p147
aa(lp148
VAverage_P
p149
aV0.15327
p150
aV0.13586
p151
aV0.16958
p152
aa(lp153
VAverage_F
p154
aV0.13582
p155
aV0.12040
p156
aV0.15002
p157
aasVROUGE-1
p158
(lp159
(lp160
VAverage_R
p161
aV0.40146
p162
aV0.38311
p163
aV0.41821
p164
aa(lp165
VAverage_P
p166
aV0.48472
p167
aV0.46533
p168
aV0.50482
p169
aa(lp170
VAverage_F
p171
aV0.42114
p172
aV0.40532
p173
aV0.43696
p174
aassS'01'
p175
(dp176
VROUGE-L
p177
(lp178
(lp179
VAverage_R
p180
aV0.32323
p181
aV0.30650
p182
aV0.34094
p183
aa(lp184
VAverage_P
p185
aV0.38206
p186
aV0.36347
p187
aV0.40284
p188
aa(lp189
VAverage_F
p190
aV0.33523
p191
aV0.31910
p192
aV0.35079
p193
aasVROUGE-4
p194
(lp195
(lp196
VAverage_R
p197
aV0.06341
p198
aV0.05186
p199
aV0.07584
p200
aa(lp201
VAverage_P
p202
aV0.07177
p203
aV0.06013
p204
aV0.08490
p205
aa(lp206
VAverage_F
p207
aV0.06491
p208
aV0.05393
p209
aV0.07683
p210
aasVROUGE-2
p211
(lp212
(lp213
VAverage_R
p214
aV0.12646
p215
aV0.11267
p216
aV0.14028
p217
aa(lp218
VAverage_P
p219
aV0.14597
p220
aV0.13053
p221
aV0.16227
p222
aa(lp223
VAverage_F
p224
aV0.13061
p225
aV0.11703
p226
aV0.14459
p227
aasVROUGE-3
p228
(lp229
(lp230
VAverage_R
p231
aV0.07850
p232
aV0.06617
p233
aV0.09160
p234
aa(lp235
VAverage_P
p236
aV0.08951
p237
aV0.07628
p238
aV0.10375
p239
aa(lp240
VAverage_F
p241
aV0.08068
p242
aV0.06877
p243
aV0.09347
p244
aasVROUGE-1
p245
(lp246
(lp247
VAverage_R
p248
aV0.35675
p249
aV0.33947
p250
aV0.37502
p251
aa(lp252
VAverage_P
p253
aV0.42115
p254
aV0.40106
p255
aV0.44240
p256
aa(lp257
VAverage_F
p258
aV0.36992
p259
aV0.35335
p260
aV0.38691
p261
aassS'09'
p262
(dp263
VROUGE-L
p264
(lp265
(lp266
VAverage_R
p267
aV0.35941
p268
aV0.34305
p269
aV0.37609
p270
aa(lp271
VAverage_P
p272
aV0.43259
p273
aV0.41332
p274
aV0.45433
p275
aa(lp276
VAverage_F
p277
aV0.37654
p278
aV0.36098
p279
aV0.39240
p280
aasVROUGE-4
p281
(lp282
(lp283
VAverage_R
p284
aV0.10043
p285
aV0.08788
p286
aV0.11368
p287
aa(lp288
VAverage_P
p289
aV0.11854
p290
aV0.10250
p291
aV0.13513
p292
aa(lp293
VAverage_F
p294
aV0.10491
p295
aV0.09188
p296
aV0.11898
p297
aasVROUGE-2
p298
(lp299
(lp300
VAverage_R
p301
aV0.16917
p302
aV0.15435
p303
aV0.18402
p304
aa(lp305
VAverage_P
p306
aV0.20141
p307
aV0.18415
p308
aV0.22114
p309
aa(lp310
VAverage_F
p311
aV0.17742
p312
aV0.16288
p313
aV0.19295
p314
aasVROUGE-3
p315
(lp316
(lp317
VAverage_R
p318
aV0.11853
p319
aV0.10512
p320
aV0.13263
p321
aa(lp322
VAverage_P
p323
aV0.14036
p324
aV0.12404
p325
aV0.15812
p326
aa(lp327
VAverage_F
p328
aV0.12406
p329
aV0.11053
p330
aV0.13892
p331
aasVROUGE-1
p332
(lp333
(lp334
VAverage_R
p335
aV0.39192
p336
aV0.37470
p337
aV0.40863
p338
aa(lp339
VAverage_P
p340
aV0.47130
p341
aV0.45176
p342
aV0.49298
p343
aa(lp344
VAverage_F
p345
aV0.41051
p346
aV0.39425
p347
aV0.42616
p348
aass.