(dp0
Vmodel_test
p1
(lp2
S'mymodel'
p3
aS'tfidf'
p4
aS'graphb'
p5
aS'graphw'
p6
aS'context1'
p7
aS'hybrid'
p8
aS'mywordgraph'
p9
asVuseabstr
p10
I0
sVtopksent
p11
I5
sVmaxword
p12
I100
sVrougetxthead
p13
S'duc_maxword'
p14
sVstrictmax
p15
I1
sVoutdir
p16
S'.\\context\\result\\r3'
p17
s.