(lp0
VDimensionality on Summarization
p1
aVA summarization system consisting of a multi-dimensional classification space of summary in form of semantic link network of pictures and language representations and a requirement space defined and managed by users
p2
aVStudying the summarization of pictures, videos and graphs reaches a general summarization method
p3
a.