(dp0
S'02'
p1
(dp2
VROUGE-L
p3
(lp4
(lp5
VAverage_R
p6
aV0.39021
p7
aV0.37691
p8
aV0.40306
p9
aa(lp10
VAverage_P
p11
aV0.25873
p12
aV0.24671
p13
aV0.27090
p14
aa(lp15
VAverage_F
p16
aV0.29740
p17
aV0.28712
p18
aV0.30674
p19
aasVROUGE-4
p20
(lp21
(lp22
VAverage_R
p23
aV0.01626
p24
aV0.01221
p25
aV0.02133
p26
aa(lp27
VAverage_P
p28
aV0.01091
p29
aV0.00843
p30
aV0.01380
p31
aa(lp32
VAverage_F
p33
aV0.01251
p34
aV0.00965
p35
aV0.01596
p36
aasVROUGE-2
p37
(lp38
(lp39
VAverage_R
p40
aV0.10091
p41
aV0.09320
p42
aV0.10917
p43
aa(lp44
VAverage_P
p45
aV0.06577
p46
aV0.06025
p47
aV0.07151
p48
aa(lp49
VAverage_F
p50
aV0.07602
p51
aV0.07023
p52
aV0.08208
p53
aasVROUGE-3
p54
(lp55
(lp56
VAverage_R
p57
aV0.03461
p58
aV0.02919
p59
aV0.04071
p60
aa(lp61
VAverage_P
p62
aV0.02285
p63
aV0.01943
p64
aV0.02662
p65
aa(lp66
VAverage_F
p67
aV0.02631
p68
aV0.02244
p69
aV0.03063
p70
aasVROUGE-1
p71
(lp72
(lp73
VAverage_R
p74
aV0.44908
p75
aV0.43340
p76
aV0.46453
p77
aa(lp78
VAverage_P
p79
aV0.29609
p80
aV0.28264
p81
aV0.30954
p82
aa(lp83
VAverage_F
p84
aV0.34113
p85
aV0.32974
p86
aV0.35156
p87
aassS'03'
p88
(dp89
VROUGE-L
p90
(lp91
(lp92
VAverage_R
p93
aV0.32523
p94
aV0.31383
p95
aV0.33651
p96
aa(lp97
VAverage_P
p98
aV0.32160
p99
aV0.30507
p100
aV0.33862
p101
aa(lp102
VAverage_F
p103
aV0.30916
p104
aV0.29845
p105
aV0.31982
p106
aasVROUGE-4
p107
(lp108
(lp109
VAverage_R
p110
aV0.01174
p111
aV0.00898
p112
aV0.01435
p113
aa(lp114
VAverage_P
p115
aV0.01201
p116
aV0.00914
p117
aV0.01504
p118
aa(lp119
VAverage_F
p120
aV0.01134
p121
aV0.00882
p122
aV0.01393
p123
aasVROUGE-2
p124
(lp125
(lp126
VAverage_R
p127
aV0.08198
p128
aV0.07509
p129
aV0.08882
p130
aa(lp131
VAverage_P
p132
aV0.08092
p133
aV0.07306
p134
aV0.08887
p135
aa(lp136
VAverage_F
p137
aV0.07775
p138
aV0.07123
p139
aV0.08433
p140
aasVROUGE-3
p141
(lp142
(lp143
VAverage_R
p144
aV0.02621
p145
aV0.02180
p146
aV0.03034
p147
aa(lp148
VAverage_P
p149
aV0.02622
p150
aV0.02175
p151
aV0.03070
p152
aa(lp153
VAverage_F
p154
aV0.02507
p155
aV0.02106
p156
aV0.02902
p157
aasVROUGE-1
p158
(lp159
(lp160
VAverage_R
p161
aV0.36915
p162
aV0.35582
p163
aV0.38223
p164
aa(lp165
VAverage_P
p166
aV0.36169
p167
aV0.34391
p168
aV0.37904
p169
aa(lp170
VAverage_F
p171
aV0.34923
p172
aV0.33755
p173
aV0.36076
p174
aassS'01'
p175
(dp176
VROUGE-L
p177
(lp178
(lp179
VAverage_R
p180
aV0.29769
p181
aV0.27944
p182
aV0.31444
p183
aa(lp184
VAverage_P
p185
aV0.32815
p186
aV0.30795
p187
aV0.34648
p188
aa(lp189
VAverage_F
p190
aV0.29126
p191
aV0.27505
p192
aV0.30609
p193
aasVROUGE-4
p194
(lp195
(lp196
VAverage_R
p197
aV0.01526
p198
aV0.01183
p199
aV0.01912
p200
aa(lp201
VAverage_P
p202
aV0.01752
p203
aV0.01314
p204
aV0.02247
p205
aa(lp206
VAverage_F
p207
aV0.01568
p208
aV0.01207
p209
aV0.01988
p210
aasVROUGE-2
p211
(lp212
(lp213
VAverage_R
p214
aV0.08527
p215
aV0.07653
p216
aV0.09442
p217
aa(lp218
VAverage_P
p219
aV0.09234
p220
aV0.08265
p221
aV0.10229
p222
aa(lp223
VAverage_F
p224
aV0.08389
p225
aV0.07542
p226
aV0.09260
p227
aasVROUGE-3
p228
(lp229
(lp230
VAverage_R
p231
aV0.03136
p232
aV0.02635
p233
aV0.03712
p234
aa(lp235
VAverage_P
p236
aV0.03483
p237
aV0.02836
p238
aV0.04159
p239
aa(lp240
VAverage_F
p241
aV0.03152
p242
aV0.02613
p243
aV0.03745
p244
aasVROUGE-1
p245
(lp246
(lp247
VAverage_R
p248
aV0.33622
p249
aV0.31528
p250
aV0.35573
p251
aa(lp252
VAverage_P
p253
aV0.36660
p254
aV0.34562
p255
aV0.38686
p256
aa(lp257
VAverage_F
p258
aV0.32719
p259
aV0.30916
p260
aV0.34388
p261
aassS'06'
p262
(dp263
VROUGE-L
p264
(lp265
(lp266
VAverage_R
p267
aV0.29215
p268
aV0.27605
p269
aV0.30670
p270
aa(lp271
VAverage_P
p272
aV0.32960
p273
aV0.31077
p274
aV0.34820
p275
aa(lp276
VAverage_F
p277
aV0.28916
p278
aV0.27578
p279
aV0.30199
p280
aasVROUGE-4
p281
(lp282
(lp283
VAverage_R
p284
aV0.01355
p285
aV0.01040
p286
aV0.01708
p287
aa(lp288
VAverage_P
p289
aV0.01530
p290
aV0.01142
p291
aV0.01944
p292
aa(lp293
VAverage_F
p294
aV0.01378
p295
aV0.01044
p296
aV0.01747
p297
aasVROUGE-2
p298
(lp299
(lp300
VAverage_R
p301
aV0.07896
p302
aV0.07185
p303
aV0.08624
p304
aa(lp305
VAverage_P
p306
aV0.09001
p307
aV0.08114
p308
aV0.09915
p309
aa(lp310
VAverage_F
p311
aV0.07913
p312
aV0.07187
p313
aV0.08663
p314
aasVROUGE-3
p315
(lp316
(lp317
VAverage_R
p318
aV0.02761
p319
aV0.02324
p320
aV0.03247
p321
aa(lp322
VAverage_P
p323
aV0.03144
p324
aV0.02609
p325
aV0.03719
p326
aa(lp327
VAverage_F
p328
aV0.02792
p329
aV0.02340
p330
aV0.03271
p331
aasVROUGE-1
p332
(lp333
(lp334
VAverage_R
p335
aV0.32919
p336
aV0.31069
p337
aV0.34651
p338
aa(lp339
VAverage_P
p340
aV0.36835
p341
aV0.34812
p342
aV0.38819
p343
aa(lp344
VAverage_F
p345
aV0.32443
p346
aV0.30936
p347
aV0.33827
p348
aassS'07'
p349
(dp350
VROUGE-L
p351
(lp352
(lp353
VAverage_R
p354
aV0.29842
p355
aV0.28251
p356
aV0.31257
p357
aa(lp358
VAverage_P
p359
aV0.32778
p360
aV0.30944
p361
aV0.34565
p362
aa(lp363
VAverage_F
p364
aV0.29406
p365
aV0.28127
p366
aV0.30684
p367
aasVROUGE-4
p368
(lp369
(lp370
VAverage_R
p371
aV0.01369
p372
aV0.01063
p373
aV0.01689
p374
aa(lp375
VAverage_P
p376
aV0.01505
p377
aV0.01154
p378
aV0.01888
p379
aa(lp380
VAverage_F
p381
aV0.01382
p382
aV0.01077
p383
aV0.01708
p384
aasVROUGE-2
p385
(lp386
(lp387
VAverage_R
p388
aV0.08152
p389
aV0.07350
p390
aV0.08883
p391
aa(lp392
VAverage_P
p393
aV0.09028
p394
aV0.08179
p395
aV0.09966
p396
aa(lp397
VAverage_F
p398
aV0.08109
p399
aV0.07388
p400
aV0.08852
p401
aasVROUGE-3
p402
(lp403
(lp404
VAverage_R
p405
aV0.02840
p406
aV0.02390
p407
aV0.03304
p408
aa(lp409
VAverage_P
p410
aV0.03139
p411
aV0.02632
p412
aV0.03680
p413
aa(lp414
VAverage_F
p415
aV0.02850
p416
aV0.02405
p417
aV0.03321
p418
aasVROUGE-1
p419
(lp420
(lp421
VAverage_R
p422
aV0.33663
p423
aV0.31848
p424
aV0.35276
p425
aa(lp426
VAverage_P
p427
aV0.36665
p428
aV0.34673
p429
aV0.38579
p430
aa(lp431
VAverage_F
p432
aV0.33033
p433
aV0.31560
p434
aV0.34450
p435
aassS'04'
p436
(dp437
VROUGE-L
p438
(lp439
(lp440
VAverage_R
p441
aV0.41143
p442
aV0.39950
p443
aV0.42247
p444
aa(lp445
VAverage_P
p446
aV0.25015
p447
aV0.23715
p448
aV0.26471
p449
aa(lp450
VAverage_F
p451
aV0.29792
p452
aV0.28713
p453
aV0.30888
p454
aasVROUGE-4
p455
(lp456
(lp457
VAverage_R
p458
aV0.01828
p459
aV0.01470
p460
aV0.02232
p461
aa(lp462
VAverage_P
p463
aV0.01090
p464
aV0.00868
p465
aV0.01340
p466
aa(lp467
VAverage_F
p468
aV0.01308
p469
aV0.01046
p470
aV0.01601
p471
aasVROUGE-2
p472
(lp473
(lp474
VAverage_R
p475
aV0.11722
p476
aV0.10934
p477
aV0.12504
p478
aa(lp479
VAverage_P
p480
aV0.07070
p481
aV0.06489
p482
aV0.07687
p483
aa(lp484
VAverage_F
p485
aV0.08434
p486
aV0.07821
p487
aV0.09052
p488
aasVROUGE-3
p489
(lp490
(lp491
VAverage_R
p492
aV0.04013
p493
aV0.03501
p494
aV0.04552
p495
aa(lp496
VAverage_P
p497
aV0.02407
p498
aV0.02070
p499
aV0.02777
p500
aa(lp501
VAverage_F
p502
aV0.02877
p503
aV0.02494
p504
aV0.03279
p505
aasVROUGE-1
p506
(lp507
(lp508
VAverage_R
p509
aV0.46902
p510
aV0.45594
p511
aV0.48169
p512
aa(lp513
VAverage_P
p514
aV0.28384
p515
aV0.26955
p516
aV0.29981
p517
aa(lp518
VAverage_F
p519
aV0.33875
p520
aV0.32697
p521
aV0.35018
p522
aassS'05'
p523
(dp524
VROUGE-L
p525
(lp526
(lp527
VAverage_R
p528
aV0.29620
p529
aV0.27972
p530
aV0.31205
p531
aa(lp532
VAverage_P
p533
aV0.32509
p534
aV0.30833
p535
aV0.34382
p536
aa(lp537
VAverage_F
p538
aV0.29074
p539
aV0.27729
p540
aV0.30415
p541
aasVROUGE-4
p542
(lp543
(lp544
VAverage_R
p545
aV0.01296
p546
aV0.00991
p547
aV0.01625
p548
aa(lp549
VAverage_P
p550
aV0.01414
p551
aV0.01046
p552
aV0.01853
p553
aa(lp554
VAverage_F
p555
aV0.01297
p556
aV0.00979
p557
aV0.01655
p558
aasVROUGE-2
p559
(lp560
(lp561
VAverage_R
p562
aV0.08176
p563
aV0.07387
p564
aV0.08969
p565
aa(lp566
VAverage_P
p567
aV0.08903
p568
aV0.08016
p569
aV0.09876
p570
aa(lp571
VAverage_F
p572
aV0.08033
p573
aV0.07256
p574
aV0.08862
p575
aasVROUGE-3
p576
(lp577
(lp578
VAverage_R
p579
aV0.02809
p580
aV0.02363
p581
aV0.03281
p582
aa(lp583
VAverage_P
p584
aV0.03031
p585
aV0.02489
p586
aV0.03644
p587
aa(lp588
VAverage_F
p589
aV0.02774
p590
aV0.02316
p591
aV0.03263
p592
aasVROUGE-1
p593
(lp594
(lp595
VAverage_R
p596
aV0.33452
p597
aV0.31580
p598
aV0.35300
p599
aa(lp600
VAverage_P
p601
aV0.36421
p602
aV0.34602
p603
aV0.38449
p604
aa(lp605
VAverage_F
p606
aV0.32705
p607
aV0.31210
p608
aV0.34256
p609
aassS'08'
p610
(dp611
VROUGE-L
p612
(lp613
(lp614
VAverage_R
p615
aV0.31971
p616
aV0.30217
p617
aV0.33569
p618
aa(lp619
VAverage_P
p620
aV0.33069
p621
aV0.31224
p622
aV0.34962
p623
aa(lp624
VAverage_F
p625
aV0.30548
p626
aV0.28994
p627
aV0.32016
p628
aasVROUGE-4
p629
(lp630
(lp631
VAverage_R
p632
aV0.01657
p633
aV0.01317
p634
aV0.02008
p635
aa(lp636
VAverage_P
p637
aV0.01757
p638
aV0.01344
p639
aV0.02198
p640
aa(lp641
VAverage_F
p642
aV0.01625
p643
aV0.01283
p644
aV0.01997
p645
aasVROUGE-2
p646
(lp647
(lp648
VAverage_R
p649
aV0.09508
p650
aV0.08672
p651
aV0.10384
p652
aa(lp653
VAverage_P
p654
aV0.09877
p655
aV0.08972
p656
aV0.10838
p657
aa(lp658
VAverage_F
p659
aV0.09117
p660
aV0.08322
p661
aV0.09905
p662
aasVROUGE-3
p663
(lp664
(lp665
VAverage_R
p666
aV0.03461
p667
aV0.02968
p668
aV0.03972
p669
aa(lp670
VAverage_P
p671
aV0.03588
p672
aV0.02989
p673
aV0.04207
p674
aa(lp675
VAverage_F
p676
aV0.03341
p677
aV0.02842
p678
aV0.03871
p679
aasVROUGE-1
p680
(lp681
(lp682
VAverage_R
p683
aV0.36352
p684
aV0.34336
p685
aV0.38245
p686
aa(lp687
VAverage_P
p688
aV0.37312
p689
aV0.35263
p690
aV0.39314
p691
aa(lp692
VAverage_F
p693
aV0.34580
p694
aV0.32898
p695
aV0.36200
p696
aassS'09'
p697
(dp698
VROUGE-L
p699
(lp700
(lp701
VAverage_R
p702
aV0.32138
p703
aV0.30562
p704
aV0.33566
p705
aa(lp706
VAverage_P
p707
aV0.34053
p708
aV0.32107
p709
aV0.35848
p710
aa(lp711
VAverage_F
p712
aV0.31072
p713
aV0.29647
p714
aV0.32374
p715
aasVROUGE-4
p716
(lp717
(lp718
VAverage_R
p719
aV0.01668
p720
aV0.01315
p721
aV0.02025
p722
aa(lp723
VAverage_P
p724
aV0.01811
p725
aV0.01415
p726
aV0.02200
p727
aa(lp728
VAverage_F
p729
aV0.01674
p730
aV0.01324
p731
aV0.02032
p732
aasVROUGE-2
p733
(lp734
(lp735
VAverage_R
p736
aV0.09513
p737
aV0.08759
p738
aV0.10206
p739
aa(lp740
VAverage_P
p741
aV0.10182
p742
aV0.09220
p743
aV0.11113
p744
aa(lp745
VAverage_F
p746
aV0.09315
p747
aV0.08574
p748
aV0.10059
p749
aasVROUGE-3
p750
(lp751
(lp752
VAverage_R
p753
aV0.03489
p754
aV0.03006
p755
aV0.03954
p756
aa(lp757
VAverage_P
p758
aV0.03806
p759
aV0.03218
p760
aV0.04425
p761
aa(lp762
VAverage_F
p763
aV0.03480
p764
aV0.02977
p765
aV0.03993
p766
aasVROUGE-1
p767
(lp768
(lp769
VAverage_R
p770
aV0.36301
p771
aV0.34461
p772
aV0.37994
p773
aa(lp774
VAverage_P
p775
aV0.38142
p776
aV0.36105
p777
aV0.40027
p778
aa(lp779
VAverage_F
p780
aV0.34942
p781
aV0.33418
p782
aV0.36350
p783
aassS'10'
p784
(dp785
VROUGE-L
p786
(lp787
(lp788
VAverage_R
p789
aV0.41143
p790
aV0.39950
p791
aV0.42247
p792
aa(lp793
VAverage_P
p794
aV0.25015
p795
aV0.23715
p796
aV0.26471
p797
aa(lp798
VAverage_F
p799
aV0.29792
p800
aV0.28713
p801
aV0.30888
p802
aasVROUGE-4
p803
(lp804
(lp805
VAverage_R
p806
aV0.01828
p807
aV0.01470
p808
aV0.02232
p809
aa(lp810
VAverage_P
p811
aV0.01090
p812
aV0.00868
p813
aV0.01340
p814
aa(lp815
VAverage_F
p816
aV0.01308
p817
aV0.01046
p818
aV0.01601
p819
aasVROUGE-2
p820
(lp821
(lp822
VAverage_R
p823
aV0.11722
p824
aV0.10934
p825
aV0.12504
p826
aa(lp827
VAverage_P
p828
aV0.07070
p829
aV0.06489
p830
aV0.07687
p831
aa(lp832
VAverage_F
p833
aV0.08434
p834
aV0.07821
p835
aV0.09052
p836
aasVROUGE-3
p837
(lp838
(lp839
VAverage_R
p840
aV0.04013
p841
aV0.03501
p842
aV0.04552
p843
aa(lp844
VAverage_P
p845
aV0.02407
p846
aV0.02070
p847
aV0.02777
p848
aa(lp849
VAverage_F
p850
aV0.02877
p851
aV0.02494
p852
aV0.03279
p853
aasVROUGE-1
p854
(lp855
(lp856
VAverage_R
p857
aV0.46902
p858
aV0.45594
p859
aV0.48169
p860
aa(lp861
VAverage_P
p862
aV0.28384
p863
aV0.26955
p864
aV0.29981
p865
aa(lp866
VAverage_F
p867
aV0.33875
p868
aV0.32697
p869
aV0.35018
p870
aass.