(dp0
S'02'
p1
(dp2
VROUGE-L
p3
(lp4
(lp5
VAverage_R
p6
aV0.35346
p7
aV0.34036
p8
aV0.36608
p9
aa(lp10
VAverage_P
p11
aV0.37706
p12
aV0.36624
p13
aV0.38831
p14
aa(lp15
VAverage_F
p16
aV0.35659
p17
aV0.34410
p18
aV0.36799
p19
aasVROUGE-4
p20
(lp21
(lp22
VAverage_R
p23
aV0.06384
p24
aV0.05615
p25
aV0.07124
p26
aa(lp27
VAverage_P
p28
aV0.06768
p29
aV0.05977
p30
aV0.07601
p31
aa(lp32
VAverage_F
p33
aV0.06434
p34
aV0.05689
p35
aV0.07172
p36
aasVROUGE-2
p37
(lp38
(lp39
VAverage_R
p40
aV0.14619
p41
aV0.13466
p42
aV0.15746
p43
aa(lp44
VAverage_P
p45
aV0.15421
p46
aV0.14299
p47
aV0.16614
p48
aa(lp49
VAverage_F
p50
aV0.14704
p51
aV0.13603
p52
aV0.15800
p53
aasVROUGE-3
p54
(lp55
(lp56
VAverage_R
p57
aV0.08876
p58
aV0.07940
p59
aV0.09773
p60
aa(lp61
VAverage_P
p62
aV0.09357
p63
aV0.08409
p64
aV0.10328
p65
aa(lp66
VAverage_F
p67
aV0.08934
p68
aV0.08028
p69
aV0.09829
p70
aasVROUGE-1
p71
(lp72
(lp73
VAverage_R
p74
aV0.38928
p75
aV0.37557
p76
aV0.40236
p77
aa(lp78
VAverage_P
p79
aV0.41586
p80
aV0.40475
p81
aV0.42759
p82
aa(lp83
VAverage_F
p84
aV0.39280
p85
aV0.38016
p86
aV0.40414
p87
aassS'10'
p88
(dp89
VROUGE-L
p90
(lp91
(lp92
VAverage_R
p93
aV0.36738
p94
aV0.35554
p95
aV0.37979
p96
aa(lp97
VAverage_P
p98
aV0.38462
p99
aV0.37338
p100
aV0.39515
p101
aa(lp102
VAverage_F
p103
aV0.36737
p104
aV0.35692
p105
aV0.37814
p106
aasVROUGE-4
p107
(lp108
(lp109
VAverage_R
p110
aV0.06598
p111
aV0.05843
p112
aV0.07284
p113
aa(lp114
VAverage_P
p115
aV0.06885
p116
aV0.06146
p117
aV0.07635
p118
aa(lp119
VAverage_F
p120
aV0.06596
p121
aV0.05873
p122
aV0.07277
p123
aasVROUGE-2
p124
(lp125
(lp126
VAverage_R
p127
aV0.15377
p128
aV0.14298
p129
aV0.16454
p130
aa(lp131
VAverage_P
p132
aV0.16055
p133
aV0.15019
p134
aV0.17112
p135
aa(lp136
VAverage_F
p137
aV0.15388
p138
aV0.14340
p139
aV0.16371
p140
aasVROUGE-3
p141
(lp142
(lp143
VAverage_R
p144
aV0.09238
p145
aV0.08356
p146
aV0.10096
p147
aa(lp148
VAverage_P
p149
aV0.09624
p150
aV0.08741
p151
aV0.10528
p152
aa(lp153
VAverage_F
p154
aV0.09242
p155
aV0.08416
p156
aV0.10073
p157
aasVROUGE-1
p158
(lp159
(lp160
VAverage_R
p161
aV0.40195
p162
aV0.38954
p163
aV0.41483
p164
aa(lp165
VAverage_P
p166
aV0.42124
p167
aV0.40958
p168
aV0.43242
p169
aa(lp170
VAverage_F
p171
aV0.40195
p172
aV0.39140
p173
aV0.41359
p174
aassS'01'
p175
(dp176
VROUGE-L
p177
(lp178
(lp179
VAverage_R
p180
aV0.39893
p181
aV0.38766
p182
aV0.41042
p183
aa(lp184
VAverage_P
p185
aV0.40683
p186
aV0.39668
p187
aV0.41703
p188
aa(lp189
VAverage_F
p190
aV0.39531
p191
aV0.38587
p192
aV0.40551
p193
aasVROUGE-4
p194
(lp195
(lp196
VAverage_R
p197
aV0.07928
p198
aV0.07218
p199
aV0.08699
p200
aa(lp201
VAverage_P
p202
aV0.08046
p203
aV0.07367
p204
aV0.08818
p205
aa(lp206
VAverage_F
p207
aV0.07820
p208
aV0.07147
p209
aV0.08526
p210
aasVROUGE-2
p211
(lp212
(lp213
VAverage_R
p214
aV0.17814
p215
aV0.16843
p216
aV0.18887
p217
aa(lp218
VAverage_P
p219
aV0.18126
p220
aV0.17170
p221
aV0.19139
p222
aa(lp223
VAverage_F
p224
aV0.17616
p225
aV0.16691
p226
aV0.18592
p227
aasVROUGE-3
p228
(lp229
(lp230
VAverage_R
p231
aV0.10943
p232
aV0.10118
p233
aV0.11858
p234
aa(lp235
VAverage_P
p236
aV0.11088
p237
aV0.10305
p238
aV0.11959
p239
aa(lp240
VAverage_F
p241
aV0.10803
p242
aV0.10044
p243
aV0.11640
p244
aasVROUGE-1
p245
(lp246
(lp247
VAverage_R
p248
aV0.43273
p249
aV0.42144
p250
aV0.44464
p251
aa(lp252
VAverage_P
p253
aV0.44136
p254
aV0.43132
p255
aV0.45180
p256
aa(lp257
VAverage_F
p258
aV0.42884
p259
aV0.41951
p260
aV0.43924
p261
aassS'04'
p262
(dp263
VROUGE-L
p264
(lp265
(lp266
VAverage_R
p267
aV0.36738
p268
aV0.35554
p269
aV0.37979
p270
aa(lp271
VAverage_P
p272
aV0.38462
p273
aV0.37338
p274
aV0.39515
p275
aa(lp276
VAverage_F
p277
aV0.36737
p278
aV0.35692
p279
aV0.37814
p280
aasVROUGE-4
p281
(lp282
(lp283
VAverage_R
p284
aV0.06598
p285
aV0.05843
p286
aV0.07284
p287
aa(lp288
VAverage_P
p289
aV0.06885
p290
aV0.06146
p291
aV0.07635
p292
aa(lp293
VAverage_F
p294
aV0.06596
p295
aV0.05873
p296
aV0.07277
p297
aasVROUGE-2
p298
(lp299
(lp300
VAverage_R
p301
aV0.15377
p302
aV0.14298
p303
aV0.16454
p304
aa(lp305
VAverage_P
p306
aV0.16055
p307
aV0.15019
p308
aV0.17112
p309
aa(lp310
VAverage_F
p311
aV0.15388
p312
aV0.14340
p313
aV0.16371
p314
aasVROUGE-3
p315
(lp316
(lp317
VAverage_R
p318
aV0.09238
p319
aV0.08356
p320
aV0.10096
p321
aa(lp322
VAverage_P
p323
aV0.09624
p324
aV0.08741
p325
aV0.10528
p326
aa(lp327
VAverage_F
p328
aV0.09242
p329
aV0.08416
p330
aV0.10073
p331
aasVROUGE-1
p332
(lp333
(lp334
VAverage_R
p335
aV0.40195
p336
aV0.38954
p337
aV0.41483
p338
aa(lp339
VAverage_P
p340
aV0.42124
p341
aV0.40958
p342
aV0.43242
p343
aa(lp344
VAverage_F
p345
aV0.40195
p346
aV0.39140
p347
aV0.41359
p348
aassS'05'
p349
(dp350
VROUGE-L
p351
(lp352
(lp353
VAverage_R
p354
aV0.38603
p355
aV0.37425
p356
aV0.39826
p357
aa(lp358
VAverage_P
p359
aV0.39302
p360
aV0.38337
p361
aV0.40329
p362
aa(lp363
VAverage_F
p364
aV0.38225
p365
aV0.37287
p366
aV0.39248
p367
aasVROUGE-4
p368
(lp369
(lp370
VAverage_R
p371
aV0.07369
p372
aV0.06689
p373
aV0.08145
p374
aa(lp375
VAverage_P
p376
aV0.07568
p377
aV0.06798
p378
aV0.08430
p379
aa(lp380
VAverage_F
p381
aV0.07293
p382
aV0.06614
p383
aV0.08056
p384
aasVROUGE-2
p385
(lp386
(lp387
VAverage_R
p388
aV0.16868
p389
aV0.15860
p390
aV0.17963
p391
aa(lp392
VAverage_P
p393
aV0.17090
p394
aV0.16074
p395
aV0.18132
p396
aa(lp397
VAverage_F
p398
aV0.16644
p399
aV0.15704
p400
aV0.17682
p401
aasVROUGE-3
p402
(lp403
(lp404
VAverage_R
p405
aV0.10247
p406
aV0.09442
p407
aV0.11156
p408
aa(lp409
VAverage_P
p410
aV0.10434
p411
aV0.09569
p412
aV0.11368
p413
aa(lp414
VAverage_F
p415
aV0.10121
p416
aV0.09350
p417
aV0.11007
p418
aasVROUGE-1
p419
(lp420
(lp421
VAverage_R
p422
aV0.41860
p423
aV0.40667
p424
aV0.43162
p425
aa(lp426
VAverage_P
p427
aV0.42648
p428
aV0.41663
p429
aV0.43729
p430
aa(lp431
VAverage_F
p432
aV0.41464
p433
aV0.40514
p434
aV0.42505
p435
aassS'03'
p436
(dp437
VROUGE-L
p438
(lp439
(lp440
VAverage_R
p441
aV0.40948
p442
aV0.39867
p443
aV0.42022
p444
aa(lp445
VAverage_P
p446
aV0.41447
p447
aV0.40504
p448
aV0.42305
p449
aa(lp450
VAverage_F
p451
aV0.40568
p452
aV0.39716
p453
aV0.41397
p454
aasVROUGE-4
p455
(lp456
(lp457
VAverage_R
p458
aV0.08096
p459
aV0.07399
p460
aV0.08802
p461
aa(lp462
VAverage_P
p463
aV0.08186
p464
aV0.07466
p465
aV0.08953
p466
aa(lp467
VAverage_F
p468
aV0.07976
p469
aV0.07308
p470
aV0.08655
p471
aasVROUGE-2
p472
(lp473
(lp474
VAverage_R
p475
aV0.18345
p476
aV0.17386
p477
aV0.19317
p478
aa(lp479
VAverage_P
p480
aV0.18494
p481
aV0.17552
p482
aV0.19433
p483
aa(lp484
VAverage_F
p485
aV0.18102
p486
aV0.17201
p487
aV0.19010
p488
aasVROUGE-3
p489
(lp490
(lp491
VAverage_R
p492
aV0.11274
p493
aV0.10449
p494
aV0.12088
p495
aa(lp496
VAverage_P
p497
aV0.11351
p498
aV0.10530
p499
aV0.12235
p500
aa(lp501
VAverage_F
p502
aV0.11102
p503
aV0.10326
p504
aV0.11892
p505
aasVROUGE-1
p506
(lp507
(lp508
VAverage_R
p509
aV0.44279
p510
aV0.43194
p511
aV0.45405
p512
aa(lp513
VAverage_P
p514
aV0.44819
p515
aV0.43889
p516
aV0.45687
p517
aa(lp518
VAverage_F
p519
aV0.43869
p520
aV0.43021
p521
aV0.44714
p522
aassS'08'
p523
(dp524
VROUGE-L
p525
(lp526
(lp527
VAverage_R
p528
aV0.40197
p529
aV0.39044
p530
aV0.41392
p531
aa(lp532
VAverage_P
p533
aV0.40137
p534
aV0.39173
p535
aV0.41115
p536
aa(lp537
VAverage_F
p538
aV0.39541
p539
aV0.38594
p540
aV0.40494
p541
aasVROUGE-4
p542
(lp543
(lp544
VAverage_R
p545
aV0.08033
p546
aV0.07265
p547
aV0.08877
p548
aa(lp549
VAverage_P
p550
aV0.07950
p551
aV0.07228
p552
aV0.08720
p553
aa(lp554
VAverage_F
p555
aV0.07831
p556
aV0.07123
p557
aV0.08580
p558
aasVROUGE-2
p559
(lp560
(lp561
VAverage_R
p562
aV0.17994
p563
aV0.16937
p564
aV0.19123
p565
aa(lp566
VAverage_P
p567
aV0.17785
p568
aV0.16789
p569
aV0.18839
p570
aa(lp571
VAverage_F
p572
aV0.17589
p573
aV0.16584
p574
aV0.18590
p575
aasVROUGE-3
p576
(lp577
(lp578
VAverage_R
p579
aV0.11096
p580
aV0.10197
p581
aV0.12093
p582
aa(lp583
VAverage_P
p584
aV0.10951
p585
aV0.10041
p586
aV0.11880
p587
aa(lp588
VAverage_F
p589
aV0.10820
p590
aV0.09958
p591
aV0.11707
p592
aasVROUGE-1
p593
(lp594
(lp595
VAverage_R
p596
aV0.43487
p597
aV0.42297
p598
aV0.44694
p599
aa(lp600
VAverage_P
p601
aV0.43432
p602
aV0.42451
p603
aV0.44414
p604
aa(lp605
VAverage_F
p606
aV0.42779
p607
aV0.41829
p608
aV0.43773
p609
aass.