(lp0
V---------------------------------------------\u000a01 ROUGE-1 Average_R: 0.32420 (95%-conf.int. 0.30898 - 0.34052)\u000a01 ROUGE-1 Average_P: 0.39484 (95%-conf.int. 0.37717 - 0.41310)\u000a01 ROUGE-1 Average_F: 0.33984 (95%-conf.int. 0.32611 - 0.35354)\u000a---------------------------------------------\u000a01 ROUGE-2 Average_R: 0.08039 (95%-conf.int. 0.07256 - 0.08925)\u000a01 ROUGE-2 Average_P: 0.09703 (95%-conf.int. 0.08762 - 0.10704)\u000a01 ROUGE-2 Average_F: 0.08425 (95%-conf.int. 0.07643 - 0.09251)\u000a---------------------------------------------\u000a01 ROUGE-3 Average_R: 0.03023 (95%-conf.int. 0.02539 - 0.03600)\u000a01 ROUGE-3 Average_P: 0.03659 (95%-conf.int. 0.03052 - 0.04320)\u000a01 ROUGE-3 Average_F: 0.03164 (95%-conf.int. 0.02663 - 0.03710)\u000a---------------------------------------------\u000a01 ROUGE-4 Average_R: 0.01481 (95%-conf.int. 0.01117 - 0.01885)\u000a01 ROUGE-4 Average_P: 0.01793 (95%-conf.int. 0.01383 - 0.02252)\u000a01 ROUGE-4 Average_F: 0.01539 (95%-conf.int. 0.01179 - 0.01932)\u000a---------------------------------------------\u000a01 ROUGE-L Average_R: 0.28738 (95%-conf.int. 0.27423 - 0.30219)\u000a01 ROUGE-L Average_P: 0.35108 (95%-conf.int. 0.33456 - 0.36879)\u000a01 ROUGE-L Average_F: 0.30145 (95%-conf.int. 0.28912 - 0.31367)\u000a---------------------------------------------\u000a02 ROUGE-1 Average_R: 0.29163 (95%-conf.int. 0.27655 - 0.30706)\u000a02 ROUGE-1 Average_P: 0.36149 (95%-conf.int. 0.34515 - 0.37736)\u000a02 ROUGE-1 Average_F: 0.30611 (95%-conf.int. 0.29270 - 0.31898)\u000a---------------------------------------------\u000a02 ROUGE-2 Average_R: 0.05990 (95%-conf.int. 0.05384 - 0.06665)\u000a02 ROUGE-2 Average_P: 0.07346 (95%-conf.int. 0.06546 - 0.08150)\u000a02 ROUGE-2 Average_F: 0.06278 (95%-conf.int. 0.05610 - 0.06976)\u000a---------------------------------------------\u000a02 ROUGE-3 Average_R: 0.02099 (95%-conf.int. 0.01686 - 0.02537)\u000a02 ROUGE-3 Average_P: 0.02515 (95%-conf.int. 0.02034 - 0.03061)\u000a02 ROUGE-3 Average_F: 0.02207 (95%-conf.int. 0.01781 - 0.02683)\u000a---------------------------------------------\u000a02 ROUGE-4 Average_R: 0.01010 (95%-conf.int. 0.00712 - 0.01343)\u000a02 ROUGE-4 Average_P: 0.01209 (95%-conf.int. 0.00855 - 0.01617)\u000a02 ROUGE-4 Average_F: 0.01069 (95%-conf.int. 0.00751 - 0.01419)\u000a---------------------------------------------\u000a02 ROUGE-L Average_R: 0.24850 (95%-conf.int. 0.23542 - 0.26140)\u000a02 ROUGE-L Average_P: 0.30999 (95%-conf.int. 0.29497 - 0.32465)\u000a02 ROUGE-L Average_F: 0.26123 (95%-conf.int. 0.24936 - 0.27277)\u000a---------------------------------------------\u000a03 ROUGE-1 Average_R: 0.31495 (95%-conf.int. 0.30030 - 0.32958)\u000a03 ROUGE-1 Average_P: 0.39659 (95%-conf.int. 0.38038 - 0.41203)\u000a03 ROUGE-1 Average_F: 0.33811 (95%-conf.int. 0.32601 - 0.35049)\u000a---------------------------------------------\u000a03 ROUGE-2 Average_R: 0.06808 (95%-conf.int. 0.06141 - 0.07497)\u000a03 ROUGE-2 Average_P: 0.08435 (95%-conf.int. 0.07651 - 0.09202)\u000a03 ROUGE-2 Average_F: 0.07249 (95%-conf.int. 0.06598 - 0.07912)\u000a---------------------------------------------\u000a03 ROUGE-3 Average_R: 0.02149 (95%-conf.int. 0.01775 - 0.02529)\u000a03 ROUGE-3 Average_P: 0.02617 (95%-conf.int. 0.02178 - 0.03062)\u000a03 ROUGE-3 Average_F: 0.02276 (95%-conf.int. 0.01895 - 0.02670)\u000a---------------------------------------------\u000a03 ROUGE-4 Average_R: 0.00925 (95%-conf.int. 0.00700 - 0.01154)\u000a03 ROUGE-4 Average_P: 0.01129 (95%-conf.int. 0.00858 - 0.01409)\u000a03 ROUGE-4 Average_F: 0.00979 (95%-conf.int. 0.00753 - 0.01229)\u000a---------------------------------------------\u000a03 ROUGE-L Average_R: 0.27848 (95%-conf.int. 0.26529 - 0.29124)\u000a03 ROUGE-L Average_P: 0.35148 (95%-conf.int. 0.33657 - 0.36627)\u000a03 ROUGE-L Average_F: 0.29916 (95%-conf.int. 0.28826 - 0.31020)\u000a---------------------------------------------\u000a04 ROUGE-1 Average_R: 0.29744 (95%-conf.int. 0.27920 - 0.31544)\u000a04 ROUGE-1 Average_P: 0.37242 (95%-conf.int. 0.35394 - 0.39063)\u000a04 ROUGE-1 Average_F: 0.31003 (95%-conf.int. 0.29540 - 0.32512)\u000a---------------------------------------------\u000a04 ROUGE-2 Average_R: 0.06406 (95%-conf.int. 0.05750 - 0.07082)\u000a04 ROUGE-2 Average_P: 0.07595 (95%-conf.int. 0.06856 - 0.08376)\u000a04 ROUGE-2 Average_F: 0.06592 (95%-conf.int. 0.05939 - 0.07276)\u000a---------------------------------------------\u000a04 ROUGE-3 Average_R: 0.02132 (95%-conf.int. 0.01743 - 0.02551)\u000a04 ROUGE-3 Average_P: 0.02374 (95%-conf.int. 0.01975 - 0.02850)\u000a04 ROUGE-3 Average_F: 0.02147 (95%-conf.int. 0.01775 - 0.02541)\u000a---------------------------------------------\u000a04 ROUGE-4 Average_R: 0.01000 (95%-conf.int. 0.00727 - 0.01316)\u000a04 ROUGE-4 Average_P: 0.01063 (95%-conf.int. 0.00788 - 0.01378)\u000a04 ROUGE-4 Average_F: 0.00983 (95%-conf.int. 0.00722 - 0.01271)\u000a---------------------------------------------\u000a04 ROUGE-L Average_R: 0.25620 (95%-conf.int. 0.24032 - 0.27134)\u000a04 ROUGE-L Average_P: 0.32283 (95%-conf.int. 0.30539 - 0.34056)\u000a04 ROUGE-L Average_F: 0.26716 (95%-conf.int. 0.25422 - 0.28071)\u000a---------------------------------------------\u000a05 ROUGE-1 Average_R: 0.32582 (95%-conf.int. 0.30970 - 0.34082)\u000a05 ROUGE-1 Average_P: 0.38704 (95%-conf.int. 0.36915 - 0.40502)\u000a05 ROUGE-1 Average_F: 0.33896 (95%-conf.int. 0.32483 - 0.35201)\u000a---------------------------------------------\u000a05 ROUGE-2 Average_R: 0.07697 (95%-conf.int. 0.06961 - 0.08440)\u000a05 ROUGE-2 Average_P: 0.09083 (95%-conf.int. 0.08248 - 0.10012)\u000a05 ROUGE-2 Average_F: 0.08024 (95%-conf.int. 0.07323 - 0.08781)\u000a---------------------------------------------\u000a05 ROUGE-3 Average_R: 0.02579 (95%-conf.int. 0.02159 - 0.03001)\u000a05 ROUGE-3 Average_P: 0.03073 (95%-conf.int. 0.02562 - 0.03669)\u000a05 ROUGE-3 Average_F: 0.02693 (95%-conf.int. 0.02280 - 0.03140)\u000a---------------------------------------------\u000a05 ROUGE-4 Average_R: 0.01154 (95%-conf.int. 0.00883 - 0.01456)\u000a05 ROUGE-4 Average_P: 0.01417 (95%-conf.int. 0.01044 - 0.01856)\u000a05 ROUGE-4 Average_F: 0.01213 (95%-conf.int. 0.00923 - 0.01534)\u000a---------------------------------------------\u000a05 ROUGE-L Average_R: 0.28860 (95%-conf.int. 0.27503 - 0.30192)\u000a05 ROUGE-L Average_P: 0.34406 (95%-conf.int. 0.32752 - 0.36092)\u000a05 ROUGE-L Average_F: 0.30053 (95%-conf.int. 0.28766 - 0.31242)\u000a---------------------------------------------\u000a06 ROUGE-1 Average_R: 0.32227 (95%-conf.int. 0.30856 - 0.33713)\u000a06 ROUGE-1 Average_P: 0.38788 (95%-conf.int. 0.36980 - 0.40713)\u000a06 ROUGE-1 Average_F: 0.33808 (95%-conf.int. 0.32514 - 0.35105)\u000a---------------------------------------------\u000a06 ROUGE-2 Average_R: 0.07678 (95%-conf.int. 0.06978 - 0.08378)\u000a06 ROUGE-2 Average_P: 0.09138 (95%-conf.int. 0.08286 - 0.09956)\u000a06 ROUGE-2 Average_F: 0.08080 (95%-conf.int. 0.07375 - 0.08802)\u000a---------------------------------------------\u000a06 ROUGE-3 Average_R: 0.02731 (95%-conf.int. 0.02332 - 0.03164)\u000a06 ROUGE-3 Average_P: 0.03258 (95%-conf.int. 0.02740 - 0.03768)\u000a06 ROUGE-3 Average_F: 0.02882 (95%-conf.int. 0.02441 - 0.03323)\u000a---------------------------------------------\u000a06 ROUGE-4 Average_R: 0.01349 (95%-conf.int. 0.01053 - 0.01671)\u000a06 ROUGE-4 Average_P: 0.01624 (95%-conf.int. 0.01271 - 0.02006)\u000a06 ROUGE-4 Average_F: 0.01429 (95%-conf.int. 0.01113 - 0.01769)\u000a---------------------------------------------\u000a06 ROUGE-L Average_R: 0.28629 (95%-conf.int. 0.27423 - 0.29882)\u000a06 ROUGE-L Average_P: 0.34533 (95%-conf.int. 0.32873 - 0.36374)\u000a06 ROUGE-L Average_F: 0.30049 (95%-conf.int. 0.28877 - 0.31261)\u000a---------------------------------------------\u000a07 ROUGE-1 Average_R: 0.32383 (95%-conf.int. 0.30809 - 0.33921)\u000a07 ROUGE-1 Average_P: 0.39083 (95%-conf.int. 0.37280 - 0.40973)\u000a07 ROUGE-1 Average_F: 0.33880 (95%-conf.int. 0.32500 - 0.35335)\u000a---------------------------------------------\u000a07 ROUGE-2 Average_R: 0.07782 (95%-conf.int. 0.07013 - 0.08554)\u000a07 ROUGE-2 Average_P: 0.09410 (95%-conf.int. 0.08478 - 0.10431)\u000a07 ROUGE-2 Average_F: 0.08204 (95%-conf.int. 0.07433 - 0.08997)\u000a---------------------------------------------\u000a07 ROUGE-3 Average_R: 0.02770 (95%-conf.int. 0.02334 - 0.03236)\u000a07 ROUGE-3 Average_P: 0.03406 (95%-conf.int. 0.02814 - 0.04078)\u000a07 ROUGE-3 Average_F: 0.02935 (95%-conf.int. 0.02470 - 0.03436)\u000a---------------------------------------------\u000a07 ROUGE-4 Average_R: 0.01338 (95%-conf.int. 0.01039 - 0.01643)\u000a07 ROUGE-4 Average_P: 0.01679 (95%-conf.int. 0.01284 - 0.02147)\u000a07 ROUGE-4 Average_F: 0.01422 (95%-conf.int. 0.01114 - 0.01752)\u000a---------------------------------------------\u000a07 ROUGE-L Average_R: 0.28766 (95%-conf.int. 0.27377 - 0.30068)\u000a07 ROUGE-L Average_P: 0.34890 (95%-conf.int. 0.33221 - 0.36682)\u000a07 ROUGE-L Average_F: 0.30149 (95%-conf.int. 0.28927 - 0.31417)\u000a---------------------------------------------\u000a08 ROUGE-1 Average_R: 0.33418 (95%-conf.int. 0.31946 - 0.34811)\u000a08 ROUGE-1 Average_P: 0.40688 (95%-conf.int. 0.38988 - 0.42534)\u000a08 ROUGE-1 Average_F: 0.35063 (95%-conf.int. 0.33743 - 0.36411)\u000a---------------------------------------------\u000a08 ROUGE-2 Average_R: 0.08377 (95%-conf.int. 0.07632 - 0.09109)\u000a08 ROUGE-2 Average_P: 0.09971 (95%-conf.int. 0.09091 - 0.10884)\u000a08 ROUGE-2 Average_F: 0.08784 (95%-conf.int. 0.08001 - 0.09559)\u000a---------------------------------------------\u000a08 ROUGE-3 Average_R: 0.02990 (95%-conf.int. 0.02542 - 0.03451)\u000a08 ROUGE-3 Average_P: 0.03514 (95%-conf.int. 0.02979 - 0.04102)\u000a08 ROUGE-3 Average_F: 0.03126 (95%-conf.int. 0.02656 - 0.03617)\u000a---------------------------------------------\u000a08 ROUGE-4 Average_R: 0.01425 (95%-conf.int. 0.01127 - 0.01761)\u000a08 ROUGE-4 Average_P: 0.01665 (95%-conf.int. 0.01311 - 0.02080)\u000a08 ROUGE-4 Average_F: 0.01485 (95%-conf.int. 0.01176 - 0.01849)\u000a---------------------------------------------\u000a08 ROUGE-L Average_R: 0.29531 (95%-conf.int. 0.28214 - 0.30805)\u000a08 ROUGE-L Average_P: 0.36080 (95%-conf.int. 0.34458 - 0.37841)\u000a08 ROUGE-L Average_F: 0.31024 (95%-conf.int. 0.29830 - 0.32282)\u000a---------------------------------------------\u000a09 ROUGE-1 Average_R: 0.33428 (95%-conf.int. 0.31903 - 0.35004)\u000a09 ROUGE-1 Average_P: 0.41112 (95%-conf.int. 0.39296 - 0.42931)\u000a09 ROUGE-1 Average_F: 0.35078 (95%-conf.int. 0.33714 - 0.36401)\u000a---------------------------------------------\u000a09 ROUGE-2 Average_R: 0.08581 (95%-conf.int. 0.07840 - 0.09377)\u000a09 ROUGE-2 Average_P: 0.10462 (95%-conf.int. 0.09527 - 0.11444)\u000a09 ROUGE-2 Average_F: 0.09004 (95%-conf.int. 0.08226 - 0.09805)\u000a---------------------------------------------\u000a09 ROUGE-3 Average_R: 0.03226 (95%-conf.int. 0.02750 - 0.03721)\u000a09 ROUGE-3 Average_P: 0.03887 (95%-conf.int. 0.03294 - 0.04566)\u000a09 ROUGE-3 Average_F: 0.03387 (95%-conf.int. 0.02898 - 0.03882)\u000a---------------------------------------------\u000a09 ROUGE-4 Average_R: 0.01572 (95%-conf.int. 0.01239 - 0.01912)\u000a09 ROUGE-4 Average_P: 0.01903 (95%-conf.int. 0.01494 - 0.02376)\u000a09 ROUGE-4 Average_F: 0.01646 (95%-conf.int. 0.01312 - 0.01980)\u000a---------------------------------------------\u000a09 ROUGE-L Average_R: 0.29589 (95%-conf.int. 0.28237 - 0.31000)\u000a09 ROUGE-L Average_P: 0.36503 (95%-conf.int. 0.34716 - 0.38269)\u000a09 ROUGE-L Average_F: 0.31070 (95%-conf.int. 0.29784 - 0.32323)\u000a---------------------------------------------\u000a10 ROUGE-1 Average_R: 0.29744 (95%-conf.int. 0.27920 - 0.31544)\u000a10 ROUGE-1 Average_P: 0.37242 (95%-conf.int. 0.35394 - 0.39063)\u000a10 ROUGE-1 Average_F: 0.31003 (95%-conf.int. 0.29540 - 0.32512)\u000a---------------------------------------------\u000a10 ROUGE-2 Average_R: 0.06406 (95%-conf.int. 0.05750 - 0.07082)\u000a10 ROUGE-2 Average_P: 0.07595 (95%-conf.int. 0.06856 - 0.08376)\u000a10 ROUGE-2 Average_F: 0.06592 (95%-conf.int. 0.05939 - 0.07276)\u000a---------------------------------------------\u000a10 ROUGE-3 Average_R: 0.02132 (95%-conf.int. 0.01743 - 0.02551)\u000a10 ROUGE-3 Average_P: 0.02374 (95%-conf.int. 0.01975 - 0.02850)\u000a10 ROUGE-3 Average_F: 0.02147 (95%-conf.int. 0.01775 - 0.02541)\u000a---------------------------------------------\u000a10 ROUGE-4 Average_R: 0.01000 (95%-conf.int. 0.00727 - 0.01316)\u000a10 ROUGE-4 Average_P: 0.01063 (95%-conf.int. 0.00788 - 0.01378)\u000a10 ROUGE-4 Average_F: 0.00983 (95%-conf.int. 0.00722 - 0.01271)\u000a---------------------------------------------\u000a10 ROUGE-L Average_R: 0.25620 (95%-conf.int. 0.24032 - 0.27134)\u000a10 ROUGE-L Average_P: 0.32283 (95%-conf.int. 0.30539 - 0.34056)\u000a10 ROUGE-L Average_F: 0.26716 (95%-conf.int. 0.25422 - 0.28071)\u000a
p1
a.