(lp0
V---------------------------------------------\u000a01 ROUGE-1 Average_R: 0.37235 (95%-conf.int. 0.34873 - 0.39519)\u000a01 ROUGE-1 Average_P: 0.39540 (95%-conf.int. 0.37374 - 0.41815)\u000a01 ROUGE-1 Average_F: 0.35948 (95%-conf.int. 0.33991 - 0.37857)\u000a---------------------------------------------\u000a01 ROUGE-2 Average_R: 0.13673 (95%-conf.int. 0.12076 - 0.15301)\u000a01 ROUGE-2 Average_P: 0.14119 (95%-conf.int. 0.12567 - 0.15772)\u000a01 ROUGE-2 Average_F: 0.13155 (95%-conf.int. 0.11704 - 0.14670)\u000a---------------------------------------------\u000a01 ROUGE-3 Average_R: 0.08653 (95%-conf.int. 0.07256 - 0.10101)\u000a01 ROUGE-3 Average_P: 0.08805 (95%-conf.int. 0.07426 - 0.10251)\u000a01 ROUGE-3 Average_F: 0.08285 (95%-conf.int. 0.07041 - 0.09606)\u000a---------------------------------------------\u000a01 ROUGE-4 Average_R: 0.07041 (95%-conf.int. 0.05801 - 0.08370)\u000a01 ROUGE-4 Average_P: 0.07101 (95%-conf.int. 0.05884 - 0.08393)\u000a01 ROUGE-4 Average_F: 0.06707 (95%-conf.int. 0.05585 - 0.07895)\u000a---------------------------------------------\u000a01 ROUGE-L Average_R: 0.33787 (95%-conf.int. 0.31654 - 0.35783)\u000a01 ROUGE-L Average_P: 0.36141 (95%-conf.int. 0.34049 - 0.38205)\u000a01 ROUGE-L Average_F: 0.32728 (95%-conf.int. 0.30913 - 0.34554)\u000a---------------------------------------------\u000a02 ROUGE-1 Average_R: 0.50990 (95%-conf.int. 0.49187 - 0.52914)\u000a02 ROUGE-1 Average_P: 0.33576 (95%-conf.int. 0.31890 - 0.35211)\u000a02 ROUGE-1 Average_F: 0.38830 (95%-conf.int. 0.37319 - 0.40141)\u000a---------------------------------------------\u000a02 ROUGE-2 Average_R: 0.20216 (95%-conf.int. 0.18329 - 0.22178)\u000a02 ROUGE-2 Average_P: 0.13505 (95%-conf.int. 0.12118 - 0.14879)\u000a02 ROUGE-2 Average_F: 0.15525 (95%-conf.int. 0.14035 - 0.17035)\u000a---------------------------------------------\u000a02 ROUGE-3 Average_R: 0.14215 (95%-conf.int. 0.12248 - 0.16168)\u000a02 ROUGE-3 Average_P: 0.09654 (95%-conf.int. 0.08337 - 0.10962)\u000a02 ROUGE-3 Average_F: 0.11033 (95%-conf.int. 0.09600 - 0.12470)\u000a---------------------------------------------\u000a02 ROUGE-4 Average_R: 0.12387 (95%-conf.int. 0.10522 - 0.14257)\u000a02 ROUGE-4 Average_P: 0.08432 (95%-conf.int. 0.07198 - 0.09700)\u000a02 ROUGE-4 Average_F: 0.09630 (95%-conf.int. 0.08245 - 0.11040)\u000a---------------------------------------------\u000a02 ROUGE-L Average_R: 0.46099 (95%-conf.int. 0.44404 - 0.47915)\u000a02 ROUGE-L Average_P: 0.30550 (95%-conf.int. 0.28909 - 0.32240)\u000a02 ROUGE-L Average_F: 0.35243 (95%-conf.int. 0.33729 - 0.36668)\u000a---------------------------------------------\u000a03 ROUGE-1 Average_R: 0.37619 (95%-conf.int. 0.35873 - 0.39253)\u000a03 ROUGE-1 Average_P: 0.41250 (95%-conf.int. 0.39133 - 0.43286)\u000a03 ROUGE-1 Average_F: 0.37388 (95%-conf.int. 0.35883 - 0.38877)\u000a---------------------------------------------\u000a03 ROUGE-2 Average_R: 0.14485 (95%-conf.int. 0.12934 - 0.16051)\u000a03 ROUGE-2 Average_P: 0.15710 (95%-conf.int. 0.14210 - 0.17160)\u000a03 ROUGE-2 Average_F: 0.14235 (95%-conf.int. 0.12965 - 0.15494)\u000a---------------------------------------------\u000a03 ROUGE-3 Average_R: 0.09465 (95%-conf.int. 0.08035 - 0.11029)\u000a03 ROUGE-3 Average_P: 0.10126 (95%-conf.int. 0.08788 - 0.11441)\u000a03 ROUGE-3 Average_F: 0.09210 (95%-conf.int. 0.07990 - 0.10453)\u000a---------------------------------------------\u000a03 ROUGE-4 Average_R: 0.07748 (95%-conf.int. 0.06385 - 0.09252)\u000a03 ROUGE-4 Average_P: 0.08208 (95%-conf.int. 0.06940 - 0.09478)\u000a03 ROUGE-4 Average_F: 0.07482 (95%-conf.int. 0.06323 - 0.08684)\u000a---------------------------------------------\u000a03 ROUGE-L Average_R: 0.34373 (95%-conf.int. 0.32784 - 0.35922)\u000a03 ROUGE-L Average_P: 0.37809 (95%-conf.int. 0.35787 - 0.39776)\u000a03 ROUGE-L Average_F: 0.34204 (95%-conf.int. 0.32762 - 0.35570)\u000a---------------------------------------------\u000a04 ROUGE-1 Average_R: 0.52118 (95%-conf.int. 0.50583 - 0.53794)\u000a04 ROUGE-1 Average_P: 0.32032 (95%-conf.int. 0.30376 - 0.33906)\u000a04 ROUGE-1 Average_F: 0.38008 (95%-conf.int. 0.36667 - 0.39409)\u000a---------------------------------------------\u000a04 ROUGE-2 Average_R: 0.20988 (95%-conf.int. 0.19256 - 0.22797)\u000a04 ROUGE-2 Average_P: 0.12940 (95%-conf.int. 0.11769 - 0.14239)\u000a04 ROUGE-2 Average_F: 0.15292 (95%-conf.int. 0.14026 - 0.16658)\u000a---------------------------------------------\u000a04 ROUGE-3 Average_R: 0.14014 (95%-conf.int. 0.12232 - 0.15794)\u000a04 ROUGE-3 Average_P: 0.08647 (95%-conf.int. 0.07556 - 0.09843)\u000a04 ROUGE-3 Average_F: 0.10209 (95%-conf.int. 0.08976 - 0.11482)\u000a---------------------------------------------\u000a04 ROUGE-4 Average_R: 0.11945 (95%-conf.int. 0.10196 - 0.13656)\u000a04 ROUGE-4 Average_P: 0.07356 (95%-conf.int. 0.06333 - 0.08489)\u000a04 ROUGE-4 Average_F: 0.08689 (95%-conf.int. 0.07499 - 0.09891)\u000a---------------------------------------------\u000a04 ROUGE-L Average_R: 0.47211 (95%-conf.int. 0.45667 - 0.48821)\u000a04 ROUGE-L Average_P: 0.29124 (95%-conf.int. 0.27495 - 0.30939)\u000a04 ROUGE-L Average_F: 0.34497 (95%-conf.int. 0.33167 - 0.35884)\u000a---------------------------------------------\u000a05 ROUGE-1 Average_R: 0.41228 (95%-conf.int. 0.38998 - 0.43478)\u000a05 ROUGE-1 Average_P: 0.43595 (95%-conf.int. 0.41241 - 0.46044)\u000a05 ROUGE-1 Average_F: 0.40175 (95%-conf.int. 0.38354 - 0.42077)\u000a---------------------------------------------\u000a05 ROUGE-2 Average_R: 0.18639 (95%-conf.int. 0.16783 - 0.20529)\u000a05 ROUGE-2 Average_P: 0.19672 (95%-conf.int. 0.17826 - 0.21706)\u000a05 ROUGE-2 Average_F: 0.18262 (95%-conf.int. 0.16568 - 0.20015)\u000a---------------------------------------------\u000a05 ROUGE-3 Average_R: 0.13559 (95%-conf.int. 0.11827 - 0.15295)\u000a05 ROUGE-3 Average_P: 0.14202 (95%-conf.int. 0.12458 - 0.16088)\u000a05 ROUGE-3 Average_F: 0.13259 (95%-conf.int. 0.11647 - 0.14931)\u000a---------------------------------------------\u000a05 ROUGE-4 Average_R: 0.11771 (95%-conf.int. 0.10091 - 0.13452)\u000a05 ROUGE-4 Average_P: 0.12307 (95%-conf.int. 0.10659 - 0.14048)\u000a05 ROUGE-4 Average_F: 0.11491 (95%-conf.int. 0.09917 - 0.13027)\u000a---------------------------------------------\u000a05 ROUGE-L Average_R: 0.37948 (95%-conf.int. 0.35832 - 0.40099)\u000a05 ROUGE-L Average_P: 0.40261 (95%-conf.int. 0.37937 - 0.42660)\u000a05 ROUGE-L Average_F: 0.37047 (95%-conf.int. 0.35289 - 0.38872)\u000a---------------------------------------------\u000a06 ROUGE-1 Average_R: 0.38192 (95%-conf.int. 0.36086 - 0.40135)\u000a06 ROUGE-1 Average_P: 0.41781 (95%-conf.int. 0.39618 - 0.43817)\u000a06 ROUGE-1 Average_F: 0.37517 (95%-conf.int. 0.35726 - 0.39221)\u000a---------------------------------------------\u000a06 ROUGE-2 Average_R: 0.14636 (95%-conf.int. 0.13103 - 0.16178)\u000a06 ROUGE-2 Average_P: 0.15685 (95%-conf.int. 0.14139 - 0.17287)\u000a06 ROUGE-2 Average_F: 0.14390 (95%-conf.int. 0.12988 - 0.15843)\u000a---------------------------------------------\u000a06 ROUGE-3 Average_R: 0.09592 (95%-conf.int. 0.08173 - 0.11048)\u000a06 ROUGE-3 Average_P: 0.09952 (95%-conf.int. 0.08544 - 0.11365)\u000a06 ROUGE-3 Average_F: 0.09334 (95%-conf.int. 0.08029 - 0.10719)\u000a---------------------------------------------\u000a06 ROUGE-4 Average_R: 0.08028 (95%-conf.int. 0.06688 - 0.09397)\u000a06 ROUGE-4 Average_P: 0.08166 (95%-conf.int. 0.06843 - 0.09465)\u000a06 ROUGE-4 Average_F: 0.07753 (95%-conf.int. 0.06536 - 0.09010)\u000a---------------------------------------------\u000a06 ROUGE-L Average_R: 0.34662 (95%-conf.int. 0.32795 - 0.36423)\u000a06 ROUGE-L Average_P: 0.38081 (95%-conf.int. 0.36038 - 0.40066)\u000a06 ROUGE-L Average_F: 0.34146 (95%-conf.int. 0.32481 - 0.35835)\u000a---------------------------------------------\u000a07 ROUGE-1 Average_R: 0.39560 (95%-conf.int. 0.37370 - 0.41580)\u000a07 ROUGE-1 Average_P: 0.42153 (95%-conf.int. 0.39978 - 0.44352)\u000a07 ROUGE-1 Average_F: 0.38529 (95%-conf.int. 0.36754 - 0.40237)\u000a---------------------------------------------\u000a07 ROUGE-2 Average_R: 0.16135 (95%-conf.int. 0.14473 - 0.17813)\u000a07 ROUGE-2 Average_P: 0.17089 (95%-conf.int. 0.15329 - 0.18755)\u000a07 ROUGE-2 Average_F: 0.15796 (95%-conf.int. 0.14240 - 0.17315)\u000a---------------------------------------------\u000a07 ROUGE-3 Average_R: 0.10951 (95%-conf.int. 0.09359 - 0.12478)\u000a07 ROUGE-3 Average_P: 0.11405 (95%-conf.int. 0.09773 - 0.12970)\u000a07 ROUGE-3 Average_F: 0.10667 (95%-conf.int. 0.09218 - 0.12075)\u000a---------------------------------------------\u000a07 ROUGE-4 Average_R: 0.09279 (95%-conf.int. 0.07786 - 0.10721)\u000a07 ROUGE-4 Average_P: 0.09571 (95%-conf.int. 0.08068 - 0.11035)\u000a07 ROUGE-4 Average_F: 0.08993 (95%-conf.int. 0.07606 - 0.10303)\u000a---------------------------------------------\u000a07 ROUGE-L Average_R: 0.36115 (95%-conf.int. 0.34096 - 0.37969)\u000a07 ROUGE-L Average_P: 0.38698 (95%-conf.int. 0.36640 - 0.40805)\u000a07 ROUGE-L Average_F: 0.35283 (95%-conf.int. 0.33594 - 0.36995)\u000a---------------------------------------------\u000a08 ROUGE-1 Average_R: 0.43791 (95%-conf.int. 0.41671 - 0.45846)\u000a08 ROUGE-1 Average_P: 0.44229 (95%-conf.int. 0.41977 - 0.46517)\u000a08 ROUGE-1 Average_F: 0.41744 (95%-conf.int. 0.40023 - 0.43472)\u000a---------------------------------------------\u000a08 ROUGE-2 Average_R: 0.19891 (95%-conf.int. 0.18166 - 0.21615)\u000a08 ROUGE-2 Average_P: 0.20109 (95%-conf.int. 0.18304 - 0.21821)\u000a08 ROUGE-2 Average_F: 0.19013 (95%-conf.int. 0.17495 - 0.20547)\u000a---------------------------------------------\u000a08 ROUGE-3 Average_R: 0.14266 (95%-conf.int. 0.12597 - 0.15833)\u000a08 ROUGE-3 Average_P: 0.14285 (95%-conf.int. 0.12673 - 0.15887)\u000a08 ROUGE-3 Average_F: 0.13588 (95%-conf.int. 0.12118 - 0.14990)\u000a---------------------------------------------\u000a08 ROUGE-4 Average_R: 0.12296 (95%-conf.int. 0.10734 - 0.13793)\u000a08 ROUGE-4 Average_P: 0.12250 (95%-conf.int. 0.10714 - 0.13766)\u000a08 ROUGE-4 Average_F: 0.11679 (95%-conf.int. 0.10284 - 0.13023)\u000a---------------------------------------------\u000a08 ROUGE-L Average_R: 0.40144 (95%-conf.int. 0.38071 - 0.42123)\u000a08 ROUGE-L Average_P: 0.40742 (95%-conf.int. 0.38556 - 0.42998)\u000a08 ROUGE-L Average_F: 0.38370 (95%-conf.int. 0.36674 - 0.40069)\u000a---------------------------------------------\u000a09 ROUGE-1 Average_R: 0.43029 (95%-conf.int. 0.40983 - 0.45023)\u000a09 ROUGE-1 Average_P: 0.43777 (95%-conf.int. 0.41719 - 0.45912)\u000a09 ROUGE-1 Average_F: 0.40955 (95%-conf.int. 0.39293 - 0.42549)\u000a---------------------------------------------\u000a09 ROUGE-2 Average_R: 0.19444 (95%-conf.int. 0.17702 - 0.21190)\u000a09 ROUGE-2 Average_P: 0.19411 (95%-conf.int. 0.17811 - 0.21135)\u000a09 ROUGE-2 Average_F: 0.18359 (95%-conf.int. 0.16939 - 0.19893)\u000a---------------------------------------------\u000a09 ROUGE-3 Average_R: 0.13871 (95%-conf.int. 0.12264 - 0.15602)\u000a09 ROUGE-3 Average_P: 0.13571 (95%-conf.int. 0.12110 - 0.15156)\u000a09 ROUGE-3 Average_F: 0.12952 (95%-conf.int. 0.11553 - 0.14428)\u000a---------------------------------------------\u000a09 ROUGE-4 Average_R: 0.11939 (95%-conf.int. 0.10390 - 0.13608)\u000a09 ROUGE-4 Average_P: 0.11532 (95%-conf.int. 0.10156 - 0.13020)\u000a09 ROUGE-4 Average_F: 0.11064 (95%-conf.int. 0.09773 - 0.12490)\u000a---------------------------------------------\u000a09 ROUGE-L Average_R: 0.39564 (95%-conf.int. 0.37603 - 0.41367)\u000a09 ROUGE-L Average_P: 0.40366 (95%-conf.int. 0.38407 - 0.42496)\u000a09 ROUGE-L Average_F: 0.37721 (95%-conf.int. 0.36048 - 0.39314)\u000a---------------------------------------------\u000a10 ROUGE-1 Average_R: 0.52118 (95%-conf.int. 0.50583 - 0.53794)\u000a10 ROUGE-1 Average_P: 0.32032 (95%-conf.int. 0.30376 - 0.33906)\u000a10 ROUGE-1 Average_F: 0.38008 (95%-conf.int. 0.36667 - 0.39409)\u000a---------------------------------------------\u000a10 ROUGE-2 Average_R: 0.20988 (95%-conf.int. 0.19256 - 0.22797)\u000a10 ROUGE-2 Average_P: 0.12940 (95%-conf.int. 0.11769 - 0.14239)\u000a10 ROUGE-2 Average_F: 0.15292 (95%-conf.int. 0.14026 - 0.16658)\u000a---------------------------------------------\u000a10 ROUGE-3 Average_R: 0.14014 (95%-conf.int. 0.12232 - 0.15794)\u000a10 ROUGE-3 Average_P: 0.08647 (95%-conf.int. 0.07556 - 0.09843)\u000a10 ROUGE-3 Average_F: 0.10209 (95%-conf.int. 0.08976 - 0.11482)\u000a---------------------------------------------\u000a10 ROUGE-4 Average_R: 0.11945 (95%-conf.int. 0.10196 - 0.13656)\u000a10 ROUGE-4 Average_P: 0.07356 (95%-conf.int. 0.06333 - 0.08489)\u000a10 ROUGE-4 Average_F: 0.08689 (95%-conf.int. 0.07499 - 0.09891)\u000a---------------------------------------------\u000a10 ROUGE-L Average_R: 0.47211 (95%-conf.int. 0.45667 - 0.48821)\u000a10 ROUGE-L Average_P: 0.29124 (95%-conf.int. 0.27495 - 0.30939)\u000a10 ROUGE-L Average_F: 0.34497 (95%-conf.int. 0.33167 - 0.35884)\u000a
p1
a.