(dp0
S'02'
p1
(dp2
VROUGE-L
p3
(lp4
(lp5
VAverage_R
p6
aV0.46099
p7
aV0.44404
p8
aV0.47915
p9
aa(lp10
VAverage_P
p11
aV0.30550
p12
aV0.28909
p13
aV0.32240
p14
aa(lp15
VAverage_F
p16
aV0.35243
p17
aV0.33729
p18
aV0.36668
p19
aasVROUGE-4
p20
(lp21
(lp22
VAverage_R
p23
aV0.12387
p24
aV0.10522
p25
aV0.14257
p26
aa(lp27
VAverage_P
p28
aV0.08432
p29
aV0.07198
p30
aV0.09700
p31
aa(lp32
VAverage_F
p33
aV0.09630
p34
aV0.08245
p35
aV0.11040
p36
aasVROUGE-2
p37
(lp38
(lp39
VAverage_R
p40
aV0.20216
p41
aV0.18329
p42
aV0.22178
p43
aa(lp44
VAverage_P
p45
aV0.13505
p46
aV0.12118
p47
aV0.14879
p48
aa(lp49
VAverage_F
p50
aV0.15525
p51
aV0.14035
p52
aV0.17035
p53
aasVROUGE-3
p54
(lp55
(lp56
VAverage_R
p57
aV0.14215
p58
aV0.12248
p59
aV0.16168
p60
aa(lp61
VAverage_P
p62
aV0.09654
p63
aV0.08337
p64
aV0.10962
p65
aa(lp66
VAverage_F
p67
aV0.11033
p68
aV0.09600
p69
aV0.12470
p70
aasVROUGE-1
p71
(lp72
(lp73
VAverage_R
p74
aV0.50990
p75
aV0.49187
p76
aV0.52914
p77
aa(lp78
VAverage_P
p79
aV0.33576
p80
aV0.31890
p81
aV0.35211
p82
aa(lp83
VAverage_F
p84
aV0.38830
p85
aV0.37319
p86
aV0.40141
p87
aassS'03'
p88
(dp89
VROUGE-L
p90
(lp91
(lp92
VAverage_R
p93
aV0.34373
p94
aV0.32784
p95
aV0.35922
p96
aa(lp97
VAverage_P
p98
aV0.37809
p99
aV0.35787
p100
aV0.39776
p101
aa(lp102
VAverage_F
p103
aV0.34204
p104
aV0.32762
p105
aV0.35570
p106
aasVROUGE-4
p107
(lp108
(lp109
VAverage_R
p110
aV0.07748
p111
aV0.06385
p112
aV0.09252
p113
aa(lp114
VAverage_P
p115
aV0.08208
p116
aV0.06940
p117
aV0.09478
p118
aa(lp119
VAverage_F
p120
aV0.07482
p121
aV0.06323
p122
aV0.08684
p123
aasVROUGE-2
p124
(lp125
(lp126
VAverage_R
p127
aV0.14485
p128
aV0.12934
p129
aV0.16051
p130
aa(lp131
VAverage_P
p132
aV0.15710
p133
aV0.14210
p134
aV0.17160
p135
aa(lp136
VAverage_F
p137
aV0.14235
p138
aV0.12965
p139
aV0.15494
p140
aasVROUGE-3
p141
(lp142
(lp143
VAverage_R
p144
aV0.09465
p145
aV0.08035
p146
aV0.11029
p147
aa(lp148
VAverage_P
p149
aV0.10126
p150
aV0.08788
p151
aV0.11441
p152
aa(lp153
VAverage_F
p154
aV0.09210
p155
aV0.07990
p156
aV0.10453
p157
aasVROUGE-1
p158
(lp159
(lp160
VAverage_R
p161
aV0.37619
p162
aV0.35873
p163
aV0.39253
p164
aa(lp165
VAverage_P
p166
aV0.41250
p167
aV0.39133
p168
aV0.43286
p169
aa(lp170
VAverage_F
p171
aV0.37388
p172
aV0.35883
p173
aV0.38877
p174
aassS'01'
p175
(dp176
VROUGE-L
p177
(lp178
(lp179
VAverage_R
p180
aV0.33787
p181
aV0.31654
p182
aV0.35783
p183
aa(lp184
VAverage_P
p185
aV0.36141
p186
aV0.34049
p187
aV0.38205
p188
aa(lp189
VAverage_F
p190
aV0.32728
p191
aV0.30913
p192
aV0.34554
p193
aasVROUGE-4
p194
(lp195
(lp196
VAverage_R
p197
aV0.07041
p198
aV0.05801
p199
aV0.08370
p200
aa(lp201
VAverage_P
p202
aV0.07101
p203
aV0.05884
p204
aV0.08393
p205
aa(lp206
VAverage_F
p207
aV0.06707
p208
aV0.05585
p209
aV0.07895
p210
aasVROUGE-2
p211
(lp212
(lp213
VAverage_R
p214
aV0.13673
p215
aV0.12076
p216
aV0.15301
p217
aa(lp218
VAverage_P
p219
aV0.14119
p220
aV0.12567
p221
aV0.15772
p222
aa(lp223
VAverage_F
p224
aV0.13155
p225
aV0.11704
p226
aV0.14670
p227
aasVROUGE-3
p228
(lp229
(lp230
VAverage_R
p231
aV0.08653
p232
aV0.07256
p233
aV0.10101
p234
aa(lp235
VAverage_P
p236
aV0.08805
p237
aV0.07426
p238
aV0.10251
p239
aa(lp240
VAverage_F
p241
aV0.08285
p242
aV0.07041
p243
aV0.09606
p244
aasVROUGE-1
p245
(lp246
(lp247
VAverage_R
p248
aV0.37235
p249
aV0.34873
p250
aV0.39519
p251
aa(lp252
VAverage_P
p253
aV0.39540
p254
aV0.37374
p255
aV0.41815
p256
aa(lp257
VAverage_F
p258
aV0.35948
p259
aV0.33991
p260
aV0.37857
p261
aassS'06'
p262
(dp263
VROUGE-L
p264
(lp265
(lp266
VAverage_R
p267
aV0.34662
p268
aV0.32795
p269
aV0.36423
p270
aa(lp271
VAverage_P
p272
aV0.38081
p273
aV0.36038
p274
aV0.40066
p275
aa(lp276
VAverage_F
p277
aV0.34146
p278
aV0.32481
p279
aV0.35835
p280
aasVROUGE-4
p281
(lp282
(lp283
VAverage_R
p284
aV0.08028
p285
aV0.06688
p286
aV0.09397
p287
aa(lp288
VAverage_P
p289
aV0.08166
p290
aV0.06843
p291
aV0.09465
p292
aa(lp293
VAverage_F
p294
aV0.07753
p295
aV0.06536
p296
aV0.09010
p297
aasVROUGE-2
p298
(lp299
(lp300
VAverage_R
p301
aV0.14636
p302
aV0.13103
p303
aV0.16178
p304
aa(lp305
VAverage_P
p306
aV0.15685
p307
aV0.14139
p308
aV0.17287
p309
aa(lp310
VAverage_F
p311
aV0.14390
p312
aV0.12988
p313
aV0.15843
p314
aasVROUGE-3
p315
(lp316
(lp317
VAverage_R
p318
aV0.09592
p319
aV0.08173
p320
aV0.11048
p321
aa(lp322
VAverage_P
p323
aV0.09952
p324
aV0.08544
p325
aV0.11365
p326
aa(lp327
VAverage_F
p328
aV0.09334
p329
aV0.08029
p330
aV0.10719
p331
aasVROUGE-1
p332
(lp333
(lp334
VAverage_R
p335
aV0.38192
p336
aV0.36086
p337
aV0.40135
p338
aa(lp339
VAverage_P
p340
aV0.41781
p341
aV0.39618
p342
aV0.43817
p343
aa(lp344
VAverage_F
p345
aV0.37517
p346
aV0.35726
p347
aV0.39221
p348
aassS'07'
p349
(dp350
VROUGE-L
p351
(lp352
(lp353
VAverage_R
p354
aV0.36115
p355
aV0.34096
p356
aV0.37969
p357
aa(lp358
VAverage_P
p359
aV0.38698
p360
aV0.36640
p361
aV0.40805
p362
aa(lp363
VAverage_F
p364
aV0.35283
p365
aV0.33594
p366
aV0.36995
p367
aasVROUGE-4
p368
(lp369
(lp370
VAverage_R
p371
aV0.09279
p372
aV0.07786
p373
aV0.10721
p374
aa(lp375
VAverage_P
p376
aV0.09571
p377
aV0.08068
p378
aV0.11035
p379
aa(lp380
VAverage_F
p381
aV0.08993
p382
aV0.07606
p383
aV0.10303
p384
aasVROUGE-2
p385
(lp386
(lp387
VAverage_R
p388
aV0.16135
p389
aV0.14473
p390
aV0.17813
p391
aa(lp392
VAverage_P
p393
aV0.17089
p394
aV0.15329
p395
aV0.18755
p396
aa(lp397
VAverage_F
p398
aV0.15796
p399
aV0.14240
p400
aV0.17315
p401
aasVROUGE-3
p402
(lp403
(lp404
VAverage_R
p405
aV0.10951
p406
aV0.09359
p407
aV0.12478
p408
aa(lp409
VAverage_P
p410
aV0.11405
p411
aV0.09773
p412
aV0.12970
p413
aa(lp414
VAverage_F
p415
aV0.10667
p416
aV0.09218
p417
aV0.12075
p418
aasVROUGE-1
p419
(lp420
(lp421
VAverage_R
p422
aV0.39560
p423
aV0.37370
p424
aV0.41580
p425
aa(lp426
VAverage_P
p427
aV0.42153
p428
aV0.39978
p429
aV0.44352
p430
aa(lp431
VAverage_F
p432
aV0.38529
p433
aV0.36754
p434
aV0.40237
p435
aassS'04'
p436
(dp437
VROUGE-L
p438
(lp439
(lp440
VAverage_R
p441
aV0.47211
p442
aV0.45667
p443
aV0.48821
p444
aa(lp445
VAverage_P
p446
aV0.29124
p447
aV0.27495
p448
aV0.30939
p449
aa(lp450
VAverage_F
p451
aV0.34497
p452
aV0.33167
p453
aV0.35884
p454
aasVROUGE-4
p455
(lp456
(lp457
VAverage_R
p458
aV0.11945
p459
aV0.10196
p460
aV0.13656
p461
aa(lp462
VAverage_P
p463
aV0.07356
p464
aV0.06333
p465
aV0.08489
p466
aa(lp467
VAverage_F
p468
aV0.08689
p469
aV0.07499
p470
aV0.09891
p471
aasVROUGE-2
p472
(lp473
(lp474
VAverage_R
p475
aV0.20988
p476
aV0.19256
p477
aV0.22797
p478
aa(lp479
VAverage_P
p480
aV0.12940
p481
aV0.11769
p482
aV0.14239
p483
aa(lp484
VAverage_F
p485
aV0.15292
p486
aV0.14026
p487
aV0.16658
p488
aasVROUGE-3
p489
(lp490
(lp491
VAverage_R
p492
aV0.14014
p493
aV0.12232
p494
aV0.15794
p495
aa(lp496
VAverage_P
p497
aV0.08647
p498
aV0.07556
p499
aV0.09843
p500
aa(lp501
VAverage_F
p502
aV0.10209
p503
aV0.08976
p504
aV0.11482
p505
aasVROUGE-1
p506
(lp507
(lp508
VAverage_R
p509
aV0.52118
p510
aV0.50583
p511
aV0.53794
p512
aa(lp513
VAverage_P
p514
aV0.32032
p515
aV0.30376
p516
aV0.33906
p517
aa(lp518
VAverage_F
p519
aV0.38008
p520
aV0.36667
p521
aV0.39409
p522
aassS'05'
p523
(dp524
VROUGE-L
p525
(lp526
(lp527
VAverage_R
p528
aV0.37948
p529
aV0.35832
p530
aV0.40099
p531
aa(lp532
VAverage_P
p533
aV0.40261
p534
aV0.37937
p535
aV0.42660
p536
aa(lp537
VAverage_F
p538
aV0.37047
p539
aV0.35289
p540
aV0.38872
p541
aasVROUGE-4
p542
(lp543
(lp544
VAverage_R
p545
aV0.11771
p546
aV0.10091
p547
aV0.13452
p548
aa(lp549
VAverage_P
p550
aV0.12307
p551
aV0.10659
p552
aV0.14048
p553
aa(lp554
VAverage_F
p555
aV0.11491
p556
aV0.09917
p557
aV0.13027
p558
aasVROUGE-2
p559
(lp560
(lp561
VAverage_R
p562
aV0.18639
p563
aV0.16783
p564
aV0.20529
p565
aa(lp566
VAverage_P
p567
aV0.19672
p568
aV0.17826
p569
aV0.21706
p570
aa(lp571
VAverage_F
p572
aV0.18262
p573
aV0.16568
p574
aV0.20015
p575
aasVROUGE-3
p576
(lp577
(lp578
VAverage_R
p579
aV0.13559
p580
aV0.11827
p581
aV0.15295
p582
aa(lp583
VAverage_P
p584
aV0.14202
p585
aV0.12458
p586
aV0.16088
p587
aa(lp588
VAverage_F
p589
aV0.13259
p590
aV0.11647
p591
aV0.14931
p592
aasVROUGE-1
p593
(lp594
(lp595
VAverage_R
p596
aV0.41228
p597
aV0.38998
p598
aV0.43478
p599
aa(lp600
VAverage_P
p601
aV0.43595
p602
aV0.41241
p603
aV0.46044
p604
aa(lp605
VAverage_F
p606
aV0.40175
p607
aV0.38354
p608
aV0.42077
p609
aassS'08'
p610
(dp611
VROUGE-L
p612
(lp613
(lp614
VAverage_R
p615
aV0.40144
p616
aV0.38071
p617
aV0.42123
p618
aa(lp619
VAverage_P
p620
aV0.40742
p621
aV0.38556
p622
aV0.42998
p623
aa(lp624
VAverage_F
p625
aV0.38370
p626
aV0.36674
p627
aV0.40069
p628
aasVROUGE-4
p629
(lp630
(lp631
VAverage_R
p632
aV0.12296
p633
aV0.10734
p634
aV0.13793
p635
aa(lp636
VAverage_P
p637
aV0.12250
p638
aV0.10714
p639
aV0.13766
p640
aa(lp641
VAverage_F
p642
aV0.11679
p643
aV0.10284
p644
aV0.13023
p645
aasVROUGE-2
p646
(lp647
(lp648
VAverage_R
p649
aV0.19891
p650
aV0.18166
p651
aV0.21615
p652
aa(lp653
VAverage_P
p654
aV0.20109
p655
aV0.18304
p656
aV0.21821
p657
aa(lp658
VAverage_F
p659
aV0.19013
p660
aV0.17495
p661
aV0.20547
p662
aasVROUGE-3
p663
(lp664
(lp665
VAverage_R
p666
aV0.14266
p667
aV0.12597
p668
aV0.15833
p669
aa(lp670
VAverage_P
p671
aV0.14285
p672
aV0.12673
p673
aV0.15887
p674
aa(lp675
VAverage_F
p676
aV0.13588
p677
aV0.12118
p678
aV0.14990
p679
aasVROUGE-1
p680
(lp681
(lp682
VAverage_R
p683
aV0.43791
p684
aV0.41671
p685
aV0.45846
p686
aa(lp687
VAverage_P
p688
aV0.44229
p689
aV0.41977
p690
aV0.46517
p691
aa(lp692
VAverage_F
p693
aV0.41744
p694
aV0.40023
p695
aV0.43472
p696
aassS'09'
p697
(dp698
VROUGE-L
p699
(lp700
(lp701
VAverage_R
p702
aV0.39564
p703
aV0.37603
p704
aV0.41367
p705
aa(lp706
VAverage_P
p707
aV0.40366
p708
aV0.38407
p709
aV0.42496
p710
aa(lp711
VAverage_F
p712
aV0.37721
p713
aV0.36048
p714
aV0.39314
p715
aasVROUGE-4
p716
(lp717
(lp718
VAverage_R
p719
aV0.11939
p720
aV0.10390
p721
aV0.13608
p722
aa(lp723
VAverage_P
p724
aV0.11532
p725
aV0.10156
p726
aV0.13020
p727
aa(lp728
VAverage_F
p729
aV0.11064
p730
aV0.09773
p731
aV0.12490
p732
aasVROUGE-2
p733
(lp734
(lp735
VAverage_R
p736
aV0.19444
p737
aV0.17702
p738
aV0.21190
p739
aa(lp740
VAverage_P
p741
aV0.19411
p742
aV0.17811
p743
aV0.21135
p744
aa(lp745
VAverage_F
p746
aV0.18359
p747
aV0.16939
p748
aV0.19893
p749
aasVROUGE-3
p750
(lp751
(lp752
VAverage_R
p753
aV0.13871
p754
aV0.12264
p755
aV0.15602
p756
aa(lp757
VAverage_P
p758
aV0.13571
p759
aV0.12110
p760
aV0.15156
p761
aa(lp762
VAverage_F
p763
aV0.12952
p764
aV0.11553
p765
aV0.14428
p766
aasVROUGE-1
p767
(lp768
(lp769
VAverage_R
p770
aV0.43029
p771
aV0.40983
p772
aV0.45023
p773
aa(lp774
VAverage_P
p775
aV0.43777
p776
aV0.41719
p777
aV0.45912
p778
aa(lp779
VAverage_F
p780
aV0.40955
p781
aV0.39293
p782
aV0.42549
p783
aassS'10'
p784
(dp785
VROUGE-L
p786
(lp787
(lp788
VAverage_R
p789
aV0.47211
p790
aV0.45667
p791
aV0.48821
p792
aa(lp793
VAverage_P
p794
aV0.29124
p795
aV0.27495
p796
aV0.30939
p797
aa(lp798
VAverage_F
p799
aV0.34497
p800
aV0.33167
p801
aV0.35884
p802
aasVROUGE-4
p803
(lp804
(lp805
VAverage_R
p806
aV0.11945
p807
aV0.10196
p808
aV0.13656
p809
aa(lp810
VAverage_P
p811
aV0.07356
p812
aV0.06333
p813
aV0.08489
p814
aa(lp815
VAverage_F
p816
aV0.08689
p817
aV0.07499
p818
aV0.09891
p819
aasVROUGE-2
p820
(lp821
(lp822
VAverage_R
p823
aV0.20988
p824
aV0.19256
p825
aV0.22797
p826
aa(lp827
VAverage_P
p828
aV0.12940
p829
aV0.11769
p830
aV0.14239
p831
aa(lp832
VAverage_F
p833
aV0.15292
p834
aV0.14026
p835
aV0.16658
p836
aasVROUGE-3
p837
(lp838
(lp839
VAverage_R
p840
aV0.14014
p841
aV0.12232
p842
aV0.15794
p843
aa(lp844
VAverage_P
p845
aV0.08647
p846
aV0.07556
p847
aV0.09843
p848
aa(lp849
VAverage_F
p850
aV0.10209
p851
aV0.08976
p852
aV0.11482
p853
aasVROUGE-1
p854
(lp855
(lp856
VAverage_R
p857
aV0.52118
p858
aV0.50583
p859
aV0.53794
p860
aa(lp861
VAverage_P
p862
aV0.32032
p863
aV0.30376
p864
aV0.33906
p865
aa(lp866
VAverage_F
p867
aV0.38008
p868
aV0.36667
p869
aV0.39409
p870
aass.