(lp0
VA summarization system consisting of a multi-dimensional classification space of summary in form of semantic link network of pictures and language representations and a requirement space defined and managed by users
p1
a.