(lp0
VThe intention of representation is indicated by core representations and by citation from other representations
p1
aVA summarization system consisting of a multi-dimensional classification space of summary in form of semantic link network of pictures and language representations and a requirement space defined and managed by users
p2
aVThe summarization of pictures also helps incorporate appropriate pictures into the summary as discussed before
p3
a.